 canvas

 Timestamp is 56d4e1df (Mon Feb 29 19:27:11 2016)

 Preferred load address is 0000000180000000

 Start         Length     Name                   Class
 0001:00000000 000001dbH .text                   CODE
 0001:000001e0 000000b7H .text$di                CODE
 0001:000002a0 0002e550H .text$mn                CODE
 0001:0002e7f0 000001d5H .text$mn$00             CODE
 0001:0002e9d0 00000af0H .text$x                 CODE
 0001:0002f4c0 000000b1H .text$yd                CODE
 0002:00000000 000005f8H .idata$5                DATA
 0002:000005f8 00000010H .00cfg                  DATA
 0002:00000608 00000008H .CRT$XCA                DATA
 0002:00000610 00000038H .CRT$XCU                DATA
 0002:00000648 00000008H .CRT$XCZ                DATA
 0002:00000650 00000008H .CRT$XIA                DATA
 0002:00000658 00000018H .CRT$XIC                DATA
 0002:00000670 00000008H .CRT$XIZ                DATA
 0002:00000678 00000008H .CRT$XPA                DATA
 0002:00000680 00000010H .CRT$XPX                DATA
 0002:00000690 00000008H .CRT$XPXA               DATA
 0002:00000698 00000008H .CRT$XPZ                DATA
 0002:000006a0 00000008H .CRT$XTA                DATA
 0002:000006a8 00000008H .CRT$XTZ                DATA
 0002:000006b0 00000000H .gfids$x                DATA
 0002:000006b0 0000b744H .rdata                  DATA
 0002:0000bdf8 0000037cH .rdata$r                DATA
 0002:0000c178 00000010H .rdata$zETW0            DATA
 0002:0000c188 00000077H .rdata$zETW1            DATA
 0002:0000c1ff 0000002cH .rdata$zETW2            DATA
 0002:0000c22b 00000001H .rdata$zETW9            DATA
 0002:0000c22c 0000048cH .rdata$zzzdbg           DATA
 0002:0000c6b8 00000008H .rtc$IAA                DATA
 0002:0000c6c0 00000008H .rtc$IZZ                DATA
 0002:0000c6c8 00000008H .rtc$TAA                DATA
 0002:0000c6d0 00000008H .rtc$TZZ                DATA
 0002:0000c6e0 00002ffcH .xdata                  DATA
 0002:0000f6e0 000001dcH .xdata$x                DATA
 0002:0000f8bc 00000020H .didat$2                DATA
 0002:0000f8dc 00000020H .didat$3                DATA
 0002:0000f900 000003c0H .didat$4                DATA
 0002:0000fcc0 00001f68H .didat$6                DATA
 0002:00011c28 000003c0H .didat$7                DATA
 0002:00011ff0 0000474bH .edata                  DATA
 0002:0001673c 00000050H .idata$2                DATA
 0002:0001678c 00000014H .idata$3                DATA
 0002:000167a0 000005f8H .idata$4                DATA
 0002:00016d98 00000fc6H .idata$6                DATA
 0003:00000000 00000ac0H .data                   DATA
 0003:00000ac0 00000118H .data$r                 DATA
 0003:00000bd8 000003c0H .didat$5                DATA
 0003:00000fa0 00001124H .bss                    DATA
 0004:00000000 00002484H .pdata                  DATA
 0005:00000000 00000058H .rsrc$01                DATA
 0005:00000060 00000180H .rsrc$02                DATA

  Address         Publics by Value              Rva+Base               Lib:Object

 0000:00000000       __guard_fids_count         0000000000000000     <absolute>
 0000:00000000       ___safe_se_handler_count   0000000000000000     <absolute>
 0000:00000000       ___safe_se_handler_table   0000000000000000     <absolute>
 0000:00000000       __guard_fids_table         0000000000000000     <absolute>
 0000:00000100       __guard_flags              0000000000000100     <absolute>
 0000:00000000       __ImageBase                0000000180000000     <linker-defined>
 0001:00000000       ?TraceLoggingRegister@__vcrt_trace_logging_provider@@YAJPEBU_TlgProvider_t@1@PEBU_GUID@@P6AX1KE_K2PEAU_EVENT_FILTER_DESCRIPTOR@@PEAX@Z4@Z 0000000180001000 f i libvcruntime:telemetry.obj
 0001:0000007c       ?_TlgEnableCallback@__vcrt_trace_logging_provider@@YAXPEBU_GUID@@KE_K1PEAU_EVENT_FILTER_DESCRIPTOR@@PEAX@Z 000000018000107c f i libvcruntime:telemetry.obj
 0001:00000140       ?_TlgWrite@__vcrt_trace_logging_provider@@YAJPEBU_TlgProvider_t@1@PEFBXPEBU_GUID@@2IPEAU_EVENT_DATA_DESCRIPTOR@@@Z 0000000180001140 f i libvcruntime:telemetry.obj
 0001:000002a0       ?Data@Contents@SharedArrayBuffer@v8@@QEBAPEAXXZ 00000001800012a0 f i Canvas.obj
 0001:000002a0       ?GetIsolate@HandleScope@v8@@QEBAPEAVIsolate@2@XZ 00000001800012a0 f i Canvas.obj
 0001:000002a0       ?impl@StreamedSource@ScriptCompiler@v8@@QEBAPEAU1internal@3@XZ 00000001800012a0 f i Canvas.obj
 0001:000002a0       ??DUtf8Value@String@v8@@QEAAPEADXZ 00000001800012a0 f i Canvas.obj
 0001:000002a0       ?Data@Contents@ArrayBuffer@v8@@QEBAPEAXXZ 00000001800012a0 f i Canvas.obj
 0001:000002a0       ??DValue@String@v8@@QEBAPEBGXZ 00000001800012a0 f i Canvas.obj
 0001:000002a0       ?object_type@HeapObjectStatistics@v8@@QEAAPEBDXZ 00000001800012a0 f i Canvas.obj
 0001:000002a0       ?total_heap_size@HeapStatistics@v8@@QEAA_KXZ 00000001800012a0 f i Canvas.obj
 0001:000002a0       ?space_name@HeapSpaceStatistics@v8@@QEAAPEBDXZ 00000001800012a0 f i Canvas.obj
 0001:000002a0       ??DValue@String@v8@@QEAAPEAGXZ 00000001800012a0 f i Canvas.obj
 0001:000002a0       ??DUtf8Value@String@v8@@QEBAPEBDXZ 00000001800012a0 f i Canvas.obj
 0001:000002b0       ??4ScriptCompiler@v8@@QEAAAEAV01@$$QEAV01@@Z 00000001800012b0 f i Canvas.obj
 0001:000002b0       ??4TypedArray@v8@@QEAAAEAV01@AEBV01@@Z 00000001800012b0 f i Canvas.obj
 0001:000002b0       ??4Resolver@Promise@v8@@QEAAAEAV012@$$QEAV012@@Z 00000001800012b0 f i Canvas.obj
 0001:000002b0       ??4ArrayBufferView@v8@@QEAAAEAV01@$$QEAV01@@Z 00000001800012b0 f i Canvas.obj
 0001:000002b0       ??4Int16Array@v8@@QEAAAEAV01@$$QEAV01@@Z 00000001800012b0 f i Canvas.obj
 0001:000002b0       ??4Uint16Array@v8@@QEAAAEAV01@$$QEAV01@@Z 00000001800012b0 f i Canvas.obj
 0001:000002b0       ?Cast@Uint8Array@v8@@SAPEAV12@PEAVValue@2@@Z 00000001800012b0 f i Canvas.obj
 0001:000002b0       ?Cast@Number@v8@@SAPEAV12@PEAVValue@2@@Z 00000001800012b0 f i Canvas.obj
 0001:000002b0       ??4TypeSwitch@v8@@QEAAAEAV01@$$QEAV01@@Z 00000001800012b0 f i Canvas.obj
 0001:000002b0       ??4Int16Array@v8@@QEAAAEAV01@AEBV01@@Z 00000001800012b0 f i Canvas.obj
 0001:000002b0       ??4V8@v8@@QEAAAEAV01@$$QEAV01@@Z 00000001800012b0 f i Canvas.obj
 0001:000002b0       ??4SharedArrayBuffer@v8@@QEAAAEAV01@AEBV01@@Z 00000001800012b0 f i Canvas.obj
 0001:000002b0       ??4Symbol@v8@@QEAAAEAV01@AEBV01@@Z 00000001800012b0 f i Canvas.obj
 0001:000002b0       ?Cast@Int8Array@v8@@SAPEAV12@PEAVValue@2@@Z 00000001800012b0 f i Canvas.obj
 0001:000002b0       ??4Uint8Array@v8@@QEAAAEAV01@AEBV01@@Z 00000001800012b0 f i Canvas.obj
 0001:000002b0       ?Cast@DataView@v8@@SAPEAV12@PEAVValue@2@@Z 00000001800012b0 f i Canvas.obj
 0001:000002b0       ??4Integer@v8@@QEAAAEAV01@AEBV01@@Z 00000001800012b0 f i Canvas.obj
 0001:000002b0       ??4External@v8@@QEAAAEAV01@AEBV01@@Z 00000001800012b0 f i Canvas.obj
 0001:000002b0       ??4Uint32Array@v8@@QEAAAEAV01@AEBV01@@Z 00000001800012b0 f i Canvas.obj
 0001:000002b0       ??4Date@v8@@QEAAAEAV01@$$QEAV01@@Z 00000001800012b0 f i Canvas.obj
 0001:000002b0       ??4String@v8@@QEAAAEAV01@AEBV01@@Z 00000001800012b0 f i Canvas.obj
 0001:000002b0       ??4Float64Array@v8@@QEAAAEAV01@$$QEAV01@@Z 00000001800012b0 f i Canvas.obj
 0001:000002b0       ??4Primitive@v8@@QEAAAEAV01@$$QEAV01@@Z 00000001800012b0 f i Canvas.obj
 0001:000002b0       ??4Data@v8@@QEAAAEAV01@$$QEAV01@@Z 00000001800012b0 f i Canvas.obj
 0001:000002b0       ??4Script@v8@@QEAAAEAV01@$$QEAV01@@Z 00000001800012b0 f i Canvas.obj
 0001:000002b0       ??4ExternalSourceStream@ScriptCompiler@v8@@QEAAAEAV012@AEBV012@@Z 00000001800012b0 f i Canvas.obj
 0001:000002b0       ??4ObjectTemplate@v8@@QEAAAEAV01@$$QEAV01@@Z 00000001800012b0 f i Canvas.obj
 0001:000002b0       ?Cast@Set@v8@@SAPEAV12@PEAVValue@2@@Z 00000001800012b0 f i Canvas.obj
 0001:000002b0       ??4Set@v8@@QEAAAEAV01@AEBV01@@Z 00000001800012b0 f i Canvas.obj
 0001:000002b0       ??4Exception@v8@@QEAAAEAV01@$$QEAV01@@Z 00000001800012b0 f i Canvas.obj
 0001:000002b0       ?Cast@Int16Array@v8@@SAPEAV12@PEAVValue@2@@Z 00000001800012b0 f i Canvas.obj
 0001:000002b0       ??4Script@v8@@QEAAAEAV01@AEBV01@@Z 00000001800012b0 f i Canvas.obj
 0001:000002b0       ?Cast@External@v8@@SAPEAV12@PEAVValue@2@@Z 00000001800012b0 f i Canvas.obj
 0001:000002b0       ?Cast@ArrayBufferView@v8@@SAPEAV12@PEAVValue@2@@Z 00000001800012b0 f i Canvas.obj
 0001:000002b0       ??4PersistentHandleVisitor@v8@@QEAAAEAV01@AEBV01@@Z 00000001800012b0 f i Canvas.obj
 0001:000002b0       ??4Uint32@v8@@QEAAAEAV01@AEBV01@@Z 00000001800012b0 f i Canvas.obj
 0001:000002b0       ??4NativeWeakMap@v8@@QEAAAEAV01@AEBV01@@Z 00000001800012b0 f i Canvas.obj
 0001:000002b0       ??4Float64Array@v8@@QEAAAEAV01@AEBV01@@Z 00000001800012b0 f i Canvas.obj
 0001:000002b0       ??4Map@v8@@QEAAAEAV01@AEBV01@@Z 00000001800012b0 f i Canvas.obj
 0001:000002b0       ??4UnboundScript@v8@@QEAAAEAV01@AEBV01@@Z 00000001800012b0 f i Canvas.obj
 0001:000002b0       ??4Number@v8@@QEAAAEAV01@AEBV01@@Z 00000001800012b0 f i Canvas.obj
 0001:000002b0       ?Cast@Float32Array@v8@@SAPEAV12@PEAVValue@2@@Z 00000001800012b0 f i Canvas.obj
 0001:000002b0       ??4Float32Array@v8@@QEAAAEAV01@AEBV01@@Z 00000001800012b0 f i Canvas.obj
 0001:000002b0       ??4TypedArray@v8@@QEAAAEAV01@$$QEAV01@@Z 00000001800012b0 f i Canvas.obj
 0001:000002b0       ??4Int32Array@v8@@QEAAAEAV01@AEBV01@@Z 00000001800012b0 f i Canvas.obj
 0001:000002b0       ??0HandleScope@v8@@IEAA@XZ 00000001800012b0 f i Canvas.obj
 0001:000002b0       ??4Symbol@v8@@QEAAAEAV01@$$QEAV01@@Z 00000001800012b0 f i Canvas.obj
 0001:000002b0       ??4Function@v8@@QEAAAEAV01@AEBV01@@Z 00000001800012b0 f i Canvas.obj
 0001:000002b0       ??4Value@v8@@QEAAAEAV01@$$QEAV01@@Z 00000001800012b0 f i Canvas.obj
 0001:000002b0       ??4External@v8@@QEAAAEAV01@$$QEAV01@@Z 00000001800012b0 f i Canvas.obj
 0001:000002b0       ??4NumberObject@v8@@QEAAAEAV01@AEBV01@@Z 00000001800012b0 f i Canvas.obj
 0001:000002b0       ??4StackFrame@v8@@QEAAAEAV01@AEBV01@@Z 00000001800012b0 f i Canvas.obj
 0001:000002b0       ??4Set@v8@@QEAAAEAV01@$$QEAV01@@Z 00000001800012b0 f i Canvas.obj
 0001:000002b0       ?Cast@SharedArrayBuffer@v8@@SAPEAV12@PEAVValue@2@@Z 00000001800012b0 f i Canvas.obj
 0001:000002b0       ??4Uint8ClampedArray@v8@@QEAAAEAV01@AEBV01@@Z 00000001800012b0 f i Canvas.obj
 0001:000002b0       ??4ScriptCompiler@v8@@QEAAAEAV01@AEBV01@@Z 00000001800012b0 f i Canvas.obj
 0001:000002b0       ??4SymbolObject@v8@@QEAAAEAV01@AEBV01@@Z 00000001800012b0 f i Canvas.obj
 0001:000002b0       ??4Promise@v8@@QEAAAEAV01@$$QEAV01@@Z 00000001800012b0 f i Canvas.obj
 0001:000002b0       ??4Template@v8@@QEAAAEAV01@$$QEAV01@@Z 00000001800012b0 f i Canvas.obj
 0001:000002b0       ??4UnboundScript@v8@@QEAAAEAV01@$$QEAV01@@Z 00000001800012b0 f i Canvas.obj
 0001:000002b0       ?Cast@Resolver@Promise@v8@@SAPEAV123@PEAVValue@3@@Z 00000001800012b0 f i Canvas.obj
 0001:000002b0       ??4DataView@v8@@QEAAAEAV01@AEBV01@@Z 00000001800012b0 f i Canvas.obj
 0001:000002b0       ?Cast@Date@v8@@SAPEAV12@PEAVValue@2@@Z 00000001800012b0 f i Canvas.obj
 0001:000002b0       ??4Uint16Array@v8@@QEAAAEAV01@AEBV01@@Z 00000001800012b0 f i Canvas.obj
 0001:000002b0       ?Cast@Boolean@v8@@SAPEAV12@PEAVValue@2@@Z 00000001800012b0 f i Canvas.obj
 0001:000002b0       ??4ExternalResourceVisitor@v8@@QEAAAEAV01@AEBV01@@Z 00000001800012b0 f i Canvas.obj
 0001:000002b0       ?Cast@Uint16Array@v8@@SAPEAV12@PEAVValue@2@@Z 00000001800012b0 f i Canvas.obj
 0001:000002b0       ??4StackTrace@v8@@QEAAAEAV01@AEBV01@@Z 00000001800012b0 f i Canvas.obj
 0001:000002b0       ??4Int8Array@v8@@QEAAAEAV01@AEBV01@@Z 00000001800012b0 f i Canvas.obj
 0001:000002b0       ??4Object@v8@@QEAAAEAV01@$$QEAV01@@Z 00000001800012b0 f i Canvas.obj
 0001:000002b0       ??4SymbolObject@v8@@QEAAAEAV01@$$QEAV01@@Z 00000001800012b0 f i Canvas.obj
 0001:000002b0       ?Cast@Name@v8@@SAPEAV12@PEAVValue@2@@Z 00000001800012b0 f i Canvas.obj
 0001:000002b0       ??4Message@v8@@QEAAAEAV01@$$QEAV01@@Z 00000001800012b0 f i Canvas.obj
 0001:000002b0       ??4Primitive@v8@@QEAAAEAV01@AEBV01@@Z 00000001800012b0 f i Canvas.obj
 0001:000002b0       ??4Object@v8@@QEAAAEAV01@AEBV01@@Z 00000001800012b0 f i Canvas.obj
 0001:000002b0       ??4Int32@v8@@QEAAAEAV01@$$QEAV01@@Z 00000001800012b0 f i Canvas.obj
 0001:000002b0       ??4RegExp@v8@@QEAAAEAV01@$$QEAV01@@Z 00000001800012b0 f i Canvas.obj
 0001:000002b0       ??4Date@v8@@QEAAAEAV01@AEBV01@@Z 00000001800012b0 f i Canvas.obj
 0001:000002b0       ??4Number@v8@@QEAAAEAV01@$$QEAV01@@Z 00000001800012b0 f i Canvas.obj
 0001:000002b0       ??4BooleanObject@v8@@QEAAAEAV01@$$QEAV01@@Z 00000001800012b0 f i Canvas.obj
 0001:000002b0       ?Cast@Int32Array@v8@@SAPEAV12@PEAVValue@2@@Z 00000001800012b0 f i Canvas.obj
 0001:000002b0       ??4ArrayBuffer@v8@@QEAAAEAV01@AEBV01@@Z 00000001800012b0 f i Canvas.obj
 0001:000002b0       ??4StringObject@v8@@QEAAAEAV01@$$QEAV01@@Z 00000001800012b0 f i Canvas.obj
 0001:000002b0       ??4NumberObject@v8@@QEAAAEAV01@$$QEAV01@@Z 00000001800012b0 f i Canvas.obj
 0001:000002b0       ??4ArrayBufferView@v8@@QEAAAEAV01@AEBV01@@Z 00000001800012b0 f i Canvas.obj
 0001:000002b0       ??4Int8Array@v8@@QEAAAEAV01@$$QEAV01@@Z 00000001800012b0 f i Canvas.obj
 0001:000002b0       ??4Name@v8@@QEAAAEAV01@AEBV01@@Z 00000001800012b0 f i Canvas.obj
 0001:000002b0       ?Cast@Integer@v8@@SAPEAV12@PEAVValue@2@@Z 00000001800012b0 f i Canvas.obj
 0001:000002b0       ?Cast@BooleanObject@v8@@SAPEAV12@PEAVValue@2@@Z 00000001800012b0 f i Canvas.obj
 0001:000002b0       ?Cast@StringObject@v8@@SAPEAV12@PEAVValue@2@@Z 00000001800012b0 f i Canvas.obj
 0001:000002b0       ?Cast@ArrayBuffer@v8@@SAPEAV12@PEAVValue@2@@Z 00000001800012b0 f i Canvas.obj
 0001:000002b0       ??4RegExp@v8@@QEAAAEAV01@AEBV01@@Z 00000001800012b0 f i Canvas.obj
 0001:000002b0       ??4JSON@v8@@QEAAAEAV01@AEBV01@@Z 00000001800012b0 f i Canvas.obj
 0001:000002b0       ??4Uint32@v8@@QEAAAEAV01@$$QEAV01@@Z 00000001800012b0 f i Canvas.obj
 0001:000002b0       ??4Boolean@v8@@QEAAAEAV01@AEBV01@@Z 00000001800012b0 f i Canvas.obj
 0001:000002b0       ??4Float32Array@v8@@QEAAAEAV01@$$QEAV01@@Z 00000001800012b0 f i Canvas.obj
 0001:000002b0       ?Cast@TypedArray@v8@@SAPEAV12@PEAVValue@2@@Z 00000001800012b0 f i Canvas.obj
 0001:000002b0       ??4DataView@v8@@QEAAAEAV01@$$QEAV01@@Z 00000001800012b0 f i Canvas.obj
 0001:000002b0       ??4TypeSwitch@v8@@QEAAAEAV01@AEBV01@@Z 00000001800012b0 f i Canvas.obj
 0001:000002b0       ?Cast@Function@v8@@SAPEAV12@PEAVValue@2@@Z 00000001800012b0 f i Canvas.obj
 0001:000002b0       ??4V8@v8@@QEAAAEAV01@AEBV01@@Z 00000001800012b0 f i Canvas.obj
 0001:000002b0       ??4Integer@v8@@QEAAAEAV01@$$QEAV01@@Z 00000001800012b0 f i Canvas.obj
 0001:000002b0       ?Cast@Uint32Array@v8@@SAPEAV12@PEAVValue@2@@Z 00000001800012b0 f i Canvas.obj
 0001:000002b0       ??4Data@v8@@QEAAAEAV01@AEBV01@@Z 00000001800012b0 f i Canvas.obj
 0001:000002b0       ??4Promise@v8@@QEAAAEAV01@AEBV01@@Z 00000001800012b0 f i Canvas.obj
 0001:000002b0       ??4Map@v8@@QEAAAEAV01@$$QEAV01@@Z 00000001800012b0 f i Canvas.obj
 0001:000002b0       ??4Name@v8@@QEAAAEAV01@$$QEAV01@@Z 00000001800012b0 f i Canvas.obj
 0001:000002b0       ?Cast@Map@v8@@SAPEAV12@PEAVValue@2@@Z 00000001800012b0 f i Canvas.obj
 0001:000002b0       ??4ArrayBuffer@v8@@QEAAAEAV01@$$QEAV01@@Z 00000001800012b0 f i Canvas.obj
 0001:000002b0       ??4Array@v8@@QEAAAEAV01@AEBV01@@Z 00000001800012b0 f i Canvas.obj
 0001:000002b0       ??4Context@v8@@QEAAAEAV01@$$QEAV01@@Z 00000001800012b0 f i Canvas.obj
 0001:000002b0       ??4StackTrace@v8@@QEAAAEAV01@$$QEAV01@@Z 00000001800012b0 f i Canvas.obj
 0001:000002b0       ?Cast@Uint8ClampedArray@v8@@SAPEAV12@PEAVValue@2@@Z 00000001800012b0 f i Canvas.obj
 0001:000002b0       ?Cast@SymbolObject@v8@@SAPEAV12@PEAVValue@2@@Z 00000001800012b0 f i Canvas.obj
 0001:000002b0       ?Cast@RegExp@v8@@SAPEAV12@PEAVValue@2@@Z 00000001800012b0 f i Canvas.obj
 0001:000002b0       ??4StringObject@v8@@QEAAAEAV01@AEBV01@@Z 00000001800012b0 f i Canvas.obj
 0001:000002b0       ??4String@v8@@QEAAAEAV01@$$QEAV01@@Z 00000001800012b0 f i Canvas.obj
 0001:000002b0       ?Cast@Float64Array@v8@@SAPEAV12@PEAVValue@2@@Z 00000001800012b0 f i Canvas.obj
 0001:000002b0       ??4Array@v8@@QEAAAEAV01@$$QEAV01@@Z 00000001800012b0 f i Canvas.obj
 0001:000002b0       ??4FunctionTemplate@v8@@QEAAAEAV01@AEBV01@@Z 00000001800012b0 f i Canvas.obj
 0001:000002b0       ??4Allocator@ArrayBuffer@v8@@QEAAAEAV012@AEBV012@@Z 00000001800012b0 f i Canvas.obj
 0001:000002b0       ?Cast@Object@v8@@SAPEAV12@PEAVValue@2@@Z 00000001800012b0 f i Canvas.obj
 0001:000002b0       ??4Function@v8@@QEAAAEAV01@$$QEAV01@@Z 00000001800012b0 f i Canvas.obj
 0001:000002b0       ??4JSON@v8@@QEAAAEAV01@$$QEAV01@@Z 00000001800012b0 f i Canvas.obj
 0001:000002b0       ??4Template@v8@@QEAAAEAV01@AEBV01@@Z 00000001800012b0 f i Canvas.obj
 0001:000002b0       ??4Signature@v8@@QEAAAEAV01@$$QEAV01@@Z 00000001800012b0 f i Canvas.obj
 0001:000002b0       ??4Uint32Array@v8@@QEAAAEAV01@$$QEAV01@@Z 00000001800012b0 f i Canvas.obj
 0001:000002b0       ?Cast@NumberObject@v8@@SAPEAV12@PEAVValue@2@@Z 00000001800012b0 f i Canvas.obj
 0001:000002b0       ??4Value@v8@@QEAAAEAV01@AEBV01@@Z 00000001800012b0 f i Canvas.obj
 0001:000002b0       ??4Uint8Array@v8@@QEAAAEAV01@$$QEAV01@@Z 00000001800012b0 f i Canvas.obj
 0001:000002b0       ??4Boolean@v8@@QEAAAEAV01@$$QEAV01@@Z 00000001800012b0 f i Canvas.obj
 0001:000002b0       ??4AccessorSignature@v8@@QEAAAEAV01@$$QEAV01@@Z 00000001800012b0 f i Canvas.obj
 0001:000002b0       ??4NativeWeakMap@v8@@QEAAAEAV01@$$QEAV01@@Z 00000001800012b0 f i Canvas.obj
 0001:000002b0       ??4Signature@v8@@QEAAAEAV01@AEBV01@@Z 00000001800012b0 f i Canvas.obj
 0001:000002b0       ??4StackFrame@v8@@QEAAAEAV01@$$QEAV01@@Z 00000001800012b0 f i Canvas.obj
 0001:000002b0       ?Cast@Promise@v8@@SAPEAV12@PEAVValue@2@@Z 00000001800012b0 f i Canvas.obj
 0001:000002b0       ?Cast@Int32@v8@@SAPEAV12@PEAVValue@2@@Z 00000001800012b0 f i Canvas.obj
 0001:000002b0       ??4BooleanObject@v8@@QEAAAEAV01@AEBV01@@Z 00000001800012b0 f i Canvas.obj
 0001:000002b0       ?Cast@String@v8@@SAPEAV12@PEAVValue@2@@Z 00000001800012b0 f i Canvas.obj
 0001:000002b0       ?Cast@Symbol@v8@@SAPEAV12@PEAVValue@2@@Z 00000001800012b0 f i Canvas.obj
 0001:000002b0       ??4Context@v8@@QEAAAEAV01@AEBV01@@Z 00000001800012b0 f i Canvas.obj
 0001:000002b0       ??4Uint8ClampedArray@v8@@QEAAAEAV01@$$QEAV01@@Z 00000001800012b0 f i Canvas.obj
 0001:000002b0       ??4Exception@v8@@QEAAAEAV01@AEBV01@@Z 00000001800012b0 f i Canvas.obj
 0001:000002b0       ?Cast@Uint32@v8@@SAPEAV12@PEAVValue@2@@Z 00000001800012b0 f i Canvas.obj
 0001:000002b0       ??4SharedArrayBuffer@v8@@QEAAAEAV01@$$QEAV01@@Z 00000001800012b0 f i Canvas.obj
 0001:000002b0       ??4ObjectTemplate@v8@@QEAAAEAV01@AEBV01@@Z 00000001800012b0 f i Canvas.obj
 0001:000002b0       ??4Int32Array@v8@@QEAAAEAV01@$$QEAV01@@Z 00000001800012b0 f i Canvas.obj
 0001:000002b0       ?Cast@Array@v8@@SAPEAV12@PEAVValue@2@@Z 00000001800012b0 f i Canvas.obj
 0001:000002b0       ??4FunctionTemplate@v8@@QEAAAEAV01@$$QEAV01@@Z 00000001800012b0 f i Canvas.obj
 0001:000002b0       ??4Message@v8@@QEAAAEAV01@AEBV01@@Z 00000001800012b0 f i Canvas.obj
 0001:000002b0       ??4Int32@v8@@QEAAAEAV01@AEBV01@@Z 00000001800012b0 f i Canvas.obj
 0001:000002b0       ??4Resolver@Promise@v8@@QEAAAEAV012@AEBV012@@Z 00000001800012b0 f i Canvas.obj
 0001:000002b0       ??4AccessorSignature@v8@@QEAAAEAV01@AEBV01@@Z 00000001800012b0 f i Canvas.obj
 0001:000002c0       ??1EscapableHandleScope@v8@@QEAA@XZ 00000001800012c0 f i Canvas.obj
 0001:000002c0       ??1HandleScope@Nan@@QEAA@XZ 00000001800012c0 f i Canvas.obj
 0001:000002c0       ??1EscapableHandleScope@Nan@@QEAA@XZ 00000001800012c0 f i Canvas.obj
 0001:000002d0       ??0CachedData@ScriptCompiler@v8@@QEAA@XZ 00000001800012d0 f i Canvas.obj
 0001:000002f0       ??1ExternalSourceStream@ScriptCompiler@v8@@UEAA@XZ 00000001800012f0 f i Canvas.obj
 0001:00000300       ??0ExternalSourceStream@ScriptCompiler@v8@@QEAA@AEBV012@@Z 0000000180001300 f i Canvas.obj
 0001:00000300       ??0ExternalSourceStream@ScriptCompiler@v8@@QEAA@XZ 0000000180001300 f i Canvas.obj
 0001:00000310       ??_EExternalSourceStream@ScriptCompiler@v8@@UEAAPEAXI@Z 0000000180001310 f i Canvas.obj
 0001:000003a0       ??1ExternalStringResourceBase@String@v8@@UEAA@XZ 00000001800013a0 f i Canvas.obj
 0001:000003a0       ??1ExternalOneByteStringResourceImpl@v8@@UEAA@XZ 00000001800013a0 f i Canvas.obj
 0001:000003a0       ??1ExternalOneByteStringResource@String@v8@@UEAA@XZ 00000001800013a0 f i Canvas.obj
 0001:000003a0       ??1ExternalStringResource@String@v8@@UEAA@XZ 00000001800013a0 f i Canvas.obj
 0001:000003b0       ??0ExternalStringResourceBase@String@v8@@IEAA@XZ 00000001800013b0 f i Canvas.obj
 0001:000003c0       ?Dispose@ExternalStringResourceBase@String@v8@@MEAAXXZ 00000001800013c0 f i Canvas.obj
 0001:000003e0       ??0ExternalStringResource@String@v8@@IEAA@XZ 00000001800013e0 f i Canvas.obj
 0001:000003e0       ??0ExternalOneByteStringResource@String@v8@@IEAA@XZ 00000001800013e0 f i Canvas.obj
 0001:000003f0       ?length@Utf8Value@String@v8@@QEBAHXZ 00000001800013f0 f i Canvas.obj
 0001:000003f0       ?length@Value@String@v8@@QEBAHXZ 00000001800013f0 f i Canvas.obj
 0001:000003f0       ?max_executable_size@ResourceConstraints@v8@@QEBAHXZ 00000001800013f0 f i Canvas.obj
 0001:00000400       ??_EExternalOneByteStringResource@String@v8@@UEAAPEAXI@Z 0000000180001400 f i Canvas.obj
 0001:00000400       ??_EExternalStringResourceBase@String@v8@@UEAAPEAXI@Z 0000000180001400 f i Canvas.obj
 0001:00000400       ??_EExternalStringResource@String@v8@@UEAAPEAXI@Z 0000000180001400 f i Canvas.obj
 0001:00000490       ?InternalFieldCount@Object@v8@@SAHAEBV?$PersistentBase@VObject@v8@@@2@@Z 0000000180001490 f i Canvas.obj
 0001:000004a0       ?GetAlignedPointerFromInternalField@Object@v8@@SAPEAXAEBV?$PersistentBase@VObject@v8@@@2@H@Z 00000001800014a0 f i Canvas.obj
 0001:000004d0       ?NewInstance@Function@v8@@QEBA?AV?$MaybeLocal@VObject@v8@@@2@V?$Local@VContext@v8@@@2@@Z 00000001800014d0 f i Canvas.obj
 0001:00000500       ??1Allocator@ArrayBuffer@v8@@UEAA@XZ 0000000180001500 f i Canvas.obj
 0001:00000510       ??0Contents@ArrayBuffer@v8@@QEAA@XZ 0000000180001510 f i Canvas.obj
 0001:00000510       ??0Contents@SharedArrayBuffer@v8@@QEAA@XZ 0000000180001510 f i Canvas.obj
 0001:00000520       ?ByteLength@Contents@SharedArrayBuffer@v8@@QEBA_KXZ 0000000180001520 f i Canvas.obj
 0001:00000520       ?name@Extension@v8@@QEBAPEBDXZ 0000000180001520 f i Canvas.obj
 0001:00000520       ?begin@ExtensionConfiguration@v8@@QEBAPEAPEBDXZ 0000000180001520 f i Canvas.obj
 0001:00000520       ?ByteLength@Contents@ArrayBuffer@v8@@QEBA_KXZ 0000000180001520 f i Canvas.obj
 0001:00000520       ?total_heap_size_executable@HeapStatistics@v8@@QEAA_KXZ 0000000180001520 f i Canvas.obj
 0001:00000520       ?space_size@HeapSpaceStatistics@v8@@QEAA_KXZ 0000000180001520 f i Canvas.obj
 0001:00000520       ?data@ExternalOneByteStringResourceImpl@v8@@UEBAPEBDXZ 0000000180001520 f i Canvas.obj
 0001:00000520       ?object_sub_type@HeapObjectStatistics@v8@@QEAAPEBDXZ 0000000180001520 f i Canvas.obj
 0001:00000530       ??0Allocator@ArrayBuffer@v8@@QEAA@AEBV012@@Z 0000000180001530 f i Canvas.obj
 0001:00000530       ??0Allocator@ArrayBuffer@v8@@QEAA@XZ 0000000180001530 f i Canvas.obj
 0001:00000540       ??_EAllocator@ArrayBuffer@v8@@UEAAPEAXI@Z 0000000180001540 f i Canvas.obj
 0001:000005d0       ??4StartupData@v8@@QEAAAEAV01@AEBV01@@Z 00000001800015d0 f i Canvas.obj
 0001:000005d0       ??4Contents@ArrayBuffer@v8@@QEAAAEAV012@AEBV012@@Z 00000001800015d0 f i Canvas.obj
 0001:000005d0       ??4Contents@SharedArrayBuffer@v8@@QEAAAEAV012@AEBV012@@Z 00000001800015d0 f i Canvas.obj
 0001:000005e0       ??4Contents@SharedArrayBuffer@v8@@QEAAAEAV012@$$QEAV012@@Z 00000001800015e0 f i Canvas.obj
 0001:000005e0       ??4Contents@ArrayBuffer@v8@@QEAAAEAV012@$$QEAV012@@Z 00000001800015e0 f i Canvas.obj
 0001:00000600       ?SetIndexedPropertyHandler@ObjectTemplate@v8@@QEAAXP6AXIAEBV?$PropertyCallbackInfo@VValue@v8@@@2@@ZP6AXIV?$Local@VValue@v8@@@2@0@ZP6AXIAEBV?$PropertyCallbackInfo@VInteger@v8@@@2@@ZP6AXIAEBV?$PropertyCallbackInfo@VBoolean@v8@@@2@@ZP6AXAEBV?$PropertyCallbackInfo@VArray@v8@@@2@@Z2@Z 0000000180001600 f i Canvas.obj
 0001:00000650       ??0ExternalOneByteStringResourceImpl@v8@@QEAA@XZ 0000000180001650 f i Canvas.obj
 0001:00000670       ??0ExternalOneByteStringResourceImpl@v8@@QEAA@PEBD_K@Z 0000000180001670 f i Canvas.obj
 0001:00000690       ?object_count@HeapObjectStatistics@v8@@QEAA_KXZ 0000000180001690 f i Canvas.obj
 0001:00000690       ?total_physical_size@HeapStatistics@v8@@QEAA_KXZ 0000000180001690 f i Canvas.obj
 0001:00000690       ?space_used_size@HeapSpaceStatistics@v8@@QEAA_KXZ 0000000180001690 f i Canvas.obj
 0001:00000690       ?stack_limit@ResourceConstraints@v8@@QEBAPEAIXZ 0000000180001690 f i Canvas.obj
 0001:00000690       ?length@ExternalOneByteStringResourceImpl@v8@@UEBA_KXZ 0000000180001690 f i Canvas.obj
 0001:00000690       ?source_length@Extension@v8@@QEBA_KXZ 0000000180001690 f i Canvas.obj
 0001:000006a0       ??_EExternalOneByteStringResourceImpl@v8@@UEAAPEAXI@Z 00000001800016a0 f i Canvas.obj
 0001:00000730       ??1Extension@v8@@UEAA@XZ   0000000180001730 f i Canvas.obj
 0001:00000750       ?GetNativeFunctionTemplate@Extension@v8@@UEAA?AV?$Local@VFunctionTemplate@v8@@@2@PEAVIsolate@2@V?$Local@VString@v8@@@2@@Z 0000000180001750 f i Canvas.obj
 0001:00000760       ?source@Extension@v8@@QEBAPEBVExternalOneByteStringResource@String@2@XZ 0000000180001760 f i Canvas.obj
 0001:00000770       ?dependency_count@Extension@v8@@QEAAHXZ 0000000180001770 f i Canvas.obj
 0001:00000780       ?dependencies@Extension@v8@@QEAAPEAPEBDXZ 0000000180001780 f i Canvas.obj
 0001:00000790       ?set_auto_enable@Extension@v8@@QEAAX_N@Z 0000000180001790 f i Canvas.obj
 0001:000007a0       ?auto_enable@Extension@v8@@QEAA_NXZ 00000001800017a0 f i Canvas.obj
 0001:000007b0       ??_EExtension@v8@@UEAAPEAXI@Z 00000001800017b0 f i Canvas.obj
 0001:00000850       ?max_semi_space_size@ResourceConstraints@v8@@QEBAHXZ 0000000180001850 f i Canvas.obj
 0001:00000860       ?set_max_semi_space_size@ResourceConstraints@v8@@QEAAXH@Z 0000000180001860 f i Canvas.obj
 0001:00000870       ?max_old_space_size@ResourceConstraints@v8@@QEBAHXZ 0000000180001870 f i Canvas.obj
 0001:00000880       ?set_max_old_space_size@ResourceConstraints@v8@@QEAAXH@Z 0000000180001880 f i Canvas.obj
 0001:00000890       ?set_max_executable_size@ResourceConstraints@v8@@QEAAXH@Z 0000000180001890 f i Canvas.obj
 0001:000008a0       ?set_stack_limit@ResourceConstraints@v8@@QEAAXPEAI@Z 00000001800018a0 f i Canvas.obj
 0001:000008b0       ?total_available_size@HeapStatistics@v8@@QEAA_KXZ 00000001800018b0 f i Canvas.obj
 0001:000008b0       ?code_range_size@ResourceConstraints@v8@@QEBA_KXZ 00000001800018b0 f i Canvas.obj
 0001:000008b0       ?object_size@HeapObjectStatistics@v8@@QEAA_KXZ 00000001800018b0 f i Canvas.obj
 0001:000008b0       ?space_available_size@HeapSpaceStatistics@v8@@QEAA_KXZ 00000001800018b0 f i Canvas.obj
 0001:000008c0       ?set_code_range_size@ResourceConstraints@v8@@QEAAX_K@Z 00000001800018c0 f i Canvas.obj
 0001:000008d0       ??4HeapObjectStatistics@v8@@QEAAAEAV01@AEBV01@@Z 00000001800018d0 f i Canvas.obj
 0001:000008d0       ??4ResourceConstraints@v8@@QEAAAEAV01@AEBV01@@Z 00000001800018d0 f i Canvas.obj
 0001:000008f0       ??4ResourceConstraints@v8@@QEAAAEAV01@$$QEAV01@@Z 00000001800018f0 f i Canvas.obj
 0001:00000920       ?used_heap_size@HeapStatistics@v8@@QEAA_KXZ 0000000180001920 f i Canvas.obj
 0001:00000920       ?physical_space_size@HeapSpaceStatistics@v8@@QEAA_KXZ 0000000180001920 f i Canvas.obj
 0001:00000930       ?heap_size_limit@HeapStatistics@v8@@QEAA_KXZ 0000000180001930 f i Canvas.obj
 0001:00000940       ??4HeapStatistics@v8@@QEAAAEAV01@AEBV01@@Z 0000000180001940 f i Canvas.obj
 0001:00000960       ??4HeapStatistics@v8@@QEAAAEAV01@$$QEAV01@@Z 0000000180001960 f i Canvas.obj
 0001:000009a0       ??4HeapSpaceStatistics@v8@@QEAAAEAV01@AEBV01@@Z 00000001800019a0 f i Canvas.obj
 0001:000009c0       ??4HeapSpaceStatistics@v8@@QEAAAEAV01@$$QEAV01@@Z 00000001800019c0 f i Canvas.obj
 0001:000009f0       ??4HeapObjectStatistics@v8@@QEAAAEAV01@$$QEAV01@@Z 00000001800019f0 f i Canvas.obj
 0001:00000a20       ??1PersistentHandleVisitor@v8@@UEAA@XZ 0000000180001a20 f i Canvas.obj
 0001:00000a20       ??1ExternalResourceVisitor@v8@@UEAA@XZ 0000000180001a20 f i Canvas.obj
 0001:00000a30       ?VisitPersistentHandle@PersistentHandleVisitor@v8@@UEAAXPEAV?$Persistent@VValue@v8@@V?$NonCopyablePersistentTraits@VValue@v8@@@2@@2@G@Z 0000000180001a30 f i Canvas.obj
 0001:00000a30       __except_validate_context_record 0000000180001a30 f i libvcruntime:jbcxrval.obj
 0001:00000a30       _guard_check_icall_nop     0000000180001a30 f i LIBCMT:guard_support.obj
 0001:00000a30       ?VisitExternalString@ExternalResourceVisitor@v8@@UEAAXV?$Local@VString@v8@@@2@@Z 0000000180001a30 f i Canvas.obj
 0001:00000a30       __except_validate_jump_buffer 0000000180001a30 f i libvcruntime:jbcxrval.obj
 0001:00000a40       ??0ExternalResourceVisitor@v8@@QEAA@AEBV01@@Z 0000000180001a40 f i Canvas.obj
 0001:00000a40       ??0PersistentHandleVisitor@v8@@QEAA@XZ 0000000180001a40 f i Canvas.obj
 0001:00000a40       ??0PersistentHandleVisitor@v8@@QEAA@AEBV01@@Z 0000000180001a40 f i Canvas.obj
 0001:00000a40       ??0ExternalResourceVisitor@v8@@QEAA@XZ 0000000180001a40 f i Canvas.obj
 0001:00000a50       ??_EExternalResourceVisitor@v8@@UEAAPEAXI@Z 0000000180001a50 f i Canvas.obj
 0001:00000a50       ??_EPersistentHandleVisitor@v8@@UEAAPEAXI@Z 0000000180001a50 f i Canvas.obj
 0001:00000ae0       ??0Scope@Isolate@v8@@QEAA@PEAV12@@Z 0000000180001ae0 f i Canvas.obj
 0001:00000b00       ??1Scope@Isolate@v8@@QEAA@XZ 0000000180001b00 f i Canvas.obj
 0001:00000b20       ??4StartupData@v8@@QEAAAEAV01@$$QEAV01@@Z 0000000180001b20 f i Canvas.obj
 0001:00000b30       ?JSStackComparableAddress@TryCatch@v8@@SAPEAXPEAV12@@Z 0000000180001b30 f i Canvas.obj
 0001:00000b40       ??0ExtensionConfiguration@v8@@QEAA@XZ 0000000180001b40 f i Canvas.obj
 0001:00000b50       ??0ExtensionConfiguration@v8@@QEAA@HQEAPEBD@Z 0000000180001b50 f i Canvas.obj
 0001:00000b60       ?end@ExtensionConfiguration@v8@@QEBAPEAPEBDXZ 0000000180001b60 f i Canvas.obj
 0001:00000b70       ??0Unlocker@v8@@QEAA@PEAVIsolate@1@@Z 0000000180001b70 f i Canvas.obj
 0001:00000b90       ??4Unlocker@v8@@QEAAAEAV01@AEBV01@@Z 0000000180001b90 f i Canvas.obj
 0001:00000ba0       ??0Locker@v8@@QEAA@PEAVIsolate@1@@Z 0000000180001ba0 f i Canvas.obj
 0001:00000bc0       ?New@Boolean@v8@@SA?AV?$Local@VBoolean@v8@@@2@PEAVIsolate@2@_N@Z 0000000180001bc0 f i Canvas.obj
 0001:00000be0       ?Set@Template@v8@@QEAAXPEAVIsolate@2@PEBDV?$Local@VData@v8@@@2@@Z 0000000180001be0 f i Canvas.obj
 0001:00000c40       ?GetInternalField@Object@v8@@QEAA?AV?$Local@VValue@v8@@@2@H@Z 0000000180001c40 f i Canvas.obj
 0001:00000c90       ?GetAlignedPointerFromInternalField@Object@v8@@QEAAPEAXH@Z 0000000180001c90 f i Canvas.obj
 0001:00000cb0       ?Empty@String@v8@@SA?AV?$Local@VString@v8@@@2@PEAVIsolate@2@@Z 0000000180001cb0 f i Canvas.obj
 0001:00000cc0       ?GetExternalStringResource@String@v8@@QEBAPEAVExternalStringResource@12@XZ 0000000180001cc0 f i Canvas.obj
 0001:00000ce0       ?GetExternalStringResourceBase@String@v8@@QEBAPEAVExternalStringResourceBase@12@PEAW4Encoding@12@@Z 0000000180001ce0 f i Canvas.obj
 0001:00000d10       ?IsUndefined@Value@v8@@QEBA_NXZ 0000000180001d10 f i Canvas.obj
 0001:00000d40       ?QuickIsUndefined@Value@v8@@AEBA_NXZ 0000000180001d40 f i Canvas.obj
 0001:00000d70       ?IsNull@Value@v8@@QEBA_NXZ 0000000180001d70 f i Canvas.obj
 0001:00000da0       ?QuickIsNull@Value@v8@@AEBA_NXZ 0000000180001da0 f i Canvas.obj
 0001:00000dd0       ?IsString@Value@v8@@QEBA_NXZ 0000000180001dd0 f i Canvas.obj
 0001:00000e00       ?QuickIsString@Value@v8@@AEBA_NXZ 0000000180001e00 f i Canvas.obj
 0001:00000e30       ?ToBoolean@Value@v8@@QEBA?AV?$Local@VBoolean@v8@@@2@XZ 0000000180001e30 f i Canvas.obj
 0001:00000e80       ?ToNumber@Value@v8@@QEBA?AV?$Local@VNumber@v8@@@2@XZ 0000000180001e80 f i Canvas.obj
 0001:00000ed0       ?ToString@Value@v8@@QEBA?AV?$Local@VString@v8@@@2@XZ 0000000180001ed0 f i Canvas.obj
 0001:00000f20       ?ToDetailString@Value@v8@@QEBA?AV?$Local@VString@v8@@@2@XZ 0000000180001f20 f i Canvas.obj
 0001:00000f70       ?ToObject@Value@v8@@QEBA?AV?$Local@VObject@v8@@@2@XZ 0000000180001f70 f i Canvas.obj
 0001:00000fc0       ?ToInteger@Value@v8@@QEBA?AV?$Local@VInteger@v8@@@2@XZ 0000000180001fc0 f i Canvas.obj
 0001:00001010       ?ToUint32@Value@v8@@QEBA?AV?$Local@VUint32@v8@@@2@XZ 0000000180002010 f i Canvas.obj
 0001:00001060       ?ToInt32@Value@v8@@QEBA?AV?$Local@VInt32@v8@@@2@XZ 0000000180002060 f i Canvas.obj
 0001:000010b0       ?SetData@Isolate@v8@@QEAAXIPEAX@Z 00000001800020b0 f i Canvas.obj
 0001:000010c0       ?GetData@Isolate@v8@@QEAAPEAXI@Z 00000001800020c0 f i Canvas.obj
 0001:000010d0       ?GetNumberOfDataSlots@Isolate@v8@@SAIXZ 00000001800020d0 f i Canvas.obj
 0001:000010e0       ?AdjustAmountOfExternalAllocatedMemory@Isolate@v8@@QEAA_J_J@Z 00000001800020e0 f i Canvas.obj
 0001:00001140       ?GetEmbedderData@Context@v8@@QEAA?AV?$Local@VValue@v8@@@2@H@Z 0000000180002140 f i Canvas.obj
 0001:00001170       ?GetAlignedPointerFromEmbedderData@Context@v8@@QEAAPEAXH@Z 0000000180002170 f i Canvas.obj
 0001:00001190       ?SetAllowCodeGenerationFromStringsCallback@V8@v8@@SAXP6A_NV?$Local@VContext@v8@@@2@@Z@Z 0000000180002190 f i Canvas.obj
 0001:000011c0       ?IsDead@V8@v8@@SA_NXZ      00000001800021c0 f i Canvas.obj
 0001:000011e0       ?AddMessageListener@V8@v8@@SA_NP6AXV?$Local@VMessage@v8@@@2@V?$Local@VValue@v8@@@2@@Z1@Z 00000001800021e0 f i Canvas.obj
 0001:00001210       ?RemoveMessageListeners@V8@v8@@SAXP6AXV?$Local@VMessage@v8@@@2@V?$Local@VValue@v8@@@2@@Z@Z 0000000180002210 f i Canvas.obj
 0001:00001240       ?SetFailedAccessCheckCallbackFunction@V8@v8@@SAXP6AXV?$Local@VObject@v8@@@2@W4AccessType@2@V?$Local@VValue@v8@@@2@@Z@Z 0000000180002240 f i Canvas.obj
 0001:00001270       ?SetCaptureStackTraceForUncaughtExceptions@V8@v8@@SAX_NHW4StackTraceOptions@StackTrace@2@@Z 0000000180002270 f i Canvas.obj
 0001:000012b0       ?SetFatalErrorHandler@V8@v8@@SAXP6AXPEBD0@Z@Z 00000001800022b0 f i Canvas.obj
 0001:000012e0       ?RemoveGCPrologueCallback@V8@v8@@SAXP6AXW4GCType@2@W4GCCallbackFlags@2@@Z@Z 00000001800022e0 f i Canvas.obj
 0001:00001310       ?RemoveGCEpilogueCallback@V8@v8@@SAXP6AXW4GCType@2@W4GCCallbackFlags@2@@Z@Z 0000000180002310 f i Canvas.obj
 0001:00001340       ?AddMemoryAllocationCallback@V8@v8@@SAXP6AXW4ObjectSpace@2@W4AllocationAction@2@H@Z01@Z 0000000180002340 f i Canvas.obj
 0001:00001380       ?RemoveMemoryAllocationCallback@V8@v8@@SAXP6AXW4ObjectSpace@2@W4AllocationAction@2@H@Z@Z 0000000180002380 f i Canvas.obj
 0001:000013b0       ?TerminateExecution@V8@v8@@SAXPEAVIsolate@2@@Z 00000001800023b0 f i Canvas.obj
 0001:000013c0       ?IsExecutionTerminating@V8@v8@@SA_NPEAVIsolate@2@@Z 00000001800023c0 f i Canvas.obj
 0001:000013e0       ?CancelTerminateExecution@V8@v8@@SAXPEAVIsolate@2@@Z 00000001800023e0 f i Canvas.obj
 0001:000013f0       ?VisitExternalResources@V8@v8@@SAXPEAVExternalResourceVisitor@2@@Z 00000001800023f0 f i Canvas.obj
 0001:00001420       ?VisitHandlesWithClassIds@V8@v8@@SAXPEAVPersistentHandleVisitor@2@@Z 0000000180002420 f i Canvas.obj
 0001:00001450       ?VisitHandlesWithClassIds@V8@v8@@SAXPEAVIsolate@2@PEAVPersistentHandleVisitor@2@@Z 0000000180002450 f i Canvas.obj
 0001:00001460       ?VisitHandlesForPartialDependence@V8@v8@@SAXPEAVIsolate@2@PEAVPersistentHandleVisitor@2@@Z 0000000180002460 f i Canvas.obj
 0001:00001690       ?New@?$Factory@VFunctionTemplate@v8@@@imp@Nan@@SA?AV?$Local@VFunctionTemplate@v8@@@v8@@P6AXAEBV?$FunctionCallbackInfo@VValue@v8@@@3@@ZV?$Local@VValue@v8@@@5@V?$Local@VSignature@v8@@@5@@Z 0000000180002690 f i Canvas.obj
 0001:00001820       ??0Callback@Nan@@QEAA@AEBV?$Local@VFunction@v8@@@v8@@@Z 0000000180002820 f i Canvas.obj
 0001:00001940       ?Call_@Callback@Nan@@AEBA?AV?$Local@VValue@v8@@@v8@@PEAVIsolate@4@V?$Local@VObject@v8@@@4@HQEAV34@@Z 0000000180002940 f i Canvas.obj
 0001:00001a10       ??1?$Persistent@VObject@v8@@V?$NonCopyablePersistentTraits@VObject@v8@@@2@@Nan@@QEAA@XZ 0000000180002a10 f i Canvas.obj
 0001:00001a30       ??_GCallback@Nan@@QEAAPEAXI@Z 0000000180002a30 f i Canvas.obj
 0001:00001a70       ?SetAccessor@Nan@@YAXV?$Local@VObjectTemplate@v8@@@v8@@V?$Local@VString@v8@@@3@P6AX1AEBV?$PropertyCallbackInfo@VValue@v8@@@1@@ZP6AX1V?$Local@VValue@v8@@@3@AEBV?$PropertyCallbackInfo@X@1@@Z4W4AccessControl@3@W4PropertyAttribute@3@V?$Local@VAccessorSignature@v8@@@3@@Z 0000000180002a70 f i Canvas.obj
 0001:00001c10       ??1ObjectWrap@Nan@@UEAA@XZ 0000000180002c10 f i Canvas.obj
 0001:00001c90       ?Wrap@ObjectWrap@Nan@@IEAAXV?$Local@VObject@v8@@@v8@@@Z 0000000180002c90 f i Canvas.obj
 0001:00001d70       ?Ref@ObjectWrap@Nan@@MEAAXXZ 0000000180002d70 f i Canvas.obj
 0001:00001db0       ?Unref@ObjectWrap@Nan@@MEAAXXZ 0000000180002db0 f i Canvas.obj
 0001:00001e60       ?WeakCallback@ObjectWrap@Nan@@CAXAEBV?$WeakCallbackInfo@VObjectWrap@Nan@@@v8@@@Z 0000000180002e60 f i Canvas.obj
 0001:00001ef0       ??_GObjectWrap@Nan@@UEAAPEAXI@Z 0000000180002ef0 f i Canvas.obj
 0001:00001ef0       ??_EObjectWrap@Nan@@UEAAPEAXI@Z 0000000180002ef0 f i * CIL library *:* CIL module *
 0001:00001f30       ?closure_init@@YA?AW4_cairo_status@@PEAUclosure_t@@PEAVCanvas@@II@Z 0000000180002f30 f   Canvas.obj
 0001:00001fa0       ?closure_destroy@@YAXPEAUclosure_t@@@Z 0000000180002fa0 f   Canvas.obj
 0001:000024b0       ?Initialize@Canvas@@SAXV?$Local@VObject@v8@@@v8@@@Z 00000001800034b0 f   Canvas.obj
 0001:00002d70       ?New@Canvas@@SAXAEBV?$FunctionCallbackInfo@VValue@v8@@@Nan@@@Z 0000000180003d70 f   Canvas.obj
 0001:00002fd0       ?GetType@Canvas@@SAXV?$Local@VString@v8@@@v8@@AEBV?$PropertyCallbackInfo@VValue@v8@@@Nan@@@Z 0000000180003fd0 f   Canvas.obj
 0001:000030e0       ?GetWidth@ImageData@@SAXV?$Local@VString@v8@@@v8@@AEBV?$PropertyCallbackInfo@VValue@v8@@@Nan@@@Z 00000001800040e0 f   ImageData.obj
 0001:000030e0       ?GetWidth@Canvas@@SAXV?$Local@VString@v8@@@v8@@AEBV?$PropertyCallbackInfo@VValue@v8@@@Nan@@@Z 00000001800040e0 f   Canvas.obj
 0001:000031c0       ?SetWidth@Canvas@@SAXV?$Local@VString@v8@@@v8@@V?$Local@VValue@v8@@@3@AEBV?$PropertyCallbackInfo@X@Nan@@@Z 00000001800041c0 f   Canvas.obj
 0001:00003220       ?GetHeight@ImageData@@SAXV?$Local@VString@v8@@@v8@@AEBV?$PropertyCallbackInfo@VValue@v8@@@Nan@@@Z 0000000180004220 f   ImageData.obj
 0001:00003220       ?GetHeight@Canvas@@SAXV?$Local@VString@v8@@@v8@@AEBV?$PropertyCallbackInfo@VValue@v8@@@Nan@@@Z 0000000180004220 f   Canvas.obj
 0001:00003300       ?SetHeight@Canvas@@SAXV?$Local@VString@v8@@@v8@@V?$Local@VValue@v8@@@3@AEBV?$PropertyCallbackInfo@X@Nan@@@Z 0000000180004300 f   Canvas.obj
 0001:000033e0       ?ToBufferAsync@Canvas@@SAXPEAUuv_work_s@@@Z 00000001800043e0 f   Canvas.obj
 0001:00003450       ?ToBufferAsyncAfter@Canvas@@SAXPEAUuv_work_s@@@Z 0000000180004450 f   Canvas.obj
 0001:000036d0       ?ToBuffer@Canvas@@SAXAEBV?$FunctionCallbackInfo@VValue@v8@@@Nan@@@Z 00000001800046d0 f   Canvas.obj
 0001:000040e0       ?StreamPNGSync@Canvas@@SAXAEBV?$FunctionCallbackInfo@VValue@v8@@@Nan@@@Z 00000001800050e0 f   Canvas.obj
 0001:00004800       ??0Canvas@@QEAA@HHW4canvas_type_t@@@Z 0000000180005800 f   Canvas.obj
 0001:00004a20       ??_ECanvas@@EEAAPEAXI@Z    0000000180005a20 f i * CIL library *:* CIL module *
 0001:00004a20       ??_GCanvas@@EEAAPEAXI@Z    0000000180005a20 f i Canvas.obj
 0001:00004a60       ??1Canvas@@EEAA@XZ         0000000180005a60 f   Canvas.obj
 0001:00004b40       ?resurface@Canvas@@QEAAXV?$Local@VObject@v8@@@v8@@@Z 0000000180005b40 f   Canvas.obj
 0001:00004e30       ??$Unwrap@VImageData@@@ObjectWrap@Nan@@SAPEAVImageData@@V?$Local@VObject@v8@@@v8@@@Z 0000000180005e30 f i CanvasRenderingContext2d.obj
 0001:00004e30       ??$Unwrap@VGradient@@@ObjectWrap@Nan@@SAPEAVGradient@@V?$Local@VObject@v8@@@v8@@@Z 0000000180005e30 f i CanvasGradient.obj
 0001:00004e30       ??$Unwrap@VContext2d@@@ObjectWrap@Nan@@SAPEAVContext2d@@V?$Local@VObject@v8@@@v8@@@Z 0000000180005e30 f i Canvas.obj
 0001:00004e30       ??$Unwrap@VImage@@@ObjectWrap@Nan@@SAPEAVImage@@V?$Local@VObject@v8@@@v8@@@Z 0000000180005e30 f i CanvasPattern.obj
 0001:00004e30       ??$Unwrap@VCanvas@@@ObjectWrap@Nan@@SAPEAVCanvas@@V?$Local@VObject@v8@@@v8@@@Z 0000000180005e30 f i Canvas.obj
 0001:00004e30       ??$Unwrap@VPattern@@@ObjectWrap@Nan@@SAPEAVPattern@@V?$Local@VObject@v8@@@v8@@@Z 0000000180005e30 f i CanvasRenderingContext2d.obj
 0001:00004eb0       ?Initialize@Gradient@@SAXV?$Local@VObject@v8@@@v8@@@Z 0000000180005eb0 f   CanvasGradient.obj
 0001:00005120       ?New@Gradient@@SAXAEBV?$FunctionCallbackInfo@VValue@v8@@@Nan@@@Z 0000000180006120 f   CanvasGradient.obj
 0001:00005490       ?AddColorStop@Gradient@@SAXAEBV?$FunctionCallbackInfo@VValue@v8@@@Nan@@@Z 0000000180006490 f   CanvasGradient.obj
 0001:000057d0       ??_EGradient@@EEAAPEAXI@Z  00000001800067d0 f i * CIL library *:* CIL module *
 0001:000057d0       ??_GGradient@@EEAAPEAXI@Z  00000001800067d0 f i CanvasGradient.obj
 0001:00005820       ?Initialize@Pattern@@SAXV?$Local@VObject@v8@@@v8@@@Z 0000000180006820 f   CanvasPattern.obj
 0001:000059f0       ?New@Pattern@@SAXAEBV?$FunctionCallbackInfo@VValue@v8@@@Nan@@@Z 00000001800069f0 f   CanvasPattern.obj
 0001:00005c90       ??_EPattern@@EEAAPEAXI@Z   0000000180006c90 f i * CIL library *:* CIL module *
 0001:00005c90       ??_GPattern@@EEAAPEAXI@Z   0000000180006c90 f i CanvasPattern.obj
 0001:00005ce0       ?Initialize@Context2d@@SAXV?$Local@VObject@v8@@@v8@@@Z 0000000180006ce0 f   CanvasRenderingContext2d.obj
 0001:00008890       ??0Context2d@@QEAA@PEAVCanvas@@@Z 0000000180009890 f   CanvasRenderingContext2d.obj
 0001:000089d0       ??_EContext2d@@EEAAPEAXI@Z 00000001800099d0 f i * CIL library *:* CIL module *
 0001:000089d0       ??_GContext2d@@EEAAPEAXI@Z 00000001800099d0 f i CanvasRenderingContext2d.obj
 0001:00008a50       ?saveState@Context2d@@QEAAXXZ 0000000180009a50 f   CanvasRenderingContext2d.obj
 0001:00008b20       ?savePath@Context2d@@QEAAXXZ 0000000180009b20 f   CanvasRenderingContext2d.obj
 0001:00008b50       ?restorePath@Context2d@@QEAAXXZ 0000000180009b50 f   CanvasRenderingContext2d.obj
 0001:00008b90       ?fill@Context2d@@QEAAX_N@Z 0000000180009b90 f   CanvasRenderingContext2d.obj
 0001:00008d20       ?stroke@Context2d@@QEAAX_N@Z 0000000180009d20 f   CanvasRenderingContext2d.obj
 0001:00008eb0       ?shadow@Context2d@@QEAAXP6AXPEAU_cairo@@@Z@Z 0000000180009eb0 f   CanvasRenderingContext2d.obj
 0001:00009270       ?blur@Context2d@@QEAAXPEAU_cairo_surface@@H@Z 000000018000a270 f   CanvasRenderingContext2d.obj
 0001:000098c0       ?New@Context2d@@SAXAEBV?$FunctionCallbackInfo@VValue@v8@@@Nan@@@Z 000000018000a8c0 f   CanvasRenderingContext2d.obj
 0001:00009a40       ?AddPage@Context2d@@SAXAEBV?$FunctionCallbackInfo@VValue@v8@@@Nan@@@Z 000000018000aa40 f   CanvasRenderingContext2d.obj
 0001:00009b70       ?PutImageData@Context2d@@SAXAEBV?$FunctionCallbackInfo@VValue@v8@@@Nan@@@Z 000000018000ab70 f   CanvasRenderingContext2d.obj
 0001:0000a360       ?GetImageData@Context2d@@SAXAEBV?$FunctionCallbackInfo@VValue@v8@@@Nan@@@Z 000000018000b360 f   CanvasRenderingContext2d.obj
 0001:0000abd0       ?DrawImage@Context2d@@SAXAEBV?$FunctionCallbackInfo@VValue@v8@@@Nan@@@Z 000000018000bbd0 f   CanvasRenderingContext2d.obj
 0001:0000b540       ?GetGlobalAlpha@Context2d@@SAXV?$Local@VString@v8@@@v8@@AEBV?$PropertyCallbackInfo@VValue@v8@@@Nan@@@Z 000000018000c540 f   CanvasRenderingContext2d.obj
 0001:0000b620       ?SetGlobalAlpha@Context2d@@SAXV?$Local@VString@v8@@@v8@@V?$Local@VValue@v8@@@3@AEBV?$PropertyCallbackInfo@X@Nan@@@Z 000000018000c620 f   CanvasRenderingContext2d.obj
 0001:0000b680       ?GetGlobalCompositeOperation@Context2d@@SAXV?$Local@VString@v8@@@v8@@AEBV?$PropertyCallbackInfo@VValue@v8@@@Nan@@@Z 000000018000c680 f   CanvasRenderingContext2d.obj
 0001:0000b930       ?SetPatternQuality@Context2d@@SAXV?$Local@VString@v8@@@v8@@V?$Local@VValue@v8@@@3@AEBV?$PropertyCallbackInfo@X@Nan@@@Z 000000018000c930 f   CanvasRenderingContext2d.obj
 0001:0000baf0       ?GetPatternQuality@Context2d@@SAXV?$Local@VString@v8@@@v8@@AEBV?$PropertyCallbackInfo@VValue@v8@@@Nan@@@Z 000000018000caf0 f   CanvasRenderingContext2d.obj
 0001:0000bc20       ?SetGlobalCompositeOperation@Context2d@@SAXV?$Local@VString@v8@@@v8@@V?$Local@VValue@v8@@@3@AEBV?$PropertyCallbackInfo@X@Nan@@@Z 000000018000cc20 f   CanvasRenderingContext2d.obj
 0001:0000c0c0       ?GetShadowOffsetX@Context2d@@SAXV?$Local@VString@v8@@@v8@@AEBV?$PropertyCallbackInfo@VValue@v8@@@Nan@@@Z 000000018000d0c0 f   CanvasRenderingContext2d.obj
 0001:0000c1a0       ?SetShadowOffsetX@Context2d@@SAXV?$Local@VString@v8@@@v8@@V?$Local@VValue@v8@@@3@AEBV?$PropertyCallbackInfo@X@Nan@@@Z 000000018000d1a0 f   CanvasRenderingContext2d.obj
 0001:0000c240       ?GetShadowOffsetY@Context2d@@SAXV?$Local@VString@v8@@@v8@@AEBV?$PropertyCallbackInfo@VValue@v8@@@Nan@@@Z 000000018000d240 f   CanvasRenderingContext2d.obj
 0001:0000c320       ?SetShadowOffsetY@Context2d@@SAXV?$Local@VString@v8@@@v8@@V?$Local@VValue@v8@@@3@AEBV?$PropertyCallbackInfo@X@Nan@@@Z 000000018000d320 f   CanvasRenderingContext2d.obj
 0001:0000c3c0       ?GetShadowBlur@Context2d@@SAXV?$Local@VString@v8@@@v8@@AEBV?$PropertyCallbackInfo@VValue@v8@@@Nan@@@Z 000000018000d3c0 f   CanvasRenderingContext2d.obj
 0001:0000c4b0       ?SetShadowBlur@Context2d@@SAXV?$Local@VString@v8@@@v8@@V?$Local@VValue@v8@@@3@AEBV?$PropertyCallbackInfo@X@Nan@@@Z 000000018000d4b0 f   CanvasRenderingContext2d.obj
 0001:0000c500       ?GetAntiAlias@Context2d@@SAXV?$Local@VString@v8@@@v8@@AEBV?$PropertyCallbackInfo@VValue@v8@@@Nan@@@Z 000000018000d500 f   CanvasRenderingContext2d.obj
 0001:0000c620       ?SetAntiAlias@Context2d@@SAXV?$Local@VString@v8@@@v8@@V?$Local@VValue@v8@@@3@AEBV?$PropertyCallbackInfo@X@Nan@@@Z 000000018000d620 f   CanvasRenderingContext2d.obj
 0001:0000c7a0       ?GetTextDrawingMode@Context2d@@SAXV?$Local@VString@v8@@@v8@@AEBV?$PropertyCallbackInfo@VValue@v8@@@Nan@@@Z 000000018000d7a0 f   CanvasRenderingContext2d.obj
 0001:0000c8b0       ?SetTextDrawingMode@Context2d@@SAXV?$Local@VString@v8@@@v8@@V?$Local@VValue@v8@@@3@AEBV?$PropertyCallbackInfo@X@Nan@@@Z 000000018000d8b0 f   CanvasRenderingContext2d.obj
 0001:0000c9f0       ?GetFilter@Context2d@@SAXV?$Local@VString@v8@@@v8@@AEBV?$PropertyCallbackInfo@VValue@v8@@@Nan@@@Z 000000018000d9f0 f   CanvasRenderingContext2d.obj
 0001:0000cb20       ?SetFilter@Context2d@@SAXV?$Local@VString@v8@@@v8@@V?$Local@VValue@v8@@@3@AEBV?$PropertyCallbackInfo@X@Nan@@@Z 000000018000db20 f   CanvasRenderingContext2d.obj
 0001:0000cca0       ?GetMiterLimit@Context2d@@SAXV?$Local@VString@v8@@@v8@@AEBV?$PropertyCallbackInfo@VValue@v8@@@Nan@@@Z 000000018000dca0 f   CanvasRenderingContext2d.obj
 0001:0000cd80       ?SetMiterLimit@Context2d@@SAXV?$Local@VString@v8@@@v8@@V?$Local@VValue@v8@@@3@AEBV?$PropertyCallbackInfo@X@Nan@@@Z 000000018000dd80 f   CanvasRenderingContext2d.obj
 0001:0000cdd0       ?GetLineWidth@Context2d@@SAXV?$Local@VString@v8@@@v8@@AEBV?$PropertyCallbackInfo@VValue@v8@@@Nan@@@Z 000000018000ddd0 f   CanvasRenderingContext2d.obj
 0001:0000ceb0       ?SetLineWidth@Context2d@@SAXV?$Local@VString@v8@@@v8@@V?$Local@VValue@v8@@@3@AEBV?$PropertyCallbackInfo@X@Nan@@@Z 000000018000deb0 f   CanvasRenderingContext2d.obj
 0001:0000cf10       ?GetLineJoin@Context2d@@SAXV?$Local@VString@v8@@@v8@@AEBV?$PropertyCallbackInfo@VValue@v8@@@Nan@@@Z 000000018000df10 f   CanvasRenderingContext2d.obj
 0001:0000d020       ?SetLineJoin@Context2d@@SAXV?$Local@VString@v8@@@v8@@V?$Local@VValue@v8@@@3@AEBV?$PropertyCallbackInfo@X@Nan@@@Z 000000018000e020 f   CanvasRenderingContext2d.obj
 0001:0000d150       ?GetLineCap@Context2d@@SAXV?$Local@VString@v8@@@v8@@AEBV?$PropertyCallbackInfo@VValue@v8@@@Nan@@@Z 000000018000e150 f   CanvasRenderingContext2d.obj
 0001:0000d260       ?SetLineCap@Context2d@@SAXV?$Local@VString@v8@@@v8@@V?$Local@VValue@v8@@@3@AEBV?$PropertyCallbackInfo@X@Nan@@@Z 000000018000e260 f   CanvasRenderingContext2d.obj
 0001:0000d390       ?IsPointInPath@Context2d@@SAXAEBV?$FunctionCallbackInfo@VValue@v8@@@Nan@@@Z 000000018000e390 f   CanvasRenderingContext2d.obj
 0001:0000d520       ?SetFillPattern@Context2d@@SAXAEBV?$FunctionCallbackInfo@VValue@v8@@@Nan@@@Z 000000018000e520 f   CanvasRenderingContext2d.obj
 0001:0000d6d0       ?SetStrokePattern@Context2d@@SAXAEBV?$FunctionCallbackInfo@VValue@v8@@@Nan@@@Z 000000018000e6d0 f   CanvasRenderingContext2d.obj
 0001:0000d880       ?SetShadowColor@Context2d@@SAXV?$Local@VString@v8@@@v8@@V?$Local@VValue@v8@@@3@AEBV?$PropertyCallbackInfo@X@Nan@@@Z 000000018000e880 f   CanvasRenderingContext2d.obj
 0001:0000d9a0       ?GetShadowColor@Context2d@@SAXV?$Local@VString@v8@@@v8@@AEBV?$PropertyCallbackInfo@VValue@v8@@@Nan@@@Z 000000018000e9a0 f   CanvasRenderingContext2d.obj
 0001:0000db80       ?SetFillColor@Context2d@@SAXAEBV?$FunctionCallbackInfo@VValue@v8@@@Nan@@@Z 000000018000eb80 f   CanvasRenderingContext2d.obj
 0001:0000dcd0       ?GetFillColor@Context2d@@SAXV?$Local@VString@v8@@@v8@@AEBV?$PropertyCallbackInfo@VValue@v8@@@Nan@@@Z 000000018000ecd0 f   CanvasRenderingContext2d.obj
 0001:0000deb0       ?SetStrokeColor@Context2d@@SAXAEBV?$FunctionCallbackInfo@VValue@v8@@@Nan@@@Z 000000018000eeb0 f   CanvasRenderingContext2d.obj
 0001:0000e000       ?GetStrokeColor@Context2d@@SAXV?$Local@VString@v8@@@v8@@AEBV?$PropertyCallbackInfo@VValue@v8@@@Nan@@@Z 000000018000f000 f   CanvasRenderingContext2d.obj
 0001:0000e1e0       ?BezierCurveTo@Context2d@@SAXAEBV?$FunctionCallbackInfo@VValue@v8@@@Nan@@@Z 000000018000f1e0 f   CanvasRenderingContext2d.obj
 0001:0000e4c0       ?QuadraticCurveTo@Context2d@@SAXAEBV?$FunctionCallbackInfo@VValue@v8@@@Nan@@@Z 000000018000f4c0 f   CanvasRenderingContext2d.obj
 0001:0000e740       ?Save@Context2d@@SAXAEBV?$FunctionCallbackInfo@VValue@v8@@@Nan@@@Z 000000018000f740 f   CanvasRenderingContext2d.obj
 0001:0000e7d0       ?Restore@Context2d@@SAXAEBV?$FunctionCallbackInfo@VValue@v8@@@Nan@@@Z 000000018000f7d0 f   CanvasRenderingContext2d.obj
 0001:0000e8a0       ?BeginPath@Context2d@@SAXAEBV?$FunctionCallbackInfo@VValue@v8@@@Nan@@@Z 000000018000f8a0 f   CanvasRenderingContext2d.obj
 0001:0000e940       ?ClosePath@Context2d@@SAXAEBV?$FunctionCallbackInfo@VValue@v8@@@Nan@@@Z 000000018000f940 f   CanvasRenderingContext2d.obj
 0001:0000e9e0       ?Rotate@Context2d@@SAXAEBV?$FunctionCallbackInfo@VValue@v8@@@Nan@@@Z 000000018000f9e0 f   CanvasRenderingContext2d.obj
 0001:0000ead0       ?Transform@Context2d@@SAXAEBV?$FunctionCallbackInfo@VValue@v8@@@Nan@@@Z 000000018000fad0 f   CanvasRenderingContext2d.obj
 0001:0000ee10       ?ResetTransform@Context2d@@SAXAEBV?$FunctionCallbackInfo@VValue@v8@@@Nan@@@Z 000000018000fe10 f   CanvasRenderingContext2d.obj
 0001:0000eeb0       ?Translate@Context2d@@SAXAEBV?$FunctionCallbackInfo@VValue@v8@@@Nan@@@Z 000000018000feb0 f   CanvasRenderingContext2d.obj
 0001:0000f010       ?Scale@Context2d@@SAXAEBV?$FunctionCallbackInfo@VValue@v8@@@Nan@@@Z 0000000180010010 f   CanvasRenderingContext2d.obj
 0001:0000f170       ?Clip@Context2d@@SAXAEBV?$FunctionCallbackInfo@VValue@v8@@@Nan@@@Z 0000000180010170 f   CanvasRenderingContext2d.obj
 0001:0000f210       ?Fill@Context2d@@SAXAEBV?$FunctionCallbackInfo@VValue@v8@@@Nan@@@Z 0000000180010210 f   CanvasRenderingContext2d.obj
 0001:0000f2a0       ?Stroke@Context2d@@SAXAEBV?$FunctionCallbackInfo@VValue@v8@@@Nan@@@Z 00000001800102a0 f   CanvasRenderingContext2d.obj
 0001:0000f330       ?FillText@Context2d@@SAXAEBV?$FunctionCallbackInfo@VValue@v8@@@Nan@@@Z 0000000180010330 f   CanvasRenderingContext2d.obj
 0001:0000f540       ?StrokeText@Context2d@@SAXAEBV?$FunctionCallbackInfo@VValue@v8@@@Nan@@@Z 0000000180010540 f   CanvasRenderingContext2d.obj
 0001:0000f750       ?setTextPath@Context2d@@QEAAXPEBDNN@Z 0000000180010750 f   CanvasRenderingContext2d.obj
 0001:0000f8d0       ?LineTo@Context2d@@SAXAEBV?$FunctionCallbackInfo@VValue@v8@@@Nan@@@Z 00000001800108d0 f   CanvasRenderingContext2d.obj
 0001:0000fae0       ?MoveTo@Context2d@@SAXAEBV?$FunctionCallbackInfo@VValue@v8@@@Nan@@@Z 0000000180010ae0 f   CanvasRenderingContext2d.obj
 0001:0000fcf0       ?SetFont@Context2d@@SAXAEBV?$FunctionCallbackInfo@VValue@v8@@@Nan@@@Z 0000000180010cf0 f   CanvasRenderingContext2d.obj
 0001:00010030       ?MeasureText@Context2d@@SAXAEBV?$FunctionCallbackInfo@VValue@v8@@@Nan@@@Z 0000000180011030 f   CanvasRenderingContext2d.obj
 0001:00010580       ?SetTextBaseline@Context2d@@SAXAEBV?$FunctionCallbackInfo@VValue@v8@@@Nan@@@Z 0000000180011580 f   CanvasRenderingContext2d.obj
 0001:00010600       ?SetTextAlignment@Context2d@@SAXAEBV?$FunctionCallbackInfo@VValue@v8@@@Nan@@@Z 0000000180011600 f   CanvasRenderingContext2d.obj
 0001:00010680       ?SetLineDash@Context2d@@SAXAEBV?$FunctionCallbackInfo@VValue@v8@@@Nan@@@Z 0000000180011680 f   CanvasRenderingContext2d.obj
 0001:00010940       ?GetLineDash@Context2d@@SAXAEBV?$FunctionCallbackInfo@VValue@v8@@@Nan@@@Z 0000000180011940 f   CanvasRenderingContext2d.obj
 0001:00010bb0       ?SetLineDashOffset@Context2d@@SAXV?$Local@VString@v8@@@v8@@V?$Local@VValue@v8@@@3@AEBV?$PropertyCallbackInfo@X@Nan@@@Z 0000000180011bb0 f   CanvasRenderingContext2d.obj
 0001:00010d20       ?GetLineDashOffset@Context2d@@SAXV?$Local@VString@v8@@@v8@@AEBV?$PropertyCallbackInfo@VValue@v8@@@Nan@@@Z 0000000180011d20 f   CanvasRenderingContext2d.obj
 0001:00010e10       ?FillRect@Context2d@@SAXAEBV?$FunctionCallbackInfo@VValue@v8@@@Nan@@@Z 0000000180011e10 f   CanvasRenderingContext2d.obj
 0001:00011010       ?StrokeRect@Context2d@@SAXAEBV?$FunctionCallbackInfo@VValue@v8@@@Nan@@@Z 0000000180012010 f   CanvasRenderingContext2d.obj
 0001:00011210       ?ClearRect@Context2d@@SAXAEBV?$FunctionCallbackInfo@VValue@v8@@@Nan@@@Z 0000000180012210 f   CanvasRenderingContext2d.obj
 0001:00011430       ?Rect@Context2d@@SAXAEBV?$FunctionCallbackInfo@VValue@v8@@@Nan@@@Z 0000000180012430 f   CanvasRenderingContext2d.obj
 0001:00011650       ?Arc@Context2d@@SAXAEBV?$FunctionCallbackInfo@VValue@v8@@@Nan@@@Z 0000000180012650 f   CanvasRenderingContext2d.obj
 0001:00011a00       ?ArcTo@Context2d@@SAXAEBV?$FunctionCallbackInfo@VValue@v8@@@Nan@@@Z 0000000180012a00 f   CanvasRenderingContext2d.obj
 0001:000120b0       ??1?$vector@NV?$allocator@N@std@@@std@@QEAA@XZ 00000001800130b0 f i CanvasRenderingContext2d.obj
 0001:000120c0       ?_Tidy@?$vector@NV?$allocator@N@std@@@std@@IEAAXXZ 00000001800130c0 f i CanvasRenderingContext2d.obj
 0001:00012160       ??$_Allocate@N@std@@YAPEAN_KPEAN_N@Z 0000000180013160 f i CanvasRenderingContext2d.obj
 0001:000121e0       __local_stdio_printf_options 00000001800131e0 f i color.obj
 0001:000121f0       snprintf                   00000001800131f0 f i color.obj
 0001:00012ff0       ?rgba_from_string@@YAHPEBDPEAF@Z 0000000180013ff0 f   color.obj
 0001:000132c0       ?GetFunction@Callback@Nan@@QEBA?AV?$Local@VFunction@v8@@@v8@@XZ 00000001800142c0 f i Image.obj
 0001:00013350       ?Initialize@Image@@SAXV?$Local@VObject@v8@@@v8@@@Z 0000000180014350 f   Image.obj
 0001:00013870       ?New@Image@@SAXAEBV?$FunctionCallbackInfo@VValue@v8@@@Nan@@@Z 0000000180014870 f   Image.obj
 0001:00013900       ?GetComplete@Image@@SAXV?$Local@VString@v8@@@v8@@AEBV?$PropertyCallbackInfo@VValue@v8@@@Nan@@@Z 0000000180014900 f   Image.obj
 0001:000139d0       ?GetDataMode@Image@@SAXV?$Local@VString@v8@@@v8@@AEBV?$PropertyCallbackInfo@VValue@v8@@@Nan@@@Z 00000001800149d0 f   Image.obj
 0001:00013ab0       ?SetDataMode@Image@@SAXV?$Local@VString@v8@@@v8@@V?$Local@VValue@v8@@@3@AEBV?$PropertyCallbackInfo@X@Nan@@@Z 0000000180014ab0 f   Image.obj
 0001:00013af0       ?GetWidth@Image@@SAXV?$Local@VString@v8@@@v8@@AEBV?$PropertyCallbackInfo@VValue@v8@@@Nan@@@Z 0000000180014af0 f   Image.obj
 0001:00013bd0       ?GetHeight@Image@@SAXV?$Local@VString@v8@@@v8@@AEBV?$PropertyCallbackInfo@VValue@v8@@@Nan@@@Z 0000000180014bd0 f   Image.obj
 0001:00013cb0       ?GetSource@Image@@SAXV?$Local@VString@v8@@@v8@@AEBV?$PropertyCallbackInfo@VValue@v8@@@Nan@@@Z 0000000180014cb0 f   Image.obj
 0001:00013da0       ?clearData@Image@@QEAAXXZ  0000000180014da0 f   Image.obj
 0001:00013e60       ?SetSource@Image@@SAXV?$Local@VString@v8@@@v8@@V?$Local@VValue@v8@@@3@AEBV?$PropertyCallbackInfo@X@Nan@@@Z 0000000180014e60 f   Image.obj
 0001:000140a0       ?loadFromBuffer@Image@@QEAA?AW4_cairo_status@@PEAEI@Z 00000001800150a0 f   Image.obj
 0001:00014130       ?readPNG@Image@@SA?AW4_cairo_status@@PEAXPEAEI@Z 0000000180015130 f   Image.obj
 0001:00014170       ?GetOnload@Image@@SAXV?$Local@VString@v8@@@v8@@AEBV?$PropertyCallbackInfo@VValue@v8@@@Nan@@@Z 0000000180015170 f   Image.obj
 0001:00014250       ?SetOnload@Image@@SAXV?$Local@VString@v8@@@v8@@V?$Local@VValue@v8@@@3@AEBV?$PropertyCallbackInfo@X@Nan@@@Z 0000000180015250 f   Image.obj
 0001:00014310       ?GetOnerror@Image@@SAXV?$Local@VString@v8@@@v8@@AEBV?$PropertyCallbackInfo@VValue@v8@@@Nan@@@Z 0000000180015310 f   Image.obj
 0001:000143f0       ?SetOnerror@Image@@SAXV?$Local@VString@v8@@@v8@@V?$Local@VValue@v8@@@3@AEBV?$PropertyCallbackInfo@X@Nan@@@Z 00000001800153f0 f   Image.obj
 0001:000144b0       ??_GImage@@EEAAPEAXI@Z     00000001800154b0 f i Image.obj
 0001:000144b0       ??_EImage@@EEAAPEAXI@Z     00000001800154b0 f i * CIL library *:* CIL module *
 0001:000144f0       ??1Image@@EEAA@XZ          00000001800154f0 f   Image.obj
 0001:000145f0       ?loaded@Image@@QEAAXXZ     00000001800155f0 f   Image.obj
 0001:00014700       ?error@Image@@QEAAXV?$Local@VValue@v8@@@v8@@@Z 0000000180015700 f   Image.obj
 0001:000147b0       ?loadSurface@Image@@QEAA?AW4_cairo_status@@XZ 00000001800157b0 f   Image.obj
 0001:00014870       ??_GImageData@@UEAAPEAXI@Z 0000000180015870 f i ImageData.obj
 0001:00014870       ??_EImageData@@UEAAPEAXI@Z 0000000180015870 f i * CIL library *:* CIL module *
 0001:000148b0       ?Initialize@ImageData@@SAXV?$Local@VObject@v8@@@v8@@@Z 00000001800158b0 f   ImageData.obj
 0001:00014ae0       ?New@ImageData@@SAXAEBV?$FunctionCallbackInfo@VValue@v8@@@Nan@@@Z 0000000180015ae0 f   ImageData.obj
 0001:000151c0       ?init@@YAXV?$Local@VObject@v8@@@v8@@@Z 00000001800161c0 f   init.obj
 0001:000152ec       __imp_load_uv_queue_work   00000001800162ec f   node:node.exe
 0001:000152f8       __tailMerge_node_exe       00000001800162f8 f i node:node.exe
 0001:00015371       __imp_load_?Global@Context@v8@@QEAA?AV?$Local@VObject@v8@@@2@XZ 0000000180016371 f   node:node.exe
 0001:0001537d       __imp_load_?Value@External@v8@@QEBAPEAXXZ 000000018001637d f   node:node.exe
 0001:00015389       __imp_load_?New@External@v8@@SA?AV?$Local@VExternal@v8@@@2@PEAVIsolate@2@PEAX@Z 0000000180016389 f   node:node.exe
 0001:00015395       __imp_load_?NewFromUnsigned@Integer@v8@@SA?AV?$Local@VInteger@v8@@@2@PEAVIsolate@2@I@Z 0000000180016395 f   node:node.exe
 0001:000153a1       __imp_load_?New@Signature@v8@@SA?AV?$Local@VSignature@v8@@@2@PEAVIsolate@2@V?$Local@VFunctionTemplate@v8@@@2@@Z 00000001800163a1 f   node:node.exe
 0001:000153ad       __imp_load_?CollectAllGarbage@Isolate@v8@@AEAAXPEBD@Z 00000001800163ad f   node:node.exe
 0001:000153b9       __imp_load_?VisitHandlesForPartialDependence@Isolate@v8@@QEAAXPEAVPersistentHandleVisitor@2@@Z 00000001800163b9 f   node:node.exe
 0001:000153c5       __imp_load_?VisitHandlesWithClassIds@Isolate@v8@@QEAAXPEAVPersistentHandleVisitor@2@@Z 00000001800163c5 f   node:node.exe
 0001:000153d1       __imp_load_?VisitExternalResources@Isolate@v8@@QEAAXPEAVExternalResourceVisitor@2@@Z 00000001800163d1 f   node:node.exe
 0001:000153dd       __imp_load_?RemoveMemoryAllocationCallback@Isolate@v8@@QEAAXP6AXW4ObjectSpace@2@W4AllocationAction@2@H@Z@Z 00000001800163dd f   node:node.exe
 0001:000153e9       __imp_load_?AddMemoryAllocationCallback@Isolate@v8@@QEAAXP6AXW4ObjectSpace@2@W4AllocationAction@2@H@Z01@Z 00000001800163e9 f   node:node.exe
 0001:000153f5       __imp_load_?SetCaptureStackTraceForUncaughtExceptions@Isolate@v8@@QEAAX_NHW4StackTraceOptions@StackTrace@2@@Z 00000001800163f5 f   node:node.exe
 0001:00015401       __imp_load_?SetFailedAccessCheckCallbackFunction@Isolate@v8@@QEAAXP6AXV?$Local@VObject@v8@@@2@W4AccessType@2@V?$Local@VValue@v8@@@2@@Z@Z 0000000180016401 f   node:node.exe
 0001:0001540d       __imp_load_?RemoveMessageListeners@Isolate@v8@@QEAAXP6AXV?$Local@VMessage@v8@@@2@V?$Local@VValue@v8@@@2@@Z@Z 000000018001640d f   node:node.exe
 0001:00015419       __imp_load_?AddMessageListener@Isolate@v8@@QEAA_NP6AXV?$Local@VMessage@v8@@@2@V?$Local@VValue@v8@@@2@@Z1@Z 0000000180016419 f   node:node.exe
 0001:00015425       __imp_load_?IsDead@Isolate@v8@@QEAA_NXZ 0000000180016425 f   node:node.exe
 0001:00015431       __imp_load_?SetAllowCodeGenerationFromStringsCallback@Isolate@v8@@QEAAXP6A_NV?$Local@VContext@v8@@@2@@Z@Z 0000000180016431 f   node:node.exe
 0001:0001543d       __imp_load_?SetFatalErrorHandler@Isolate@v8@@QEAAXP6AXPEBD0@Z@Z 000000018001643d f   node:node.exe
 0001:00015449       __imp_load_?CancelTerminateExecution@Isolate@v8@@QEAAXXZ 0000000180016449 f   node:node.exe
 0001:00015455       __imp_load_?IsExecutionTerminating@Isolate@v8@@QEAA_NXZ 0000000180016455 f   node:node.exe
 0001:00015461       __imp_load_?TerminateExecution@Isolate@v8@@QEAAXXZ 0000000180016461 f   node:node.exe
 0001:0001546d       __imp_load_?RemoveGCEpilogueCallback@Isolate@v8@@QEAAXP6AXPEAV12@W4GCType@2@W4GCCallbackFlags@2@@Z@Z 000000018001646d f   node:node.exe
 0001:00015479       __imp_load_?RemoveGCPrologueCallback@Isolate@v8@@QEAAXP6AXPEAV12@W4GCType@2@W4GCCallbackFlags@2@@Z@Z 0000000180016479 f   node:node.exe
 0001:00015485       __imp_load_?ThrowException@Isolate@v8@@QEAA?AV?$Local@VValue@v8@@@2@V32@@Z 0000000180016485 f   node:node.exe
 0001:00015491       __imp_load_?GetCurrentContext@Isolate@v8@@QEAA?AV?$Local@VContext@v8@@@2@XZ 0000000180016491 f   node:node.exe
 0001:0001549d       __imp_load_?Exit@Isolate@v8@@QEAAXXZ 000000018001649d f   node:node.exe
 0001:000154a9       __imp_load_?Enter@Isolate@v8@@QEAAXXZ 00000001800164a9 f   node:node.exe
 0001:000154b5       __imp_load_?GetCurrent@Isolate@v8@@SAPEAV12@XZ 00000001800164b5 f   node:node.exe
 0001:000154c1       __imp_load_?ResetToBookmark@ExternalSourceStream@ScriptCompiler@v8@@UEAAXXZ 00000001800164c1 f   node:node.exe
 0001:000154cd       ?ResetToBookmark@ExternalSourceStream@ScriptCompiler@v8@@UEAAXXZ 00000001800164cd f   node:node.exe
 0001:000154d3       __imp_load_?SetBookmark@ExternalSourceStream@ScriptCompiler@v8@@UEAA_NXZ 00000001800164d3 f   node:node.exe
 0001:000154df       ?SetBookmark@ExternalSourceStream@ScriptCompiler@v8@@UEAA_NXZ 00000001800164df f   node:node.exe
 0001:000154e5       __imp_load_?CreateHandle@HandleScope@v8@@KAPEAPEAVObject@internal@2@PEAVIsolate@42@PEAV342@@Z 00000001800164e5 f   node:node.exe
 0001:000154f1       __imp_load_?CreateHandle@HandleScope@v8@@CAPEAPEAVObject@internal@2@PEAVHeapObject@42@PEAV342@@Z 00000001800164f1 f   node:node.exe
 0001:000154fd       __imp_load_??1HandleScope@v8@@QEAA@XZ 00000001800164fd f   node:node.exe
 0001:00015509       __imp_load_??0HandleScope@v8@@QEAA@PEAVIsolate@1@@Z 0000000180016509 f   node:node.exe
 0001:00015515       __imp_load_?Set@Template@v8@@QEAAXV?$Local@VName@v8@@@2@V?$Local@VData@v8@@@2@W4PropertyAttribute@2@@Z 0000000180016515 f   node:node.exe
 0001:00015521       __imp_load_?Error@Exception@v8@@SA?AV?$Local@VValue@v8@@@2@V?$Local@VString@v8@@@2@@Z 0000000180016521 f   node:node.exe
 0001:0001552d       __imp_load_?TypeError@Exception@v8@@SA?AV?$Local@VValue@v8@@@2@V?$Local@VString@v8@@@2@@Z 000000018001652d f   node:node.exe
 0001:00015539       __imp_load_?RangeError@Exception@v8@@SA?AV?$Local@VValue@v8@@@2@V?$Local@VString@v8@@@2@@Z 0000000180016539 f   node:node.exe
 0001:00015545       __imp_load_?Initialize@Locker@v8@@AEAAXPEAVIsolate@2@@Z 0000000180016545 f   node:node.exe
 0001:00015551       __imp_load_?Initialize@Unlocker@v8@@AEAAXPEAVIsolate@2@@Z 0000000180016551 f   node:node.exe
 0001:0001555d       __imp_load_?SetClassName@FunctionTemplate@v8@@QEAAXV?$Local@VString@v8@@@2@@Z 000000018001655d f   node:node.exe
 0001:00015569       __imp_load_?PrototypeTemplate@FunctionTemplate@v8@@QEAA?AV?$Local@VObjectTemplate@v8@@@2@XZ 0000000180016569 f   node:node.exe
 0001:00015575       __imp_load_?InstanceTemplate@FunctionTemplate@v8@@QEAA?AV?$Local@VObjectTemplate@v8@@@2@XZ 0000000180016575 f   node:node.exe
 0001:00015581       __imp_load_?GetFunction@FunctionTemplate@v8@@QEAA?AV?$Local@VFunction@v8@@@2@XZ 0000000180016581 f   node:node.exe
 0001:0001558d       __imp_load_?GetFunction@FunctionTemplate@v8@@QEAA?AV?$MaybeLocal@VFunction@v8@@@2@V?$Local@VContext@v8@@@2@@Z 000000018001658d f   node:node.exe
 0001:00015599       __imp_load_?New@FunctionTemplate@v8@@SA?AV?$Local@VFunctionTemplate@v8@@@2@PEAVIsolate@2@P6AXAEBV?$FunctionCallbackInfo@VValue@v8@@@2@@ZV?$Local@VValue@v8@@@2@V?$Local@VSignature@v8@@@2@H@Z 0000000180016599 f   node:node.exe
 0001:000155a5       __imp_load_?ToLocalEmpty@V8@v8@@CAXXZ 00000001800165a5 f   node:node.exe
 0001:000155b1       __imp_load_?ClearWeak@V8@v8@@CAPEAXPEAPEAVObject@internal@2@@Z 00000001800165b1 f   node:node.exe
 0001:000155bd       __imp_load_?MakeWeak@V8@v8@@CAXPEAPEAVObject@internal@2@PEAXP6AXAEBV?$WeakCallbackInfo@X@2@@ZW4WeakCallbackType@2@@Z 00000001800165bd f   node:node.exe
 0001:000155c9       __imp_load_?DisposeGlobal@V8@v8@@CAXPEAPEAVObject@internal@2@@Z 00000001800165c9 f   node:node.exe
 0001:000155d5       __imp_load_?GlobalizeReference@V8@v8@@CAPEAPEAVObject@internal@2@PEAVIsolate@42@PEAPEAV342@@Z 00000001800165d5 f   node:node.exe
 0001:000155e1       __imp_load_?StrictEquals@Value@v8@@QEBA_NV?$Local@VValue@v8@@@2@@Z 00000001800165e1 f   node:node.exe
 0001:000155ed       __imp_load_?Uint32Value@Value@v8@@QEBAIXZ 00000001800165ed f   node:node.exe
 0001:000155f9       __imp_load_?ToInt32@Value@v8@@QEBA?AV?$MaybeLocal@VInt32@v8@@@2@V?$Local@VContext@v8@@@2@@Z 00000001800165f9 f   node:node.exe
 0001:00015605       __imp_load_?ToUint32@Value@v8@@QEBA?AV?$MaybeLocal@VUint32@v8@@@2@V?$Local@VContext@v8@@@2@@Z 0000000180016605 f   node:node.exe
 0001:00015611       __imp_load_?ToInteger@Value@v8@@QEBA?AV?$MaybeLocal@VInteger@v8@@@2@V?$Local@VContext@v8@@@2@@Z 0000000180016611 f   node:node.exe
 0001:0001561d       __imp_load_?ToObject@Value@v8@@QEBA?AV?$MaybeLocal@VObject@v8@@@2@V?$Local@VContext@v8@@@2@@Z 000000018001661d f   node:node.exe
 0001:00015629       __imp_load_?ToDetailString@Value@v8@@QEBA?AV?$MaybeLocal@VString@v8@@@2@V?$Local@VContext@v8@@@2@@Z 0000000180016629 f   node:node.exe
 0001:00015635       __imp_load_?ToString@Value@v8@@QEBA?AV?$MaybeLocal@VString@v8@@@2@V?$Local@VContext@v8@@@2@@Z 0000000180016635 f   node:node.exe
 0001:00015641       __imp_load_?ToNumber@Value@v8@@QEBA?AV?$MaybeLocal@VNumber@v8@@@2@V?$Local@VContext@v8@@@2@@Z 0000000180016641 f   node:node.exe
 0001:0001564d       __imp_load_?ToBoolean@Value@v8@@QEBA?AV?$MaybeLocal@VBoolean@v8@@@2@V?$Local@VContext@v8@@@2@@Z 000000018001664d f   node:node.exe
 0001:00015659       __imp_load_?IsUint32@Value@v8@@QEBA_NXZ 0000000180016659 f   node:node.exe
 0001:00015665       __imp_load_?IsNumber@Value@v8@@QEBA_NXZ 0000000180016665 f   node:node.exe
 0001:00015671       __imp_load_?IsFunction@Value@v8@@QEBA_NXZ 0000000180016671 f   node:node.exe
 0001:0001567d       __imp_load_?ReThrow@TryCatch@v8@@QEAA?AV?$Local@VValue@v8@@@2@XZ 000000018001667d f   node:node.exe
 0001:00015689       __imp_load_?HasCaught@TryCatch@v8@@QEBA_NXZ 0000000180016689 f   node:node.exe
 0001:00015695       __imp_load_??1TryCatch@v8@@QEAA@XZ 0000000180016695 f   node:node.exe
 0001:000156a1       __imp_load_??0TryCatch@v8@@QEAA@XZ 00000001800166a1 f   node:node.exe
 0001:000156ad       __imp_load_?Escape@EscapableHandleScope@v8@@AEAAPEAPEAVObject@internal@2@PEAPEAV342@@Z 00000001800166ad f   node:node.exe
 0001:000156b9       __imp_load_??0EscapableHandleScope@v8@@QEAA@PEAVIsolate@1@@Z 00000001800166b9 f   node:node.exe
 0001:000156c5       __imp_load_??1Utf8Value@String@v8@@QEAA@XZ 00000001800166c5 f   node:node.exe
 0001:000156d1       __imp_load_??0Utf8Value@String@v8@@QEAA@V?$Local@VValue@v8@@@2@@Z 00000001800166d1 f   node:node.exe
 0001:000156dd       __imp_load_?NewFromUtf8@String@v8@@SA?AV?$MaybeLocal@VString@v8@@@2@PEAVIsolate@2@PEBDW4NewStringType@2@H@Z 00000001800166dd f   node:node.exe
 0001:000156e9       __imp_load_?New@Number@v8@@SA?AV?$Local@VNumber@v8@@@2@PEAVIsolate@2@N@Z 00000001800166e9 f   node:node.exe
 0001:000156f5       __imp_load_?SlowGetAlignedPointerFromInternalField@Object@v8@@AEAAPEAXH@Z 00000001800166f5 f   node:node.exe
 0001:00015701       __imp_load_?SlowGetInternalField@Object@v8@@AEAA?AV?$Local@VValue@v8@@@2@H@Z 0000000180016701 f   node:node.exe
 0001:0001570d       __imp_load_?New@Object@v8@@SA?AV?$Local@VObject@v8@@@2@PEAVIsolate@2@@Z 000000018001670d f   node:node.exe
 0001:00015719       __imp_load_?SetAlignedPointerInInternalField@Object@v8@@QEAAXHPEAX@Z 0000000180016719 f   node:node.exe
 0001:00015725       __imp_load_?SetInternalField@Object@v8@@QEAAXHV?$Local@VValue@v8@@@2@@Z 0000000180016725 f   node:node.exe
 0001:00015731       __imp_load_?InternalFieldCount@Object@v8@@QEAAHXZ 0000000180016731 f   node:node.exe
 0001:0001573d       __imp_load_?Get@Object@v8@@QEAA?AV?$Local@VValue@v8@@@2@V32@@Z 000000018001673d f   node:node.exe
 0001:00015749       __imp_load_?Get@Object@v8@@QEAA?AV?$Local@VValue@v8@@@2@I@Z 0000000180016749 f   node:node.exe
 0001:00015755       __imp_load_?Set@Object@v8@@QEAA?AV?$Maybe@_N@2@V?$Local@VContext@v8@@@2@V?$Local@VValue@v8@@@2@1@Z 0000000180016755 f   node:node.exe
 0001:00015761       __imp_load_?Set@Object@v8@@QEAA?AV?$Maybe@_N@2@V?$Local@VContext@v8@@@2@IV?$Local@VValue@v8@@@2@@Z 0000000180016761 f   node:node.exe
 0001:0001576d       __imp_load_?SetName@Function@v8@@QEAAXV?$Local@VString@v8@@@2@@Z 000000018001676d f   node:node.exe
 0001:00015779       __imp_load_?NewInstance@Function@v8@@QEBA?AV?$MaybeLocal@VObject@v8@@@2@V?$Local@VContext@v8@@@2@HQEAV?$Local@VValue@v8@@@2@@Z 0000000180016779 f   node:node.exe
 0001:00015785       __imp_load_?SetInternalFieldCount@ObjectTemplate@v8@@QEAAXH@Z 0000000180016785 f   node:node.exe
 0001:00015791       __imp_load_?SetHandler@ObjectTemplate@v8@@QEAAXAEBUIndexedPropertyHandlerConfiguration@2@@Z 0000000180016791 f   node:node.exe
 0001:0001579d       __imp_load_?SetAccessor@ObjectTemplate@v8@@QEAAXV?$Local@VName@v8@@@2@P6AX0AEBV?$PropertyCallbackInfo@VValue@v8@@@2@@ZP6AX0V?$Local@VValue@v8@@@2@AEBV?$PropertyCallbackInfo@X@2@@Z3W4AccessControl@2@W4PropertyAttribute@2@V?$Local@VAccessorSignature@v8@@@2@@Z 000000018001679d f   node:node.exe
 0001:000157a9       __imp_load_?NewInstance@ObjectTemplate@v8@@QEAA?AV?$MaybeLocal@VObject@v8@@@2@V?$Local@VContext@v8@@@2@@Z 00000001800167a9 f   node:node.exe
 0001:000157b5       __imp_load_?New@ObjectTemplate@v8@@SA?AV?$Local@VObjectTemplate@v8@@@2@PEAVIsolate@2@V?$Local@VFunctionTemplate@v8@@@2@@Z 00000001800167b5 f   node:node.exe
 0001:000157c1       __imp_load_?Data@Buffer@node@@YAPEADV?$Local@VObject@v8@@@v8@@@Z 00000001800167c1 f   node:node.exe
 0001:000157cd       __imp_load_?Copy@Buffer@node@@YA?AV?$MaybeLocal@VObject@v8@@@v8@@PEAVIsolate@4@PEBD_K@Z 00000001800167cd f   node:node.exe
 0001:000157d9       __imp_load_?MakeCallback@node@@YA?AV?$Local@VValue@v8@@@v8@@PEAVIsolate@3@V?$Local@VObject@v8@@@3@V?$Local@VFunction@v8@@@3@HPEAV23@@Z 00000001800167d9 f   node:node.exe
 0001:000157e5       __imp_load_uv_default_loop 00000001800167e5 f   node:node.exe
 0001:000157f1       __imp_load_?NumberValue@Value@v8@@QEBANXZ 00000001800167f1 f   node:node.exe
 0001:000157fd       __imp_load_?HasInstance@FunctionTemplate@v8@@QEAA_NV?$Local@VValue@v8@@@2@@Z 00000001800167fd f   node:node.exe
 0001:00015809       __imp_load_?New@Uint8ClampedArray@v8@@SA?AV?$Local@VUint8ClampedArray@v8@@@2@V?$Local@VArrayBuffer@v8@@@2@_K1@Z 0000000180016809 f   node:node.exe
 0001:00015815       __imp_load_?New@Integer@v8@@SA?AV?$Local@VInteger@v8@@@2@PEAVIsolate@2@H@Z 0000000180016815 f   node:node.exe
 0001:00015821       __imp_load_?ByteLength@ArrayBufferView@v8@@QEAA_KXZ 0000000180016821 f   node:node.exe
 0001:0001582d       __imp_load_?ByteOffset@ArrayBufferView@v8@@QEAA_KXZ 000000018001682d f   node:node.exe
 0001:00015839       __imp_load_?Buffer@ArrayBufferView@v8@@QEAA?AV?$Local@VArrayBuffer@v8@@@2@XZ 0000000180016839 f   node:node.exe
 0001:00015845       __imp_load_?New@Array@v8@@SA?AV?$Local@VArray@v8@@@2@PEAVIsolate@2@H@Z 0000000180016845 f   node:node.exe
 0001:00015851       __imp_load_?Length@Array@v8@@QEBAIXZ 0000000180016851 f   node:node.exe
 0001:0001585d       __imp_load_?GetContents@ArrayBuffer@v8@@QEAA?AVContents@12@XZ 000000018001685d f   node:node.exe
 0001:00015869       __imp_load_?New@ArrayBuffer@v8@@SA?AV?$Local@VArrayBuffer@v8@@@2@PEAVIsolate@2@_K@Z 0000000180016869 f   node:node.exe
 0001:00015875       __imp_load_?Int32Value@Value@v8@@QEBAHXZ 0000000180016875 f   node:node.exe
 0001:00015881       __imp_load_?BooleanValue@Value@v8@@QEBA_NXZ 0000000180016881 f   node:node.exe
 0001:0001588d       __imp_load_?IsArrayBufferView@Value@v8@@QEBA_NXZ 000000018001688d f   node:node.exe
 0001:00015899       __imp_load_?IsInt32@Value@v8@@QEBA_NXZ 0000000180016899 f   node:node.exe
 0001:000158a5       __imp_load_?IsArray@Value@v8@@QEBA_NXZ 00000001800168a5 f   node:node.exe
 0001:000158b1       __imp_load_?Set@Object@v8@@QEAA_NV?$Local@VValue@v8@@@2@0@Z 00000001800168b1 f   node:node.exe
 0001:000158bd       __imp_load_?NewInstance@Function@v8@@QEBA?AV?$Local@VObject@v8@@@2@HQEAV?$Local@VValue@v8@@@2@@Z 00000001800168bd f   node:node.exe
 0001:000158c9       __imp_load_?HasInstance@Buffer@node@@YA_NV?$Local@VValue@v8@@@v8@@@Z 00000001800168c9 f   node:node.exe
 0001:000158d5       __imp_load_?Length@Buffer@node@@YA_KV?$Local@VObject@v8@@@v8@@@Z 00000001800168d5 f   node:node.exe
 0001:000158e1       __imp_load_?Length@TypedArray@v8@@QEAA_KXZ 00000001800168e1 f   node:node.exe
 0001:000158ed       __imp_load_?IsUint8ClampedArray@Value@v8@@QEBA_NXZ 00000001800168ed f   node:node.exe
 0001:000158f9       __imp_load_node_module_register 00000001800168f9 f   node:node.exe
 0001:00015908       ??0bad_alloc@std@@QEAA@AEBV01@@Z 0000000180016908 f i libcpmt:xthrow.obj
 0001:00015948       ??0bad_alloc@std@@QEAA@XZ  0000000180016948 f i libcpmt:xthrow.obj
 0001:00015968       ??0exception@std@@QEAA@AEBV01@@Z 0000000180016968 f i libcpmt:xthrow.obj
 0001:000159a0       ??0length_error@std@@QEAA@AEBV01@@Z 00000001800169a0 f i libcpmt:xthrow.obj
 0001:000159e0       ??0length_error@std@@QEAA@PEBD@Z 00000001800169e0 f i libcpmt:xthrow.obj
 0001:00015a2c       ??0logic_error@std@@QEAA@AEBV01@@Z 0000000180016a2c f i libcpmt:xthrow.obj
 0001:00015a6c       ??1bad_array_new_length@std@@UEAA@XZ 0000000180016a6c f i LIBCMT:throw_bad_alloc.obj
 0001:00015a6c       ??1bad_alloc@std@@UEAA@XZ  0000000180016a6c f i libcpmt:xthrow.obj
 0001:00015a6c       ??1length_error@std@@UEAA@XZ 0000000180016a6c f i libcpmt:xthrow.obj
 0001:00015a6c       ??1bad_exception@std@@UEAA@XZ 0000000180016a6c f i libvcruntime:frame.obj
 0001:00015a80       ?_Xlength_error@std@@YAXPEBD@Z 0000000180016a80 f   libcpmt:xthrow.obj
 0001:00015aa4       ?what@exception@std@@UEBAPEBDXZ 0000000180016aa4 f i libcpmt:xthrow.obj
 0001:00015ad0       __security_check_cookie    0000000180016ad0 f   LIBCMT:_amdsecgs_.obj
 0001:00015af4       ??_V@YAXPEAX_K@Z           0000000180016af4 f   LIBCMT:delete_array_size.obj
 0001:00015afc       ??2@YAPEAX_K@Z             0000000180016afc f   LIBCMT:new_scalar.obj
 0001:00015b38       ??_M@YAXPEAX_K1P6AX0@Z@Z   0000000180016b38 f   LIBCMT:ehvecdtr.obj
 0001:00015ba4       ?__ArrayUnwind@@YAXPEAX_K1P6AX0@Z@Z 0000000180016ba4 f   LIBCMT:ehvecdtr.obj
 0001:00015c08       __scrt_acquire_startup_lock 0000000180016c08 f   LIBCMT:utility.obj
 0001:00015c44       __scrt_dllmain_after_initialize_c 0000000180016c44 f   LIBCMT:utility.obj
 0001:00015c64       __scrt_dllmain_before_initialize_c 0000000180016c64 f   LIBCMT:utility.obj
 0001:00015c7c       __scrt_dllmain_crt_thread_attach 0000000180016c7c f   LIBCMT:utility.obj
 0001:00015ca4       __scrt_dllmain_crt_thread_detach 0000000180016ca4 f   LIBCMT:utility.obj
 0001:00015cbc       __scrt_dllmain_exception_filter 0000000180016cbc f   LIBCMT:utility.obj
 0001:00015d20       __scrt_dllmain_uninitialize_c 0000000180016d20 f   LIBCMT:utility.obj
 0001:00015d50       __scrt_dllmain_uninitialize_critical 0000000180016d50 f   LIBCMT:utility.obj
 0001:00015d64       __scrt_initialize_crt      0000000180016d64 f   LIBCMT:utility.obj
 0001:00015db0       __scrt_initialize_onexit_tables 0000000180016db0 f   LIBCMT:utility.obj
 0001:00015e7c       __scrt_is_nonwritable_in_current_image 0000000180016e7c f   LIBCMT:utility.obj
 0001:00015f18       __scrt_release_startup_lock 0000000180016f18 f   LIBCMT:utility.obj
 0001:00015f3c       __scrt_uninitialize_crt    0000000180016f3c f   LIBCMT:utility.obj
 0001:00015f68       _onexit                    0000000180016f68 f   LIBCMT:utility.obj
 0001:00015fb8       atexit                     0000000180016fb8 f   LIBCMT:utility.obj
 0001:00015fd0       ??3@YAXPEAX@Z              0000000180016fd0 f   LIBCMT:delete_scalar.obj
 0001:00015fd8       ??3@YAXPEAX_K@Z            0000000180016fd8 f   LIBCMT:delete_scalar_size.obj
 0001:00015fd8       ??_V@YAXPEAX@Z             0000000180016fd8 f   LIBCMT:delete_array.obj
 0001:0001633c       _DllMainCRTStartup         000000018001733c f   LIBCMT:dll_dllmain.obj
 0001:0001637c       ??_Gtype_info@@UEAAPEAXI@Z 000000018001737c f i LIBCMT:std_type_info_static.obj
 0001:0001637c       ??_Etype_info@@UEAAPEAXI@Z 000000018001737c f i LIBCMT:std_type_info_static.obj
 0001:000163a8       __raise_securityfailure    00000001800173a8 f   LIBCMT:gs_report.obj
 0001:000163dc       __report_gsfailure         00000001800173dc f   LIBCMT:gs_report.obj
 0001:00016524       ??0bad_array_new_length@std@@QEAA@AEBV01@@Z 0000000180017524 f i LIBCMT:throw_bad_alloc.obj
 0001:00016564       ??0bad_array_new_length@std@@QEAA@XZ 0000000180017564 f i LIBCMT:throw_bad_alloc.obj
 0001:00016584       ?_Xbad_alloc@std@@YAXXZ    0000000180017584 f   libcpmt:xthrow.obj
 0001:00016584       ?__scrt_throw_std_bad_alloc@@YAXXZ 0000000180017584 f   LIBCMT:throw_bad_alloc.obj
 0001:000165a4       ?__scrt_throw_std_bad_array_new_length@@YAXXZ 00000001800175a4 f   LIBCMT:throw_bad_alloc.obj
 0001:000165c4       _guard_check_icall         00000001800175c4 f i LIBCMT:checkcfg.obj
 0001:000165cc       __isa_available_init       00000001800175cc f   LIBCMT:_cpu_disp_.obj
 0001:00016790       __scrt_is_ucrt_dll_in_use  0000000180017790 f   LIBCMT:ucrt_detection.obj
 0001:0001679c       __crt_debugger_hook        000000018001779c f   LIBCMT:utility_desktop.obj
 0001:000167a4       __scrt_fastfail            00000001800177a4 f   LIBCMT:utility_desktop.obj
 0001:000168ec       __security_init_cookie     00000001800178ec f   LIBCMT:gs_support.obj
 0001:00016998       DllMain                    0000000180017998 f   LIBCMT:dll_dllmain_stub.obj
 0001:000169a0       ?__scrt_initialize_type_info@@YAXXZ 00000001800179a0 f   LIBCMT:tncleanup.obj
 0001:000169b0       ?__scrt_uninitialize_type_info@@YAXXZ 00000001800179b0 f   LIBCMT:tncleanup.obj
 0001:000169bc       __local_stdio_scanf_options 00000001800179bc f i LIBCMT:default_local_stdio_options.obj
 0001:000169c4       __scrt_initialize_default_local_stdio_options 00000001800179c4 f   LIBCMT:default_local_stdio_options.obj
 0001:000169e0       __scrt_get_dyn_tls_init_callback 00000001800179e0 f   LIBCMT:dyn_tls_init.obj
 0001:000169e8       _RTC_Initialize            00000001800179e8 f   LIBCMT:_initsect_.obj
 0001:00016a34       _RTC_Terminate             0000000180017a34 f   LIBCMT:_initsect_.obj
 0001:00016a80       longjmp                    0000000180017a80 f   libvcruntime:longjmpc.obj
 0001:00016aa8       _purecall                  0000000180017aa8 f   libvcruntime:purevirt.obj
 0001:00016ae4       __DestructExceptionObject  0000000180017ae4 f   libvcruntime:frame.obj
 0001:00016b6c       ??0bad_exception@std@@QEAA@AEBV01@@Z 0000000180017b6c f i libvcruntime:frame.obj
 0001:00016bac       ??0bad_exception@std@@QEAA@XZ 0000000180017bac f i libvcruntime:frame.obj
 0001:00016bcc       ??_Ebad_alloc@std@@UEAAPEAXI@Z 0000000180017bcc f i libcpmt:xthrow.obj
 0001:00016bcc       ??_Gbad_alloc@std@@UEAAPEAXI@Z 0000000180017bcc f i libcpmt:xthrow.obj
 0001:00016bcc       ??_Gbad_array_new_length@std@@UEAAPEAXI@Z 0000000180017bcc f i LIBCMT:throw_bad_alloc.obj
 0001:00016bcc       ??_Glogic_error@std@@UEAAPEAXI@Z 0000000180017bcc f i libcpmt:xthrow.obj
 0001:00016bcc       ??_Gexception@std@@UEAAPEAXI@Z 0000000180017bcc f i libcpmt:xthrow.obj
 0001:00016bcc       ??_Ebad_array_new_length@std@@UEAAPEAXI@Z 0000000180017bcc f i LIBCMT:throw_bad_alloc.obj
 0001:00016bcc       ??_Ebad_exception@std@@UEAAPEAXI@Z 0000000180017bcc f i libvcruntime:frame.obj
 0001:00016bcc       ??_Glength_error@std@@UEAAPEAXI@Z 0000000180017bcc f i libcpmt:xthrow.obj
 0001:00016bcc       ??_Gbad_exception@std@@UEAAPEAXI@Z 0000000180017bcc f i libvcruntime:frame.obj
 0001:00016bcc       ??_Eexception@std@@UEAAPEAXI@Z 0000000180017bcc f i libcpmt:xthrow.obj
 0001:00016bcc       ??_Elogic_error@std@@UEAAPEAXI@Z 0000000180017bcc f i libcpmt:xthrow.obj
 0001:00016bcc       ??_Elength_error@std@@UEAAPEAXI@Z 0000000180017bcc f i libcpmt:xthrow.obj
 0001:00017538       ?_CallMemberFunction0@@YAXPEAXP6AX0@Z@Z 0000000180018538 f i libvcruntime:frame.obj
 0001:0001753c       ?_CallMemberFunction1@@YAXPEAXP6AX0@Z0@Z 000000018001853c f i libvcruntime:frame.obj
 0001:00017548       ?_CallMemberFunction2@@YAXPEAXP6AX0@Z0H@Z 0000000180018548 f i libvcruntime:frame.obj
 0001:00017558       __AdjustPointer            0000000180018558 f   libvcruntime:frame.obj
 0001:0001757c       __BuildCatchObject         000000018001857c f   libvcruntime:frame.obj
 0001:00017644       __BuildCatchObjectHelper   0000000180018644 f   libvcruntime:frame.obj
 0001:00017828       __CxxCallCatchBlock        0000000180018828 f   libvcruntime:frame.obj
 0001:00017a14       __FrameUnwindFilter        0000000180018a14 f   libvcruntime:frame.obj
 0001:00017a60       __FrameUnwindToState       0000000180018a60 f   libvcruntime:frame.obj
 0001:00017bf4       __InternalCxxFrameHandler  0000000180018bf4 f   libvcruntime:frame.obj
 0001:00017e4c       __TypeMatch                0000000180018e4c f   libvcruntime:frame.obj
 0001:00017f8c       __std_terminate            0000000180018f8c f   libvcruntime:frame.obj
 0001:00017f98       strstr                     0000000180018f98 f   libvcruntime:strstr.obj
 0001:00018178       __std_exception_copy       0000000180019178 f   libvcruntime:std_exception.obj
 0001:00018208       __std_exception_destroy    0000000180019208 f   libvcruntime:std_exception.obj
 0001:00018230       _CxxThrowException         0000000180019230 f   libvcruntime:throw.obj
 0001:00018308       __C_specific_handler       0000000180019308 f   libvcruntime:_chandler_.obj
 0001:000184f8       __vcrt_initialize          00000001800194f8 f   libvcruntime:initialization.obj
 0001:00018530       __vcrt_thread_attach       0000000180019530 f   libvcruntime:initialization.obj
 0001:00018544       __vcrt_thread_detach       0000000180019544 f   libvcruntime:initialization.obj
 0001:00018558       __vcrt_uninitialize        0000000180019558 f   libvcruntime:initialization.obj
 0001:00018584       __vcrt_uninitialize_critical 0000000180019584 f   libvcruntime:initialization.obj
 0001:00018598       __telemetry_main_invoke_trigger 0000000180019598 f   libvcruntime:telemetry.obj
 0001:000186b0       __telemetry_main_return_trigger 00000001800196b0 f   libvcruntime:telemetry.obj
 0001:000187c8       __vcrt_initialize_telemetry_provider 00000001800197c8 f   libvcruntime:telemetry.obj
 0001:000187dc       __vcrt_uninitialize_telemetry_provider 00000001800197dc f   libvcruntime:telemetry.obj
 0001:00018810       memset                     0000000180019810 f   libvcruntime:memset.obj
 0001:000189b0       __std_type_info_compare    00000001800199b0 f   libvcruntime:std_type_info.obj
 0001:000189d8       __std_type_info_destroy_list 00000001800199d8 f   libvcruntime:std_type_info.obj
 0001:00018a10       __vcrt_initialize_pure_virtual_call_handler 0000000180019a10 f   libvcruntime:purevirt_data.obj
 0001:00018a50       memcpy                     0000000180019a50 f   libvcruntime:memcpy.obj
 0001:00018a50       memmove                    0000000180019a50 f   libvcruntime:memcpy.obj
 0001:00018e88       __vcrt_freefls             0000000180019e88 f   libvcruntime:per_thread_data.obj
 0001:00018ea8       __vcrt_freeptd             0000000180019ea8 f   libvcruntime:per_thread_data.obj
 0001:00018ef8       __vcrt_getptd              0000000180019ef8 f   libvcruntime:per_thread_data.obj
 0001:00018f14       __vcrt_getptd_noexit       0000000180019f14 f   libvcruntime:per_thread_data.obj
 0001:00018fbc       __vcrt_initialize_ptd      0000000180019fbc f   libvcruntime:per_thread_data.obj
 0001:00018ffc       __vcrt_uninitialize_ptd    0000000180019ffc f   libvcruntime:per_thread_data.obj
 0001:00019020       ?__GetCurrentState@@YAHPEA_KPEAU_xDISPATCHER_CONTEXT@@PEBU_s_FuncInfo@@@Z 000000018001a020 f   libvcruntime:ehstate.obj
 0001:00019048       ?__GetUnwindTryBlock@@YAHPEA_KPEAU_xDISPATCHER_CONTEXT@@PEBU_s_FuncInfo@@@Z 000000018001a048 f   libvcruntime:ehstate.obj
 0001:00019074       ?__SetState@@YAXPEA_KPEAU_xDISPATCHER_CONTEXT@@PEBU_s_FuncInfo@@H@Z 000000018001a074 f   libvcruntime:ehstate.obj
 0001:00019080       ?__SetUnwindTryBlock@@YAXPEA_KPEAU_xDISPATCHER_CONTEXT@@PEBU_s_FuncInfo@@H@Z 000000018001a080 f   libvcruntime:ehstate.obj
 0001:000190bc       ?__StateFromControlPc@@YAHPEBU_s_FuncInfo@@PEAU_xDISPATCHER_CONTEXT@@@Z 000000018001a0bc f   libvcruntime:ehstate.obj
 0001:000190c4       ?__StateFromIp@@YAHPEBU_s_FuncInfo@@PEAU_xDISPATCHER_CONTEXT@@_J@Z 000000018001a0c4 f   libvcruntime:ehstate.obj
 0001:00019140       _CallSettingFrame          000000018001a140 f   libvcruntime:handlers.obj
 0001:00019180       ?_GetEstablisherFrame@@YAPEA_KPEA_KPEAU_xDISPATCHER_CONTEXT@@PEBU_s_FuncInfo@@0@Z 000000018001a180 f   libvcruntime:trnsctrl.obj
 0001:0001924c       ?_GetRangeOfTrysToCheck@@YAPEBU_s_TryBlockMapEntry@@PEA_KPEBU_s_FuncInfo@@HHPEAI2PEAU_xDISPATCHER_CONTEXT@@@Z 000000018001a24c f   libvcruntime:trnsctrl.obj
 0001:00019378       ?__FrameUnwindToEmptyState@@YAXPEA_KPEAU_xDISPATCHER_CONTEXT@@PEBU_s_FuncInfo@@@Z 000000018001a378 f   libvcruntime:trnsctrl.obj
 0001:0001940c       ?__SehTransFilter@@YAHPEAU_EXCEPTION_POINTERS@@PEAUEHExceptionRecord@@PEA_KPEAU_CONTEXT@@PEAU_xDISPATCHER_CONTEXT@@PEBU_s_FuncInfo@@PEAH@Z 000000018001a40c f   libvcruntime:trnsctrl.obj
 0001:000194a4       _CallSETranslator          000000018001a4a4 f   libvcruntime:trnsctrl.obj
 0001:000194fc       _CreateFrameInfo           000000018001a4fc f   libvcruntime:trnsctrl.obj
 0001:00019538       _FindAndUnlinkFrame        000000018001a538 f   libvcruntime:trnsctrl.obj
 0001:00019590       _GetImageBase              000000018001a590 f   libvcruntime:trnsctrl.obj
 0001:000195a4       _GetThrowImageBase         000000018001a5a4 f   libvcruntime:trnsctrl.obj
 0001:000195b8       _IsExceptionObjectToBeDestroyed 000000018001a5b8 f   libvcruntime:trnsctrl.obj
 0001:000195e8       _SetImageBase              000000018001a5e8 f   libvcruntime:trnsctrl.obj
 0001:00019600       _SetThrowImageBase         000000018001a600 f   libvcruntime:trnsctrl.obj
 0001:00019618       _UnwindNestedFrames        000000018001a618 f   libvcruntime:trnsctrl.obj
 0001:0001973c       __CxxFrameHandler3         000000018001a73c f   libvcruntime:trnsctrl.obj
 0001:000197d0       _local_unwind              000000018001a7d0 f   libvcruntime:_jmpuwind_.obj
 0001:00019800       _NLG_Notify                000000018001a800 f   libvcruntime:_jmpuwind_.obj
 0001:00019820       __NLG_Dispatch2            000000018001a820 f   libvcruntime:_jmpuwind_.obj
 0001:00019830       __NLG_Return2              000000018001a830 f   libvcruntime:_jmpuwind_.obj
 0001:00019834       __vcrt_initialize_locks    000000018001a834 f   libvcruntime:locks.obj
 0001:0001987c       __vcrt_uninitialize_locks  000000018001a87c f   libvcruntime:locks.obj
 0001:00019a7c       __vcrt_EventRegister       000000018001aa7c f   libvcruntime:winapi_downlevel.obj
 0001:00019b00       __vcrt_EventSetInformation 000000018001ab00 f   libvcruntime:winapi_downlevel.obj
 0001:00019b84       __vcrt_EventUnregister     000000018001ab84 f   libvcruntime:winapi_downlevel.obj
 0001:00019bd8       __vcrt_EventWriteTransfer  000000018001abd8 f   libvcruntime:winapi_downlevel.obj
 0001:00019c70       __vcrt_FlsAlloc            000000018001ac70 f   libvcruntime:winapi_downlevel.obj
 0001:00019cc4       __vcrt_FlsFree             000000018001acc4 f   libvcruntime:winapi_downlevel.obj
 0001:00019d18       __vcrt_FlsGetValue         000000018001ad18 f   libvcruntime:winapi_downlevel.obj
 0001:00019d6c       __vcrt_FlsSetValue         000000018001ad6c f   libvcruntime:winapi_downlevel.obj
 0001:00019dd4       __vcrt_InitializeCriticalSectionEx 000000018001add4 f   libvcruntime:winapi_downlevel.obj
 0001:00019e4c       __vcrt_initialize_winapi_thunks 000000018001ae4c f   libvcruntime:winapi_downlevel.obj
 0001:00019e84       __vcrt_uninitialize_winapi_thunks 000000018001ae84 f   libvcruntime:winapi_downlevel.obj
 0001:00019ec4       realloc                    000000018001aec4 f   libucrt:realloc.obj
 0001:00019ecc       free                       000000018001aecc f   libucrt:free.obj
 0001:0001a8bc       ??$ftprintf@PEAU_iobuf@@PEB_WAEBQEB_WAEBQEB_WAEBI@?$__crt_char_traits@_W@@SAH$$QEAPEAU_iobuf@@$$QEAPEB_WAEBQEB_W2AEBI@Z 000000018001b8bc f i libucrt:assert.obj
 0001:0001a8e4       _wassert                   000000018001b8e4 f   libucrt:assert.obj
 0001:0001a968       fwprintf                   000000018001b968 f i libucrt:assert.obj
 0001:0001a9ac       swprintf                   000000018001b9ac f i libucrt:assert.obj
 0001:0001aa00       malloc                     000000018001ba00 f   libucrt:malloc.obj
 0001:0001aa08       _isnan                     000000018001ba08 f   libucrt:ieeemisc.obj
 0001:0001aa34       _finite                    000000018001ba34 f   libucrt:_finite.obj
 0001:0001aa60       __acrt_call_reportfault    000000018001ba60 f   libucrt:invalid_parameter.obj
 0001:0001abbc       __acrt_initialize_invalid_parameter_handler 000000018001bbbc f   libucrt:invalid_parameter.obj
 0001:0001abc4       _invalid_parameter         000000018001bbc4 f   libucrt:invalid_parameter.obj
 0001:0001ac6c       _invalid_parameter_noinfo  000000018001bc6c f   libucrt:invalid_parameter.obj
 0001:0001ac8c       _invalid_parameter_noinfo_noreturn 000000018001bc8c f   libucrt:invalid_parameter.obj
 0001:0001acbc       _invoke_watson             000000018001bcbc f   libucrt:invalid_parameter.obj
 0001:0001ad04       __acrt_initialize_stdio    000000018001bd04 f   libucrt:_file.obj
 0001:0001ae24       __acrt_iob_func            000000018001be24 f   libucrt:_file.obj
 0001:0001ae38       __acrt_uninitialize_stdio  000000018001be38 f   libucrt:_file.obj
 0001:0001ae94       _lock_file                 000000018001be94 f   libucrt:_file.obj
 0001:0001aea0       _unlock_file               000000018001bea0 f   libucrt:_file.obj
 0001:0001aeac       ??$?RV<lambda_7b91131dde12e1c3dfc74ff76b3f2eac>@@AEAV<lambda_dd75445284c072d0bd3768540cc698fa>@@V<lambda_16bc4ecb55b4718497c16bceaea2ceaf>@@@?$__crt_seh_guarded_call@H@@QEAAH$$QEAV<lambda_7b91131dde12e1c3dfc74ff76b3f2eac>@@AEAV<lambda_dd75445284c072d0bd3768540cc698fa>@@$$QEAV<lambda_16bc4ecb55b4718497c16bceaea2ceaf>@@@Z 000000018001beac f i libucrt:output.obj
 0001:0001aeec       ??$ensure_buffer_is_big_enough@D@formatting_buffer@__crt_stdio_output@@QEAA_N_K@Z 000000018001beec f i libucrt:output.obj
 0001:0001af98       ??$is_wide_character_specifier@D@__crt_stdio_output@@YA_N_KDW4length_modifier@0@@Z 000000018001bf98 f i libucrt:output.obj
 0001:0001afc8       ??$is_wide_character_specifier@_W@__crt_stdio_output@@YA_N_K_WW4length_modifier@0@@Z 000000018001bfc8 f i libucrt:output.obj
 0001:0001b00c       ??$type_case_integer_parse_into_buffer@I@?$output_processor@DV?$string_output_adapter@D@__crt_stdio_output@@V?$standard_base@DV?$string_output_adapter@D@__crt_stdio_output@@@2@@__crt_stdio_output@@AEAAXII_N@Z 000000018001c00c f i libucrt:output.obj
 0001:0001b00c       ??$type_case_integer_parse_into_buffer@I@?$output_processor@_WV?$string_output_adapter@_W@__crt_stdio_output@@V?$standard_base@_WV?$string_output_adapter@_W@__crt_stdio_output@@@2@@__crt_stdio_output@@AEAAXII_N@Z 000000018001c00c f i libucrt:output.obj
 0001:0001b00c       ??$type_case_integer_parse_into_buffer@I@?$output_processor@_WV?$stream_output_adapter@_W@__crt_stdio_output@@V?$standard_base@_WV?$stream_output_adapter@_W@__crt_stdio_output@@@2@@__crt_stdio_output@@AEAAXII_N@Z 000000018001c00c f i libucrt:output.obj
 0001:0001b0a8       ??$type_case_integer_parse_into_buffer@_K@?$output_processor@_WV?$string_output_adapter@_W@__crt_stdio_output@@V?$standard_base@_WV?$string_output_adapter@_W@__crt_stdio_output@@@2@@__crt_stdio_output@@AEAAX_KI_N@Z 000000018001c0a8 f i libucrt:output.obj
 0001:0001b0a8       ??$type_case_integer_parse_into_buffer@_K@?$output_processor@DV?$string_output_adapter@D@__crt_stdio_output@@V?$standard_base@DV?$string_output_adapter@D@__crt_stdio_output@@@2@@__crt_stdio_output@@AEAAX_KI_N@Z 000000018001c0a8 f i libucrt:output.obj
 0001:0001b0a8       ??$type_case_integer_parse_into_buffer@_K@?$output_processor@_WV?$stream_output_adapter@_W@__crt_stdio_output@@V?$standard_base@_WV?$stream_output_adapter@_W@__crt_stdio_output@@@2@@__crt_stdio_output@@AEAAX_KI_N@Z 000000018001c0a8 f i libucrt:output.obj
 0001:0001b144       ??$write_multiple_characters@V?$stream_output_adapter@_W@__crt_stdio_output@@D@__crt_stdio_output@@YAXAEBV?$stream_output_adapter@_W@0@DHQEAH@Z 000000018001c144 f i libucrt:output.obj
 0001:0001b1d4       ??$write_multiple_characters@V?$string_output_adapter@D@__crt_stdio_output@@D@__crt_stdio_output@@YAXAEBV?$string_output_adapter@D@0@DHQEAH@Z 000000018001c1d4 f i libucrt:output.obj
 0001:0001b230       ??$write_multiple_characters@V?$string_output_adapter@_W@__crt_stdio_output@@D@__crt_stdio_output@@YAXAEBV?$string_output_adapter@_W@0@DHQEAH@Z 000000018001c230 f i libucrt:output.obj
 0001:0001b2a0       ??0?$output_processor@DV?$string_output_adapter@D@__crt_stdio_output@@V?$standard_base@DV?$string_output_adapter@D@__crt_stdio_output@@@2@@__crt_stdio_output@@QEAA@AEBV?$string_output_adapter@D@1@_KQEBDQEAU__crt_locale_pointers@@QEAD@Z 000000018001c2a0 f i libucrt:output.obj
 0001:0001b31c       ??0?$output_processor@_WV?$string_output_adapter@_W@__crt_stdio_output@@V?$standard_base@_WV?$string_output_adapter@_W@__crt_stdio_output@@@2@@__crt_stdio_output@@QEAA@AEBV?$string_output_adapter@_W@1@_KQEB_WQEAU__crt_locale_pointers@@QEAD@Z 000000018001c31c f i libucrt:output.obj
 0001:0001b31c       ??0?$output_processor@_WV?$stream_output_adapter@_W@__crt_stdio_output@@V?$standard_base@_WV?$stream_output_adapter@_W@__crt_stdio_output@@@2@@__crt_stdio_output@@QEAA@AEBV?$stream_output_adapter@_W@1@_KQEB_WQEAU__crt_locale_pointers@@QEAD@Z 000000018001c31c f i libucrt:output.obj
 0001:0001b39c       ??0_LocaleUpdate@@QEAA@QEAU__crt_locale_pointers@@@Z 000000018001c39c f i libucrt:output.obj
 0001:0001b51c       ?force_decimal_point@__crt_stdio_output@@YAXPEADQEAU__crt_locale_pointers@@@Z 000000018001c51c f i libucrt:output.obj
 0001:0001b58c       ?parse_int_from_format_string@?$output_processor@DV?$string_output_adapter@D@__crt_stdio_output@@V?$standard_base@DV?$string_output_adapter@D@__crt_stdio_output@@@2@@__crt_stdio_output@@AEAA_NQEAH@Z 000000018001c58c f i libucrt:output.obj
 0001:0001b610       ?parse_int_from_format_string@?$output_processor@_WV?$string_output_adapter@_W@__crt_stdio_output@@V?$standard_base@_WV?$string_output_adapter@_W@__crt_stdio_output@@@2@@__crt_stdio_output@@AEAA_NQEAH@Z 000000018001c610 f i libucrt:output.obj
 0001:0001b610       ?parse_int_from_format_string@?$output_processor@_WV?$stream_output_adapter@_W@__crt_stdio_output@@V?$standard_base@_WV?$stream_output_adapter@_W@__crt_stdio_output@@@2@@__crt_stdio_output@@AEAA_NQEAH@Z 000000018001c610 f i libucrt:output.obj
 0001:0001b690       ?process@?$output_processor@DV?$string_output_adapter@D@__crt_stdio_output@@V?$standard_base@DV?$string_output_adapter@D@__crt_stdio_output@@@2@@__crt_stdio_output@@QEAAHXZ 000000018001c690 f i libucrt:output.obj
 0001:0001b894       ?process@?$output_processor@_WV?$stream_output_adapter@_W@__crt_stdio_output@@V?$standard_base@_WV?$stream_output_adapter@_W@__crt_stdio_output@@@2@@__crt_stdio_output@@QEAAHXZ 000000018001c894 f i libucrt:output.obj
 0001:0001bb0c       ?process@?$output_processor@_WV?$string_output_adapter@_W@__crt_stdio_output@@V?$standard_base@_WV?$string_output_adapter@_W@__crt_stdio_output@@@2@@__crt_stdio_output@@QEAAHXZ 000000018001cb0c f i libucrt:output.obj
 0001:0001bd88       ?state_case_normal@?$output_processor@DV?$string_output_adapter@D@__crt_stdio_output@@V?$standard_base@DV?$string_output_adapter@D@__crt_stdio_output@@@2@@__crt_stdio_output@@AEAA_NXZ 000000018001cd88 f i libucrt:output.obj
 0001:0001bdfc       ?state_case_normal_tchar@?$output_processor@DV?$string_output_adapter@D@__crt_stdio_output@@V?$standard_base@DV?$string_output_adapter@D@__crt_stdio_output@@@2@@__crt_stdio_output@@AEAA_ND@Z 000000018001cdfc f i libucrt:output.obj
 0001:0001be94       ?state_case_size@?$output_processor@DV?$string_output_adapter@D@__crt_stdio_output@@V?$standard_base@DV?$string_output_adapter@D@__crt_stdio_output@@@2@@__crt_stdio_output@@AEAA_NXZ 000000018001ce94 f i libucrt:output.obj
 0001:0001c010       ?state_case_size@?$output_processor@_WV?$stream_output_adapter@_W@__crt_stdio_output@@V?$standard_base@_WV?$stream_output_adapter@_W@__crt_stdio_output@@@2@@__crt_stdio_output@@AEAA_NXZ 000000018001d010 f i libucrt:output.obj
 0001:0001c1b4       ?state_case_size@?$output_processor@_WV?$string_output_adapter@_W@__crt_stdio_output@@V?$standard_base@_WV?$string_output_adapter@_W@__crt_stdio_output@@@2@@__crt_stdio_output@@AEAA_NXZ 000000018001d1b4 f i libucrt:output.obj
 0001:0001c358       ?state_case_type@?$output_processor@DV?$string_output_adapter@D@__crt_stdio_output@@V?$standard_base@DV?$string_output_adapter@D@__crt_stdio_output@@@2@@__crt_stdio_output@@AEAA_NXZ 000000018001d358 f i libucrt:output.obj
 0001:0001c5d4       ?state_case_type@?$output_processor@_WV?$stream_output_adapter@_W@__crt_stdio_output@@V?$standard_base@_WV?$stream_output_adapter@_W@__crt_stdio_output@@@2@@__crt_stdio_output@@AEAA_NXZ 000000018001d5d4 f i libucrt:output.obj
 0001:0001c8a0       ?state_case_type@?$output_processor@_WV?$string_output_adapter@_W@__crt_stdio_output@@V?$standard_base@_WV?$string_output_adapter@_W@__crt_stdio_output@@@2@@__crt_stdio_output@@AEAA_NXZ 000000018001d8a0 f i libucrt:output.obj
 0001:0001cb6c       ?type_case_Z@?$output_processor@DV?$string_output_adapter@D@__crt_stdio_output@@V?$standard_base@DV?$string_output_adapter@D@__crt_stdio_output@@@2@@__crt_stdio_output@@AEAA_NXZ 000000018001db6c f i libucrt:output.obj
 0001:0001cbec       ?type_case_Z@?$output_processor@_WV?$stream_output_adapter@_W@__crt_stdio_output@@V?$standard_base@_WV?$stream_output_adapter@_W@__crt_stdio_output@@@2@@__crt_stdio_output@@AEAA_NXZ 000000018001dbec f i libucrt:output.obj
 0001:0001cbec       ?type_case_Z@?$output_processor@_WV?$string_output_adapter@_W@__crt_stdio_output@@V?$standard_base@_WV?$string_output_adapter@_W@__crt_stdio_output@@@2@@__crt_stdio_output@@AEAA_NXZ 000000018001dbec f i libucrt:output.obj
 0001:0001cc6c       ?type_case_a@?$output_processor@DV?$string_output_adapter@D@__crt_stdio_output@@V?$standard_base@DV?$string_output_adapter@D@__crt_stdio_output@@@2@@__crt_stdio_output@@AEAA_NXZ 000000018001dc6c f i libucrt:output.obj
 0001:0001ce88       ?type_case_a@?$output_processor@_WV?$string_output_adapter@_W@__crt_stdio_output@@V?$standard_base@_WV?$string_output_adapter@_W@__crt_stdio_output@@@2@@__crt_stdio_output@@AEAA_NXZ 000000018001de88 f i libucrt:output.obj
 0001:0001ce88       ?type_case_a@?$output_processor@_WV?$stream_output_adapter@_W@__crt_stdio_output@@V?$standard_base@_WV?$stream_output_adapter@_W@__crt_stdio_output@@@2@@__crt_stdio_output@@AEAA_NXZ 000000018001de88 f i libucrt:output.obj
 0001:0001d0cc       ?type_case_c_tchar@?$output_processor@DV?$string_output_adapter@D@__crt_stdio_output@@V?$standard_base@DV?$string_output_adapter@D@__crt_stdio_output@@@2@@__crt_stdio_output@@AEAA_ND@Z 000000018001e0cc f i libucrt:output.obj
 0001:0001d180       ?type_case_c_tchar@?$output_processor@_WV?$stream_output_adapter@_W@__crt_stdio_output@@V?$standard_base@_WV?$stream_output_adapter@_W@__crt_stdio_output@@@2@@__crt_stdio_output@@AEAA_N_W@Z 000000018001e180 f i libucrt:output.obj
 0001:0001d180       ?type_case_c_tchar@?$output_processor@_WV?$string_output_adapter@_W@__crt_stdio_output@@V?$standard_base@_WV?$string_output_adapter@_W@__crt_stdio_output@@@2@@__crt_stdio_output@@AEAA_N_W@Z 000000018001e180 f i libucrt:output.obj
 0001:0001d228       ?type_case_integer@?$output_processor@_WV?$stream_output_adapter@_W@__crt_stdio_output@@V?$standard_base@_WV?$stream_output_adapter@_W@__crt_stdio_output@@@2@@__crt_stdio_output@@AEAA_NI_N@Z 000000018001e228 f i libucrt:output.obj
 0001:0001d228       ?type_case_integer@?$output_processor@DV?$string_output_adapter@D@__crt_stdio_output@@V?$standard_base@DV?$string_output_adapter@D@__crt_stdio_output@@@2@@__crt_stdio_output@@AEAA_NI_N@Z 000000018001e228 f i libucrt:output.obj
 0001:0001d228       ?type_case_integer@?$output_processor@_WV?$string_output_adapter@_W@__crt_stdio_output@@V?$standard_base@_WV?$string_output_adapter@_W@__crt_stdio_output@@@2@@__crt_stdio_output@@AEAA_NI_N@Z 000000018001e228 f i libucrt:output.obj
 0001:0001d3c8       ?type_case_n@?$output_processor@DV?$string_output_adapter@D@__crt_stdio_output@@V?$standard_base@DV?$string_output_adapter@D@__crt_stdio_output@@@2@@__crt_stdio_output@@AEAA_NXZ 000000018001e3c8 f i libucrt:output.obj
 0001:0001d3c8       ?type_case_n@?$output_processor@_WV?$stream_output_adapter@_W@__crt_stdio_output@@V?$standard_base@_WV?$stream_output_adapter@_W@__crt_stdio_output@@@2@@__crt_stdio_output@@AEAA_NXZ 000000018001e3c8 f i libucrt:output.obj
 0001:0001d3c8       ?type_case_n@?$output_processor@_WV?$string_output_adapter@_W@__crt_stdio_output@@V?$standard_base@_WV?$string_output_adapter@_W@__crt_stdio_output@@@2@@__crt_stdio_output@@AEAA_NXZ 000000018001e3c8 f i libucrt:output.obj
 0001:0001d4a4       ?type_case_s@?$output_processor@DV?$string_output_adapter@D@__crt_stdio_output@@V?$standard_base@DV?$string_output_adapter@D@__crt_stdio_output@@@2@@__crt_stdio_output@@AEAA_NXZ 000000018001e4a4 f i libucrt:output.obj
 0001:0001d534       ?type_case_s@?$output_processor@_WV?$string_output_adapter@_W@__crt_stdio_output@@V?$standard_base@_WV?$string_output_adapter@_W@__crt_stdio_output@@@2@@__crt_stdio_output@@AEAA_NXZ 000000018001e534 f i libucrt:output.obj
 0001:0001d534       ?type_case_s@?$output_processor@_WV?$stream_output_adapter@_W@__crt_stdio_output@@V?$standard_base@_WV?$stream_output_adapter@_W@__crt_stdio_output@@@2@@__crt_stdio_output@@AEAA_NXZ 000000018001e534 f i libucrt:output.obj
 0001:0001d5fc       ?write_stored_string_tchar@?$output_processor@DV?$string_output_adapter@D@__crt_stdio_output@@V?$standard_base@DV?$string_output_adapter@D@__crt_stdio_output@@@2@@__crt_stdio_output@@AEAA_ND@Z 000000018001e5fc f i libucrt:output.obj
 0001:0001d6d4       ?write_stored_string_tchar@?$output_processor@_WV?$stream_output_adapter@_W@__crt_stdio_output@@V?$standard_base@_WV?$stream_output_adapter@_W@__crt_stdio_output@@@2@@__crt_stdio_output@@AEAA_N_W@Z 000000018001e6d4 f i libucrt:output.obj
 0001:0001d7c0       ?write_stored_string_tchar@?$output_processor@_WV?$string_output_adapter@_W@__crt_stdio_output@@V?$standard_base@_WV?$string_output_adapter@_W@__crt_stdio_output@@@2@@__crt_stdio_output@@AEAA_N_W@Z 000000018001e7c0 f i libucrt:output.obj
 0001:0001d8b0       ?write_string@?$stream_output_adapter@_W@__crt_stdio_output@@QEBAXQEB_WHQEAH1@Z 000000018001e8b0 f i libucrt:output.obj
 0001:0001d9bc       ?write_string@?$string_output_adapter@D@__crt_stdio_output@@QEBAXQEBDHQEAH1@Z 000000018001e9bc f i libucrt:output.obj
 0001:0001da78       ?write_string@?$string_output_adapter@_W@__crt_stdio_output@@QEBAXQEB_WHQEAH1@Z 000000018001ea78 f i libucrt:output.obj
 0001:0001db38       __stdio_common_vfwprintf   000000018001eb38 f   libucrt:output.obj
 0001:0001dbc4       __stdio_common_vsprintf    000000018001ebc4 f   libucrt:output.obj
 0001:0001ddf8       __stdio_common_vswprintf   000000018001edf8 f   libucrt:output.obj
 0001:0001e100       fopen                      000000018001f100 f   libucrt:fopen.obj
 0001:0001e10c       _fclose_nolock             000000018001f10c f   libucrt:fclose.obj
 0001:0001e190       fclose                     000000018001f190 f   libucrt:fclose.obj
 0001:0001e470       fseek                      000000018001f470 f   libucrt:fseek.obj
 0001:0001e478       _fread_nolock_s            000000018001f478 f   libucrt:fread.obj
 0001:0001e6f8       fread                      000000018001f6f8 f   libucrt:fread.obj
 0001:0001e718       fread_s                    000000018001f718 f   libucrt:fread.obj
 0001:0001e7c0       __ascii_stricmp            000000018001f7c0 f   libucrt:stricmp.obj
 0001:0001e7fc       _stricmp                   000000018001f7fc f   libucrt:stricmp.obj
 0001:0001e844       _stricmp_l                 000000018001f844 f   libucrt:stricmp.obj
 0001:0001e8f8       __acrt_initialize_new_handler 000000018001f8f8 f   libucrt:new_handler.obj
 0001:0001e900       _callnewh                  000000018001f900 f   libucrt:new_handler.obj
 0001:0001e940       _query_new_handler         000000018001f940 f   libucrt:new_handler.obj
 0001:0001e974       terminate                  000000018001f974 f   libucrt:terminate.obj
 0001:0001e99c       _seh_filter_dll            000000018001f99c f   libucrt:exception_filter.obj
 0001:0001e9b0       _seh_filter_exe            000000018001f9b0 f   libucrt:exception_filter.obj
 0001:0001ed70       __acrt_initialize_thread_local_exit_callback 000000018001fd70 f   libucrt:exit.obj
 0001:0001ed78       _cexit                     000000018001fd78 f   libucrt:exit.obj
 0001:0001ed88       _exit                      000000018001fd88 f   libucrt:exit.obj
 0001:0001ed94       _is_c_termination_complete 000000018001fd94 f   libucrt:exit.obj
 0001:0001ef80       __dcrt_uninitialize_environments_nolock 000000018001ff80 f   libucrt:environment_initialization.obj
 0001:0001efb8       _initialize_narrow_environment 000000018001ffb8 f   libucrt:environment_initialization.obj
 0001:0001efc0       ??$?RV<lambda_b8c45f8f788dd370798f47cfe8ac3a86>@@AEAV<lambda_4e60a939b0d047cfe11ddc22648dfba9>@@V<lambda_332c3edc96d0294ec56c57d38c1cdfd5>@@@?$__crt_seh_guarded_call@H@@QEAAH$$QEAV<lambda_b8c45f8f788dd370798f47cfe8ac3a86>@@AEAV<lambda_4e60a939b0d047cfe11ddc22648dfba9>@@$$QEAV<lambda_332c3edc96d0294ec56c57d38c1cdfd5>@@@Z 000000018001ffc0 f i libucrt:onexit.obj
 0001:0001effc       ??$?RV<lambda_e24bbb7b643b32fcea6fa61b31d4c984>@@AEAV<lambda_275893d493268fdec8709772e3fcec0e>@@V<lambda_9d71df4d7cf3f480f8d633942495c3b0>@@@?$__crt_seh_guarded_call@H@@QEAAH$$QEAV<lambda_e24bbb7b643b32fcea6fa61b31d4c984>@@AEAV<lambda_275893d493268fdec8709772e3fcec0e>@@$$QEAV<lambda_9d71df4d7cf3f480f8d633942495c3b0>@@@Z 000000018001fffc f i libucrt:onexit.obj
 0001:0001f378       _crt_atexit                0000000180020378 f   libucrt:onexit.obj
 0001:0001f388       _execute_onexit_table      0000000180020388 f   libucrt:onexit.obj
 0001:0001f3c4       _initialize_onexit_table   00000001800203c4 f   libucrt:onexit.obj
 0001:0001f404       _register_onexit_function  0000000180020404 f   libucrt:onexit.obj
 0001:0001f484       __acrt_uninitialize_command_line 0000000180020484 f   libucrt:argv_data.obj
 0001:0001f584       __acrt_initialize          0000000180020584 f   libucrt:initialization.obj
 0001:0001f598       __acrt_thread_attach       0000000180020598 f   libucrt:initialization.obj
 0001:0001f5ac       __acrt_thread_detach       00000001800205ac f   libucrt:initialization.obj
 0001:0001f5bc       __acrt_uninitialize        00000001800205bc f   libucrt:initialization.obj
 0001:0001f5d0       __acrt_uninitialize_critical 00000001800205d0 f   libucrt:initialization.obj
 0001:0001f5e0       _initterm                  00000001800205e0 f   libucrt:initterm.obj
 0001:0001f658       _initterm_e                0000000180020658 f   libucrt:initterm.obj
 0001:0001f6a4       _strdup                    00000001800206a4 f   libucrt:strdup.obj
 0001:0001f6a4       strdup                     00000001800206a4 f   libucrt:strdup.obj
 0001:0001f71c       abort                      000000018002071c f   libucrt:abort.obj
 0001:0001f774       strcpy_s                   0000000180020774 f   libucrt:strcpy_s.obj
 0001:0001f7d4       _free_base                 00000001800207d4 f   libucrt:free_base.obj
 0001:0001f814       _malloc_base               0000000180020814 f   libucrt:malloc_base.obj
 0001:0001f874       _calloc_base               0000000180020874 f   libucrt:calloc_base.obj
 0001:0001f8ec       ??$is_overflow_condition@K@__crt_strtox@@YA_NIK@Z 00000001800208ec f i libucrt:atox.obj
 0001:0001f918       ??$parse_integer@KV?$c_string_character_source@D@__crt_strtox@@@__crt_strtox@@YAKQEAU__crt_locale_pointers@@V?$c_string_character_source@D@0@H_N@Z 0000000180020918 f i libucrt:atox.obj
 0001:0001fc2c       ??$parse_integer@KV?$c_string_character_source@_W@__crt_strtox@@@__crt_strtox@@YAKQEAU__crt_locale_pointers@@V?$c_string_character_source@_W@0@H_N@Z 0000000180020c2c f i libucrt:atox.obj
 0001:00020300       _realloc_base              0000000180021300 f   libucrt:realloc_base.obj
 0001:00020384       _query_app_type            0000000180021384 f   libucrt:report_runtime_error.obj
 0001:0002038c       __acrt_errno_from_os_error 000000018002138c f   libucrt:errno.obj
 0001:000203d4       __acrt_errno_map_os_error  00000001800213d4 f   libucrt:errno.obj
 0001:00020424       __doserrno                 0000000180021424 f   libucrt:errno.obj
 0001:00020444       _errno                     0000000180021444 f   libucrt:errno.obj
 0001:0002058c       _itow_s                    000000018002158c f   libucrt:xtoa.obj
 0001:000205ac       _set_error_mode            00000001800215ac f   libucrt:set_error_mode.obj
 0001:000205ec       wcscat_s                   00000001800215ec f   libucrt:wcscat_s.obj
 0001:0002066c       wcscpy_s                   000000018002166c f   libucrt:wcscpy_s.obj
 0001:000206d4       wcsncat_s                  00000001800216d4 f   libucrt:wcsncat_s.obj
 0001:000207fc       __acrt_show_wide_message_box 00000001800217fc f   libucrt:crtmbox.obj
 0001:00020918       __acrt_stdio_flush_nolock  0000000180021918 f   libucrt:fflush.obj
 0001:00020990       _fflush_nolock             0000000180021990 f   libucrt:fflush.obj
 0001:000209dc       _flushall                  00000001800219dc f   libucrt:fflush.obj
 0001:00020acc       fflush                     0000000180021acc f   libucrt:fflush.obj
 0001:00020b10       ??$?RV<lambda_7a5ef57ff966f610505f1d28a3d40618>@@AEAV<lambda_b721fa326cdb32351d23dfa67958c160>@@V<lambda_5e0fb27672408a07956fe59e48ccb2aa>@@@?$__crt_seh_guarded_call@H@@QEAAH$$QEAV<lambda_7a5ef57ff966f610505f1d28a3d40618>@@AEAV<lambda_b721fa326cdb32351d23dfa67958c160>@@$$QEAV<lambda_5e0fb27672408a07956fe59e48ccb2aa>@@@Z 0000000180021b10 f i libucrt:setvbuf.obj
 0001:00020c40       setvbuf                    0000000180021c40 f   libucrt:setvbuf.obj
 0001:00020ce0       ??$?RV<lambda_c36588078e9f5dfd39652860aa6b3aaf>@@AEAV<lambda_ec61778202f4f5fc7e7711acc23c3bca>@@V<lambda_dc9d2797ccde5d239b4a0efae8ebd7db>@@@?$__crt_seh_guarded_call@P6AXH@Z@@QEAAP6AXH@Z$$QEAV<lambda_c36588078e9f5dfd39652860aa6b3aaf>@@AEAV<lambda_ec61778202f4f5fc7e7711acc23c3bca>@@$$QEAV<lambda_dc9d2797ccde5d239b4a0efae8ebd7db>@@@Z 0000000180021ce0 f i libucrt:signal.obj
 0001:00020d28       __acrt_get_sigabrt_handler 0000000180021d28 f   libucrt:signal.obj
 0001:00020d58       __acrt_initialize_signal_handlers 0000000180021d58 f   libucrt:signal.obj
 0001:00020d78       raise                      0000000180021d78 f   libucrt:signal.obj
 0001:00021138       _handle_error              0000000180022138 f   libucrt:libm_error.obj
 0001:00021260       _handle_errorf             0000000180022260 f   libucrt:libm_error.obj
 0001:00021394       _handle_nan                0000000180022394 f   libucrt:libm_error.obj
 0001:000213b0       _handle_nanf               00000001800223b0 f   libucrt:libm_error.obj
 0001:000213c0       ??$?RV<lambda_46352004c1216016012b18bd6f87e700>@@AEAV<lambda_3bd07e1a1191394380780325891bf33f>@@V<lambda_334532d3f185bcaa59b5be82d7d22bff>@@@?$__crt_seh_guarded_call@X@@QEAAX$$QEAV<lambda_46352004c1216016012b18bd6f87e700>@@AEAV<lambda_3bd07e1a1191394380780325891bf33f>@@$$QEAV<lambda_334532d3f185bcaa59b5be82d7d22bff>@@@Z 00000001800223c0 f i libucrt:per_thread_data.obj
 0001:00021420       ??$?RV<lambda_5e887d1dcbef67a5eb4283622ba103bf>@@AEAV<lambda_4466841279450cc726390878d4a41900>@@V<lambda_341c25c0346d94847f1f3c463c57e077>@@@?$__crt_seh_guarded_call@X@@QEAAX$$QEAV<lambda_5e887d1dcbef67a5eb4283622ba103bf>@@AEAV<lambda_4466841279450cc726390878d4a41900>@@$$QEAV<lambda_341c25c0346d94847f1f3c463c57e077>@@@Z 0000000180022420 f i libucrt:per_thread_data.obj
 0001:00021468       ??$?RV<lambda_72d1df2b273a38828b1ce30cbf4cdab5>@@AEAV<lambda_876a65b173b8412d3a47c70a915b0cf4>@@V<lambda_41932305e351933ebe8f8be3ed8bb5dc>@@@?$__crt_seh_guarded_call@X@@QEAAX$$QEAV<lambda_72d1df2b273a38828b1ce30cbf4cdab5>@@AEAV<lambda_876a65b173b8412d3a47c70a915b0cf4>@@$$QEAV<lambda_41932305e351933ebe8f8be3ed8bb5dc>@@@Z 0000000180022468 f i libucrt:per_thread_data.obj
 0001:000214a8       ??$?RV<lambda_fb3a7dec4e47f37f22dae91bb15c9095>@@AEAV<lambda_698284760c8add0bfb0756c19673e34b>@@V<lambda_dfb8eca1e75fef3034a8fb18dd509707>@@@?$__crt_seh_guarded_call@X@@QEAAX$$QEAV<lambda_fb3a7dec4e47f37f22dae91bb15c9095>@@AEAV<lambda_698284760c8add0bfb0756c19673e34b>@@$$QEAV<lambda_dfb8eca1e75fef3034a8fb18dd509707>@@@Z 00000001800224a8 f i libucrt:per_thread_data.obj
 0001:00021738       __acrt_freeptd             0000000180022738 f   libucrt:per_thread_data.obj
 0001:0002177c       __acrt_getptd              000000018002277c f   libucrt:per_thread_data.obj
 0001:00021810       __acrt_getptd_noexit       0000000180022810 f   libucrt:per_thread_data.obj
 0001:000218b0       __acrt_initialize_ptd      00000001800228b0 f   libucrt:per_thread_data.obj
 0001:000218ec       __acrt_uninitialize_ptd    00000001800228ec f   libucrt:per_thread_data.obj
 0001:00021ab0       __acrt_AreFileApisANSI     0000000180022ab0 f   libucrt:winapi_thunks.obj
 0001:00021afc       __acrt_FlsAlloc            0000000180022afc f   libucrt:winapi_thunks.obj
 0001:00021b54       __acrt_FlsFree             0000000180022b54 f   libucrt:winapi_thunks.obj
 0001:00021bac       __acrt_FlsGetValue         0000000180022bac f   libucrt:winapi_thunks.obj
 0001:00021c04       __acrt_FlsSetValue         0000000180022c04 f   libucrt:winapi_thunks.obj
 0001:00021c6c       __acrt_InitializeCriticalSectionEx 0000000180022c6c f   libucrt:winapi_thunks.obj
 0001:00021ce4       __acrt_LCMapStringEx       0000000180022ce4 f   libucrt:winapi_thunks.obj
 0001:00021dd4       __acrt_LocaleNameToLCID    0000000180022dd4 f   libucrt:winapi_thunks.obj
 0001:00021e3c       __acrt_MessageBoxW         0000000180022e3c f   libucrt:winapi_thunks.obj
 0001:00021ec4       __acrt_can_show_message_box 0000000180022ec4 f   libucrt:winapi_thunks.obj
 0001:00021f20       __acrt_get_parent_window   0000000180022f20 f   libucrt:winapi_thunks.obj
 0001:00021fb0       __acrt_initialize_winapi_thunks 0000000180022fb0 f   libucrt:winapi_thunks.obj
 0001:00021fe8       __acrt_is_interactive      0000000180022fe8 f   libucrt:winapi_thunks.obj
 0001:000220bc       __acrt_is_packaged_app     00000001800230bc f   libucrt:winapi_thunks.obj
 0001:00022144       __acrt_uninitialize_winapi_thunks 0000000180023144 f   libucrt:winapi_thunks.obj
 0001:00022188       _fcloseall                 0000000180023188 f   libucrt:closeall.obj
 0001:0002223c       __acrt_stdio_free_buffer_nolock 000000018002323c f   libucrt:_freebuf.obj
 0001:00022464       __acrt_initialize_lowio    0000000180023464 f   libucrt:ioinit.obj
 0001:000224a0       __acrt_uninitialize_lowio  00000001800234a0 f   libucrt:ioinit.obj
 0001:000224e0       isdigit                    00000001800234e0 f i libucrt:_ctype.obj
 0001:000225a4       _tolower_l                 00000001800235a4 f   libucrt:tolower_toupper.obj
 0001:000226e4       tolower                    00000001800236e4 f   libucrt:tolower_toupper.obj
 0001:00022710       ??$make_c_string_character_source@DPEAPEAD@__crt_strtox@@YA?AV?$c_string_character_source@D@0@QEBDQEAPEAD@Z 0000000180023710 f i libucrt:strtox.obj
 0001:00022710       ??$make_c_string_character_source@_WPEAPEA_W@__crt_strtox@@YA?AV?$c_string_character_source@_W@0@QEB_WQEAPEA_W@Z 0000000180023710 f i libucrt:strtox.obj
 0001:00022724       strtol                     0000000180023724 f   libucrt:strtox.obj
 0001:00022754       wcstol                     0000000180023754 f   libucrt:strtox.obj
 0001:00022784       _mbtowc_l                  0000000180023784 f   libucrt:mbtowc.obj
 0001:000228cc       mbtowc                     00000001800238cc f   libucrt:mbtowc.obj
 0001:000228d4       _wctomb_s_l                00000001800238d4 f   libucrt:wctomb.obj
 0001:00022a58       wctomb_s                   0000000180023a58 f   libucrt:wctomb.obj
 0001:00022a6c       strnlen                    0000000180023a6c f   libucrt:strnlen.obj
 0001:00022bc8       wcsnlen                    0000000180023bc8 f   libucrt:strnlen.obj
 0001:00022db8       __acrt_update_locale_info  0000000180023db8 f   libucrt:locale_update.obj
 0001:00022dec       __acrt_update_multibyte_info 0000000180023dec f   libucrt:locale_update.obj
 0001:00022e20       ?__acrt_fp_classify@@YA?AW4__acrt_fp_class@@AEBN@Z 0000000180023e20 f i libucrt:cvt.obj
 0001:00023858       __acrt_fp_format           0000000180024858 f   libucrt:cvt.obj
 0001:00023a9c       _fputwc_nolock             0000000180024a9c f   libucrt:fputwc.obj
 0001:00023c18       _fileno                    0000000180024c18 f   libucrt:fileno.obj
 0001:00023c40       _fputc_nolock              0000000180024c40 f   libucrt:fputc.obj
 0001:00023c58       _get_printf_count_output   0000000180024c58 f   libucrt:printf_count_output.obj
 0001:00023c70       __acrt_stdio_begin_temporary_buffering_nolock 0000000180024c70 f   libucrt:_sftbuf.obj
 0001:00023d40       __acrt_stdio_end_temporary_buffering_nolock 0000000180024d40 f   libucrt:_sftbuf.obj
 0001:00023d7c       __acrt_set_locale_changed  0000000180024d7c f   libucrt:wsetlocale.obj
 0001:00023d88       __acrt_uninitialize_locale 0000000180024d88 f   libucrt:wsetlocale.obj
 0001:00023dd0       ?__acrt_stdio_allocate_stream@@YA?AV__crt_stdio_stream@@XZ 0000000180024dd0 f   libucrt:stream.obj
 0001:00023e2c       ?__acrt_stdio_free_stream@@YAXV__crt_stdio_stream@@@Z 0000000180024e2c f   libucrt:stream.obj
 0001:00023f5c       ??$__acrt_stdio_parse_mode@D@@YA?AU__acrt_stdio_stream_mode@@QEBD@Z 0000000180024f5c f i libucrt:openfile.obj
 0001:000241f8       _openfile                  00000001800251f8 f   libucrt:openfile.obj
 0001:00024294       ??$?RV<lambda_bfedae4ebbf01fab1bb6dcc6a9e276e0>@@AEAV<lambda_2fe9b910cf3cbf4a0ab98a02ba45b3ec>@@V<lambda_237c231691f317818eb88cc1d5d642d6>@@@?$__crt_seh_guarded_call@H@@QEAAH$$QEAV<lambda_bfedae4ebbf01fab1bb6dcc6a9e276e0>@@AEAV<lambda_2fe9b910cf3cbf4a0ab98a02ba45b3ec>@@$$QEAV<lambda_237c231691f317818eb88cc1d5d642d6>@@@Z 0000000180025294 f i libucrt:close.obj
 0001:00024308       _close                     0000000180025308 f   libucrt:close.obj
 0001:000243ac       _close_nolock              00000001800253ac f   libucrt:close.obj
 0001:000248d0       _ftelli64_nolock           00000001800258d0 f   libucrt:ftell.obj
 0001:00024a64       _lseeki64                  0000000180025a64 f   libucrt:lseek.obj
 0001:00024a6c       _lseeki64_nolock           0000000180025a6c f   libucrt:lseek.obj
 0001:00024fa4       _read                      0000000180025fa4 f   libucrt:read.obj
 0001:000250bc       _read_nolock               00000001800260bc f   libucrt:read.obj
 0001:000256cc       __acrt_stdio_refill_and_read_narrow_nolock 00000001800266cc f   libucrt:_filbuf.obj
 0001:000256d4       __acrt_initialize_locks    00000001800266d4 f   libucrt:locks.obj
 0001:0002571c       __acrt_lock                000000018002671c f   libucrt:locks.obj
 0001:00025738       __acrt_uninitialize_locks  0000000180026738 f   libucrt:locks.obj
 0001:00025770       __acrt_unlock              0000000180026770 f   libucrt:locks.obj
 0001:0002578c       ??$?RV<lambda_99476a1ad63dd22509b5d3e65b0ffc95>@@AEAV<lambda_ad1ced32f4ac17aa236e5ef05d6b3b7c>@@V<lambda_f7424dd8d45958661754dc4f2697e9c3>@@@?$__crt_seh_guarded_call@X@@QEAAX$$QEAV<lambda_99476a1ad63dd22509b5d3e65b0ffc95>@@AEAV<lambda_ad1ced32f4ac17aa236e5ef05d6b3b7c>@@$$QEAV<lambda_f7424dd8d45958661754dc4f2697e9c3>@@@Z 000000018002678c f i libucrt:mbctype.obj
 0001:00025e88       __acrt_initialize_multibyte 0000000180026e88 f   libucrt:mbctype.obj
 0001:00025eb0       __acrt_update_thread_multibyte_data 0000000180026eb0 f   libucrt:mbctype.obj
 0001:00025f70       _setmbcp_nolock            0000000180026f70 f   libucrt:mbctype.obj
 0001:00026218       __dcrt_get_narrow_environment_from_os 0000000180027218 f   libucrt:get_environment_from_os.obj
 0001:0002631c       _recalloc                  000000018002731c f   libucrt:recalloc.obj
 0001:00026324       _recalloc_base             0000000180027324 f   libucrt:recalloc.obj
 0001:000263bc       __acrt_initialize_heap     00000001800273bc f   libucrt:heap_handle.obj
 0001:000263d8       __acrt_uninitialize_heap   00000001800273d8 f   libucrt:heap_handle.obj
 0001:000263e4       __acrt_initialize_command_line 00000001800273e4 f   libucrt:argv_data.obj
 0001:0002640c       __acrt_execute_initializers 000000018002740c f   libucrt:shared_initialization.obj
 0001:000264a0       __acrt_execute_uninitializers 00000001800274a0 f   libucrt:shared_initialization.obj
 0001:000264f0       __acrt_has_user_matherr    00000001800274f0 f   libucrt:matherr.obj
 0001:00026510       __acrt_initialize_user_matherr 0000000180027510 f   libucrt:matherr.obj
 0001:00026518       __acrt_invoke_user_matherr 0000000180027518 f   libucrt:matherr.obj
 0001:00026560       _query_new_mode            0000000180027560 f   libucrt:new_mode.obj
 0001:00026568       __pctype_func              0000000180027568 f   libucrt:ctype.obj
 0001:00026598       iswctype                   0000000180027598 f   libucrt:iswctype.obj
 0001:00026608       _isctype_l                 0000000180027608 f   libucrt:isctype.obj
 0001:00026718       ??$?RV<lambda_b521505b218e5242e90febf6bfebc422>@@AEAV<lambda_6978c1fb23f02e42e1d9e99668cc68aa>@@V<lambda_314360699dd331753a4119843814e9a7>@@@?$__crt_seh_guarded_call@H@@QEAAH$$QEAV<lambda_b521505b218e5242e90febf6bfebc422>@@AEAV<lambda_6978c1fb23f02e42e1d9e99668cc68aa>@@$$QEAV<lambda_314360699dd331753a4119843814e9a7>@@@Z 0000000180027718 f i libucrt:commit.obj
 0001:000267a4       _commit                    00000001800277a4 f   libucrt:commit.obj
 0001:00026dd8       _write                     0000000180027dd8 f   libucrt:write.obj
 0001:00026ec4       _write_nolock              0000000180027ec4 f   libucrt:write.obj
 0001:000271a8       _raise_exc                 00000001800281a8 f   libucrt:fpexcept.obj
 0001:000271d0       _raise_exc_ex              00000001800281d0 f   libucrt:fpexcept.obj
 0001:000274d8       _raise_excf                00000001800284d8 f   libucrt:fpexcept.obj
 0001:00027504       _set_errno_from_matherr    0000000180028504 f   libucrt:fpexcept.obj
 0001:00027534       _clrfp                     0000000180028534 f   libucrt:fpctrl.obj
 0001:00027554       _ctrlfp                    0000000180028554 f   libucrt:fpctrl.obj
 0001:000275d0       _set_statfp                00000001800285d0 f   libucrt:fpctrl.obj
 0001:000275f0       _statfp                    00000001800285f0 f   libucrt:fpctrl.obj
 0001:00027604       __acrt_add_locale_ref      0000000180028604 f   libucrt:locale_refcounting.obj
 0001:00027690       __acrt_free_locale         0000000180028690 f   libucrt:locale_refcounting.obj
 0001:00027808       __acrt_locale_add_lc_time_reference 0000000180028808 f   libucrt:locale_refcounting.obj
 0001:00027830       __acrt_locale_free_lc_time_if_unreferenced 0000000180028830 f   libucrt:locale_refcounting.obj
 0001:00027868       __acrt_locale_release_lc_time_reference 0000000180028868 f   libucrt:locale_refcounting.obj
 0001:00027890       __acrt_release_locale_ref  0000000180028890 f   libucrt:locale_refcounting.obj
 0001:00027938       __acrt_update_thread_locale_data 0000000180028938 f   libucrt:locale_refcounting.obj
 0001:000279a8       _updatetlocinfoEx_nolock   00000001800289a8 f   libucrt:locale_refcounting.obj
 0001:00027ad8       __acrt_DownlevelLocaleNameToLCID 0000000180028ad8 f   libucrt:lcidtoname_downlevel.obj
 0001:00027b0c       __acrt_lowio_create_handle_array 0000000180028b0c f   libucrt:osfinfo.obj
 0001:00027ba4       __acrt_lowio_destroy_handle_array 0000000180028ba4 f   libucrt:osfinfo.obj
 0001:00027bf4       __acrt_lowio_ensure_fh_exists 0000000180028bf4 f   libucrt:osfinfo.obj
 0001:00027cac       __acrt_lowio_lock_fh       0000000180028cac f   libucrt:osfinfo.obj
 0001:00027cd0       __acrt_lowio_set_os_handle 0000000180028cd0 f   libucrt:osfinfo.obj
 0001:00027d90       __acrt_lowio_unlock_fh     0000000180028d90 f   libucrt:osfinfo.obj
 0001:00027db4       _alloc_osfhnd              0000000180028db4 f   libucrt:osfinfo.obj
 0001:00027ee4       _free_osfhnd               0000000180028ee4 f   libucrt:osfinfo.obj
 0001:00027fa0       _get_osfhandle             0000000180028fa0 f   libucrt:osfinfo.obj
 0001:00028018       _isleadbyte_l              0000000180029018 f i libucrt:_wctype.obj
 0001:000283b4       __acrt_LCMapStringA        00000001800293b4 f   libucrt:lcmapstringa.obj
 0001:0002844c       __acrt_fp_strflt_to_string 000000018002944c f   libucrt:_fptostr.obj
 0001:00028510       ?divide@__crt_strtox@@YA_KAEAUbig_integer@1@AEBU21@@Z 0000000180029510 f i libucrt:cfout.obj
 0001:000289e0       __acrt_fltout              00000001800299e0 f   libucrt:cfout.obj
 0001:00029fe4       __acrt_stdio_flush_and_write_narrow_nolock 000000018002afe4 f   libucrt:_flsbuf.obj
 0001:0002a0cc       __acrt_stdio_flush_and_write_wide_nolock 000000018002b0cc f   libucrt:_flsbuf.obj
 0001:0002a1b8       _isatty                    000000018002b1b8 f   libucrt:isatty.obj
 0001:0002a218       __acrt_locale_free_monetary 000000018002b218 f   libucrt:initmon.obj
 0001:0002a324       __acrt_locale_free_numeric 000000018002b324 f   libucrt:initnum.obj
 0001:0002a3e8       __acrt_locale_free_time    000000018002b3e8 f   libucrt:inittime.obj
 0001:0002a4f0       __acrt_GetStringTypeA      000000018002b4f0 f   libucrt:getstringtypea.obj
 0001:0002a6c0       strncmp                    000000018002b6c0 f   libucrt:strncmp.obj
 0001:0002a740       __ascii_strnicmp           000000018002b740 f   libucrt:strnicmp.obj
 0001:0002a788       _strnicmp                  000000018002b788 f   libucrt:strnicmp.obj
 0001:0002a7d8       _strnicmp_l                000000018002b7d8 f   libucrt:strnicmp.obj
 0001:0002aef8       _sopen_nolock              000000018002bef8 f   libucrt:open.obj
 0001:0002af88       _sopen_s                   000000018002bf88 f   libucrt:open.obj
 0001:0002afbc       _wsopen_nolock             000000018002bfbc f   libucrt:open.obj
 0001:0002b3ac       __acrt_stdio_allocate_buffer_nolock 000000018002c3ac f   libucrt:_getbuf.obj
 0001:0002b428       _msize                     000000018002c428 f   libucrt:msize.obj
 0001:0002b464       _putwch_nolock             000000018002c464 f   libucrt:putwch.obj
 0001:0002b4d0       _get_fpsr                  000000018002c4d0 f   libucrt:fpsr.obj
 0001:0002b4e0       _set_fpsr                  000000018002c4e0 f   libucrt:fpsr.obj
 0001:0002b4ea       _fclrf                     000000018002c4ea f   libucrt:fpsr.obj
 0001:0002b4fe       _frnd                      000000018002c4fe f   libucrt:fpsr.obj
 0001:0002b520       __strncnt                  000000018002c520 f   libucrt:strncnt.obj
 0001:0002b538       fegetenv                   000000018002c538 f   libucrt:fegetenv.obj
 0001:0002b558       fesetenv                   000000018002c558 f   libucrt:fesetenv.obj
 0001:0002b5a4       feholdexcept               000000018002c5a4 f   libucrt:feholdexcept.obj
 0001:0002b5f4       ceil                       000000018002c5f4 f   libucrt:ceil.obj
 0001:0002b6c0       log10                      000000018002c6c0 f   libucrt:log10.obj
 0001:0002bc6c       _get_fmode                 000000018002cc6c f   libucrt:setmode.obj
 0001:0002bc9c       _setmode_nolock            000000018002cc9c f   libucrt:setmode.obj
 0001:0002bd7c       __acrt_copy_path_to_wide_string 000000018002cd7c f   libucrt:string_utilities.obj
 0001:0002be74       _chsize_nolock             000000018002ce74 f   libucrt:chsize.obj
 0001:0002bff0       __dcrt_lowio_initialize_console_output 000000018002cff0 f   libucrt:initcon.obj
 0001:0002c02c       __dcrt_terminate_console_output 000000018002d02c f   libucrt:initcon.obj
 0001:0002c04c       _getfpcontrolword          000000018002d04c f   libucrt:_fenvutils.obj
 0001:0002c064       _getfpstatusword           000000018002d064 f   libucrt:_fenvutils.obj
 0001:0002c078       _setfpcontrolword          000000018002d078 f   libucrt:_fenvutils.obj
 0001:0002c084       _setfpstatusword           000000018002d084 f   libucrt:_fenvutils.obj
 0001:0002c0d4       _clearfp                   000000018002d0d4 f   libucrt:ieee.obj
 0001:0002c128       _controlfp                 000000018002d128 f   libucrt:ieee.obj
 0001:0002c134       _statusfp                  000000018002d134 f   libucrt:ieee.obj
 0001:0002c420       __acrt_initialize_fma3     000000018002d420 f   libucrt:fma3_available.obj
 0001:0002c490       _log10_special             000000018002d490 f   libucrt:log_special.obj
 0001:0002c546       IsProcessorFeaturePresent  000000018002d546 f   kernel32:KERNEL32.dll
 0001:0002c54c       RtlUnwindEx                000000018002d54c f   kernel32:KERNEL32.dll
 0001:0002c552       SystemFunction036          000000018002d552 f   advapi32:ADVAPI32.dll
 0001:0002c558       ?DloadAcquireSectionWriteAccess@@YAXXZ 000000018002d558 f i DelayImp:delayhlp.obj
 0001:0002c614       ?DloadGetSRWLockFunctionPointers@@YAEXZ 000000018002d614 f i DelayImp:delayhlp.obj
 0001:0002c6b0       ?DloadMakePermanentImageCommit@@YAXPEAX_K@Z 000000018002d6b0 f i DelayImp:delayhlp.obj
 0001:0002c748       ?DloadObtainSection@@YAPEAXPEAK0@Z 000000018002d748 f i DelayImp:delayhlp.obj
 0001:0002c7e0       ?DloadProtectSection@@YAXKPEAK@Z 000000018002d7e0 f i DelayImp:delayhlp.obj
 0001:0002c870       ?DloadReleaseSectionWriteAccess@@YAXXZ 000000018002d870 f i DelayImp:delayhlp.obj
 0001:0002c914       __delayLoadHelper2         000000018002d914 f   DelayImp:delayhlp.obj
 0001:0002cc20       _FindPESection             000000018002dc20 f   LIBCMT:pesect.obj
 0001:0002cc70       _IsNonwritableInCurrentImage 000000018002dc70 f   LIBCMT:pesect.obj
 0001:0002ccc0       _ValidateImageBase         000000018002dcc0 f   LIBCMT:pesect.obj
 0001:0002ccf0       __GSHandlerCheck           000000018002dcf0 f   LIBCMT:_gshandler_.obj
 0001:0002cd10       __GSHandlerCheckCommon     000000018002dd10 f   LIBCMT:_gshandler_.obj
 0001:0002cd80       _alloca_probe              000000018002dd80 f   LIBCMT:_chkstk_.obj
 0001:0002cd80       __chkstk                   000000018002dd80 f   LIBCMT:_chkstk_.obj
 0001:0002cdd4       strrchr                    000000018002ddd4 f   libvcruntime:strrchr.obj
 0001:0002cf30       memcmp                     000000018002df30 f   libvcruntime:memcmp.obj
 0001:0002cff8       __GSHandlerCheck_EH        000000018002dff8 f   LIBCMT:gshandlereh.obj
 0001:0002d090       acos                       000000018002e090 f   libucrt:acos.obj
 0001:0002d350       acosf                      000000018002e350 f   libucrt:acosf.obj
 0001:0002d5c0       floor                      000000018002e5c0 f   libucrt:floor.obj
 0001:0002d670       fmodf                      000000018002e670 f   libucrt:fmodf.obj
 0001:0002d8b4       sqrtf                      000000018002e8b4 f   libucrt:sqrtf.obj
 0001:0002d970       strcmp                     000000018002e970 f   libucrt:strcmp.obj
 0001:0002d9e0       tan                        000000018002e9e0 f   libucrt:tan.obj
 0001:0002e21c       _tan_special               000000018002f21c f   libucrt:sincos_special.obj
 0001:0002e230       __remainder_piby2_fma3     000000018002f230 f   libucrt:remainder_piby2_forfma3.obj
 0001:0002e420       __remainder_piby2_fma3_bdl 000000018002f420 f   libucrt:remainder_piby2_forfma3.obj
 0001:0002e4a0       __remainder_piby2_forAsm   000000018002f4a0 f   libucrt:remainder_piby2_forasm.obj
 0001:0002e6b0       __remainder_piby2_cw_forAsm 000000018002f6b0 f   libucrt:remainder_piby2_forasm.obj
 0001:0002e800       _guard_dispatch_icall_nop  000000018002f800 f   LIBCMT:_guard_dispatch_.obj
 0001:0002e820       __longjmp_internal         000000018002f820 f   libvcruntime:_longjmp_.obj
 0001:0002e920       __intrinsic_setjmp         000000018002f920 f   libvcruntime:_setjmp_.obj
 0001:0002e920       _setjmp                    000000018002f920 f   libvcruntime:_setjmp_.obj
 0001:0002e9c0       setjmp                     000000018002f9c0 f   libvcruntime:_setjmp_.obj
 0002:00000000       __imp_SystemFunction036    0000000180031000     advapi32:ADVAPI32.dll
 0002:00000008       \177ADVAPI32_NULL_THUNK_DATA 0000000180031008     advapi32:ADVAPI32.dll
 0002:00000010       __imp_VirtualProtect       0000000180031010     kernel32:KERNEL32.dll
 0002:00000018       __imp_GetSystemInfo        0000000180031018     kernel32:KERNEL32.dll
 0002:00000020       __imp_VirtualQuery         0000000180031020     kernel32:KERNEL32.dll
 0002:00000028       __imp_GetModuleHandleA     0000000180031028     kernel32:KERNEL32.dll
 0002:00000030       __imp_SetEndOfFile         0000000180031030     kernel32:KERNEL32.dll
 0002:00000038       __imp_HeapSize             0000000180031038     kernel32:KERNEL32.dll
 0002:00000040       __imp_CreateFileW          0000000180031040     kernel32:KERNEL32.dll
 0002:00000048       __imp_SetStdHandle         0000000180031048     kernel32:KERNEL32.dll
 0002:00000050       __imp_GetConsoleCP         0000000180031050     kernel32:KERNEL32.dll
 0002:00000058       __imp_FlushFileBuffers     0000000180031058     kernel32:KERNEL32.dll
 0002:00000060       __imp_GetStringTypeW       0000000180031060     kernel32:KERNEL32.dll
 0002:00000068       __imp_GetCommandLineW      0000000180031068     kernel32:KERNEL32.dll
 0002:00000070       __imp_GetCommandLineA      0000000180031070     kernel32:KERNEL32.dll
 0002:00000078       __imp_GetProcessHeap       0000000180031078     kernel32:KERNEL32.dll
 0002:00000080       __imp_FreeEnvironmentStringsW 0000000180031080     kernel32:KERNEL32.dll
 0002:00000088       __imp_GetEnvironmentStringsW 0000000180031088     kernel32:KERNEL32.dll
 0002:00000090       __imp_GetCPInfo            0000000180031090     kernel32:KERNEL32.dll
 0002:00000098       __imp_GetOEMCP             0000000180031098     kernel32:KERNEL32.dll
 0002:000000a0       __imp_IsValidCodePage      00000001800310a0     kernel32:KERNEL32.dll
 0002:000000a8       __imp_ReadConsoleW         00000001800310a8     kernel32:KERNEL32.dll
 0002:000000b0       __imp_GetConsoleMode       00000001800310b0     kernel32:KERNEL32.dll
 0002:000000b8       __imp_SetFilePointerEx     00000001800310b8     kernel32:KERNEL32.dll
 0002:000000c0       __imp_ReadFile             00000001800310c0     kernel32:KERNEL32.dll
 0002:000000c8       __imp_GetACP               00000001800310c8     kernel32:KERNEL32.dll
 0002:000000d0       __imp_LCMapStringW         00000001800310d0     kernel32:KERNEL32.dll
 0002:000000d8       __imp_CreateThread         00000001800310d8     kernel32:KERNEL32.dll
 0002:000000e0       __imp_WaitForSingleObjectEx 00000001800310e0     kernel32:KERNEL32.dll
 0002:000000e8       __imp_CloseHandle          00000001800310e8     kernel32:KERNEL32.dll
 0002:000000f0       __imp_OutputDebugStringW   00000001800310f0     kernel32:KERNEL32.dll
 0002:000000f8       __imp_WriteFile            00000001800310f8     kernel32:KERNEL32.dll
 0002:00000100       __imp_HeapReAlloc          0000000180031100     kernel32:KERNEL32.dll
 0002:00000108       __imp_HeapAlloc            0000000180031108     kernel32:KERNEL32.dll
 0002:00000110       __imp_HeapFree             0000000180031110     kernel32:KERNEL32.dll
 0002:00000118       __imp_WideCharToMultiByte  0000000180031118     kernel32:KERNEL32.dll
 0002:00000120       __imp_MultiByteToWideChar  0000000180031120     kernel32:KERNEL32.dll
 0002:00000128       __imp_ExitProcess          0000000180031128     kernel32:KERNEL32.dll
 0002:00000130       __imp_WriteConsoleW        0000000180031130     kernel32:KERNEL32.dll
 0002:00000138       __imp_GetModuleHandleExW   0000000180031138     kernel32:KERNEL32.dll
 0002:00000140       __imp_GetFileType          0000000180031140     kernel32:KERNEL32.dll
 0002:00000148       __imp_GetStdHandle         0000000180031148     kernel32:KERNEL32.dll
 0002:00000150       __imp_LoadLibraryExW       0000000180031150     kernel32:KERNEL32.dll
 0002:00000158       __imp_GetProcAddress       0000000180031158     kernel32:KERNEL32.dll
 0002:00000160       __imp_FreeLibrary          0000000180031160     kernel32:KERNEL32.dll
 0002:00000168       __imp_TlsFree              0000000180031168     kernel32:KERNEL32.dll
 0002:00000170       __imp_TlsSetValue          0000000180031170     kernel32:KERNEL32.dll
 0002:00000178       __imp_TlsGetValue          0000000180031178     kernel32:KERNEL32.dll
 0002:00000180       __imp_TlsAlloc             0000000180031180     kernel32:KERNEL32.dll
 0002:00000188       __imp_InitializeCriticalSectionAndSpinCount 0000000180031188     kernel32:KERNEL32.dll
 0002:00000190       __imp_DeleteCriticalSection 0000000180031190     kernel32:KERNEL32.dll
 0002:00000198       __imp_LeaveCriticalSection 0000000180031198     kernel32:KERNEL32.dll
 0002:000001a0       __imp_EnterCriticalSection 00000001800311a0     kernel32:KERNEL32.dll
 0002:000001a8       __imp_SetLastError         00000001800311a8     kernel32:KERNEL32.dll
 0002:000001b0       __imp_InterlockedFlushSList 00000001800311b0     kernel32:KERNEL32.dll
 0002:000001b8       __imp_GetModuleFileNameW   00000001800311b8     kernel32:KERNEL32.dll
 0002:000001c0       __imp_GetLastError         00000001800311c0     kernel32:KERNEL32.dll
 0002:000001c8       __imp_RtlUnwindEx          00000001800311c8     kernel32:KERNEL32.dll
 0002:000001d0       __imp_RaiseException       00000001800311d0     kernel32:KERNEL32.dll
 0002:000001d8       __imp_EncodePointer        00000001800311d8     kernel32:KERNEL32.dll
 0002:000001e0       __imp_RtlPcToFileHeader    00000001800311e0     kernel32:KERNEL32.dll
 0002:000001e8       __imp_InitializeSListHead  00000001800311e8     kernel32:KERNEL32.dll
 0002:000001f0       __imp_GetSystemTimeAsFileTime 00000001800311f0     kernel32:KERNEL32.dll
 0002:000001f8       __imp_GetCurrentThreadId   00000001800311f8     kernel32:KERNEL32.dll
 0002:00000200       __imp_GetCurrentProcessId  0000000180031200     kernel32:KERNEL32.dll
 0002:00000208       __imp_QueryPerformanceCounter 0000000180031208     kernel32:KERNEL32.dll
 0002:00000210       __imp_GetModuleHandleW     0000000180031210     kernel32:KERNEL32.dll
 0002:00000218       __imp_GetStartupInfoW      0000000180031218     kernel32:KERNEL32.dll
 0002:00000220       __imp_IsDebuggerPresent    0000000180031220     kernel32:KERNEL32.dll
 0002:00000228       __imp_IsProcessorFeaturePresent 0000000180031228     kernel32:KERNEL32.dll
 0002:00000230       __imp_TerminateProcess     0000000180031230     kernel32:KERNEL32.dll
 0002:00000238       __imp_GetCurrentProcess    0000000180031238     kernel32:KERNEL32.dll
 0002:00000240       __imp_SetUnhandledExceptionFilter 0000000180031240     kernel32:KERNEL32.dll
 0002:00000248       __imp_UnhandledExceptionFilter 0000000180031248     kernel32:KERNEL32.dll
 0002:00000250       __imp_RtlVirtualUnwind     0000000180031250     kernel32:KERNEL32.dll
 0002:00000258       __imp_RtlLookupFunctionEntry 0000000180031258     kernel32:KERNEL32.dll
 0002:00000260       __imp_RtlCaptureContext    0000000180031260     kernel32:KERNEL32.dll
 0002:00000268       __imp_LoadLibraryExA       0000000180031268     kernel32:KERNEL32.dll
 0002:00000270       \177KERNEL32_NULL_THUNK_DATA 0000000180031270     kernel32:KERNEL32.dll
 0002:00000278       __imp_cairo_version_string 0000000180031278     cairo:libcairo-2.dll
 0002:00000280       __imp_cairo_surface_destroy 0000000180031280     cairo:libcairo-2.dll
 0002:00000288       __imp_cairo_image_surface_get_stride 0000000180031288     cairo:libcairo-2.dll
 0002:00000290       __imp_cairo_image_surface_get_format 0000000180031290     cairo:libcairo-2.dll
 0002:00000298       __imp_cairo_destroy        0000000180031298     cairo:libcairo-2.dll
 0002:000002a0       __imp_cairo_surface_finish 00000001800312a0     cairo:libcairo-2.dll
 0002:000002a8       __imp_cairo_image_surface_get_data 00000001800312a8     cairo:libcairo-2.dll
 0002:000002b0       __imp_cairo_pdf_surface_set_size 00000001800312b0     cairo:libcairo-2.dll
 0002:000002b8       __imp_cairo_image_surface_create_from_png_stream 00000001800312b8     cairo:libcairo-2.dll
 0002:000002c0       __imp_cairo_image_surface_get_height 00000001800312c0     cairo:libcairo-2.dll
 0002:000002c8       __imp_cairo_pdf_surface_create_for_stream 00000001800312c8     cairo:libcairo-2.dll
 0002:000002d0       __imp_cairo_image_surface_create 00000001800312d0     cairo:libcairo-2.dll
 0002:000002d8       __imp_cairo_status_to_string 00000001800312d8     cairo:libcairo-2.dll
 0002:000002e0       __imp_cairo_surface_flush  00000001800312e0     cairo:libcairo-2.dll
 0002:000002e8       __imp_cairo_svg_surface_create_for_stream 00000001800312e8     cairo:libcairo-2.dll
 0002:000002f0       __imp_cairo_surface_status 00000001800312f0     cairo:libcairo-2.dll
 0002:000002f8       __imp_cairo_image_surface_get_width 00000001800312f8     cairo:libcairo-2.dll
 0002:00000300       __imp_cairo_create         0000000180031300     cairo:libcairo-2.dll
 0002:00000308       __imp_cairo_pattern_add_color_stop_rgba 0000000180031308     cairo:libcairo-2.dll
 0002:00000310       __imp_cairo_pattern_create_radial 0000000180031310     cairo:libcairo-2.dll
 0002:00000318       __imp_cairo_image_surface_create_from_png 0000000180031318     cairo:libcairo-2.dll
 0002:00000320       __imp_cairo_curve_to       0000000180031320     cairo:libcairo-2.dll
 0002:00000328       __imp_cairo_translate      0000000180031328     cairo:libcairo-2.dll
 0002:00000330       __imp_cairo_get_current_point 0000000180031330     cairo:libcairo-2.dll
 0002:00000338       __imp_cairo_set_miter_limit 0000000180031338     cairo:libcairo-2.dll
 0002:00000340       __imp_cairo_set_line_width 0000000180031340     cairo:libcairo-2.dll
 0002:00000348       __imp_cairo_clip_preserve  0000000180031348     cairo:libcairo-2.dll
 0002:00000350       __imp_cairo_get_line_width 0000000180031350     cairo:libcairo-2.dll
 0002:00000358       __imp_cairo_arc            0000000180031358     cairo:libcairo-2.dll
 0002:00000360       __imp_cairo_close_path     0000000180031360     cairo:libcairo-2.dll
 0002:00000368       __imp_cairo_transform      0000000180031368     cairo:libcairo-2.dll
 0002:00000370       __imp_cairo_set_dash       0000000180031370     cairo:libcairo-2.dll
 0002:00000378       __imp_cairo_get_dash_count 0000000180031378     cairo:libcairo-2.dll
 0002:00000380       __imp_cairo_set_antialias  0000000180031380     cairo:libcairo-2.dll
 0002:00000388       __imp_cairo_paint_with_alpha 0000000180031388     cairo:libcairo-2.dll
 0002:00000390       __imp_cairo_in_stroke      0000000180031390     cairo:libcairo-2.dll
 0002:00000398       __imp_cairo_get_line_join  0000000180031398     cairo:libcairo-2.dll
 0002:000003a0       __imp_cairo_identity_matrix 00000001800313a0     cairo:libcairo-2.dll
 0002:000003a8       __imp_cairo_new_path       00000001800313a8     cairo:libcairo-2.dll
 0002:000003b0       __imp_cairo_append_path    00000001800313b0     cairo:libcairo-2.dll
 0002:000003b8       __imp_cairo_get_miter_limit 00000001800313b8     cairo:libcairo-2.dll
 0002:000003c0       __imp_cairo_get_dash       00000001800313c0     cairo:libcairo-2.dll
 0002:000003c8       __imp_cairo_pop_group_to_source 00000001800313c8     cairo:libcairo-2.dll
 0002:000003d0       __imp_cairo_text_extents   00000001800313d0     cairo:libcairo-2.dll
 0002:000003d8       __imp_cairo_matrix_init    00000001800313d8     cairo:libcairo-2.dll
 0002:000003e0       __imp_cairo_stroke_extents 00000001800313e0     cairo:libcairo-2.dll
 0002:000003e8       __imp_cairo_rotate         00000001800313e8     cairo:libcairo-2.dll
 0002:000003f0       __imp_cairo_fill_preserve  00000001800313f0     cairo:libcairo-2.dll
 0002:000003f8       __imp_cairo_set_font_size  00000001800313f8     cairo:libcairo-2.dll
 0002:00000400       __imp_cairo_surface_mark_dirty 0000000180031400     cairo:libcairo-2.dll
 0002:00000408       __imp_cairo_show_text      0000000180031408     cairo:libcairo-2.dll
 0002:00000410       __imp_cairo_user_to_device_distance 0000000180031410     cairo:libcairo-2.dll
 0002:00000418       __imp_cairo_scale          0000000180031418     cairo:libcairo-2.dll
 0002:00000420       __imp_cairo_set_source     0000000180031420     cairo:libcairo-2.dll
 0002:00000428       __imp_cairo_copy_path_flat 0000000180031428     cairo:libcairo-2.dll
 0002:00000430       __imp_cairo_set_source_rgba 0000000180031430     cairo:libcairo-2.dll
 0002:00000438       __imp_cairo_get_antialias  0000000180031438     cairo:libcairo-2.dll
 0002:00000440       __imp_cairo_clip           0000000180031440     cairo:libcairo-2.dll
 0002:00000448       __imp_cairo_text_path      0000000180031448     cairo:libcairo-2.dll
 0002:00000450       __imp_cairo_get_operator   0000000180031450     cairo:libcairo-2.dll
 0002:00000458       __imp_cairo_pattern_set_extend 0000000180031458     cairo:libcairo-2.dll
 0002:00000460       __imp_cairo_get_line_cap   0000000180031460     cairo:libcairo-2.dll
 0002:00000468       __imp_cairo_move_to        0000000180031468     cairo:libcairo-2.dll
 0002:00000470       __imp_cairo_stroke         0000000180031470     cairo:libcairo-2.dll
 0002:00000478       __imp_cairo_push_group     0000000180031478     cairo:libcairo-2.dll
 0002:00000480       __imp_cairo_paint          0000000180031480     cairo:libcairo-2.dll
 0002:00000488       __imp_cairo_line_to        0000000180031488     cairo:libcairo-2.dll
 0002:00000490       __imp_cairo_font_extents   0000000180031490     cairo:libcairo-2.dll
 0002:00000498       __imp_cairo_restore        0000000180031498     cairo:libcairo-2.dll
 0002:000004a0       __imp_cairo_show_page      00000001800314a0     cairo:libcairo-2.dll
 0002:000004a8       __imp_cairo_fill_extents   00000001800314a8     cairo:libcairo-2.dll
 0002:000004b0       __imp_cairo_pattern_set_filter 00000001800314b0     cairo:libcairo-2.dll
 0002:000004b8       __imp_cairo_mask_surface   00000001800314b8     cairo:libcairo-2.dll
 0002:000004c0       __imp_cairo_get_source     00000001800314c0     cairo:libcairo-2.dll
 0002:000004c8       __imp_cairo_set_line_cap   00000001800314c8     cairo:libcairo-2.dll
 0002:000004d0       __imp_cairo_fill           00000001800314d0     cairo:libcairo-2.dll
 0002:000004d8       __imp_cairo_set_source_surface 00000001800314d8     cairo:libcairo-2.dll
 0002:000004e0       __imp_cairo_pattern_get_filter 00000001800314e0     cairo:libcairo-2.dll
 0002:000004e8       __imp_cairo_set_line_join  00000001800314e8     cairo:libcairo-2.dll
 0002:000004f0       __imp_cairo_rectangle      00000001800314f0     cairo:libcairo-2.dll
 0002:000004f8       __imp_cairo_stroke_preserve 00000001800314f8     cairo:libcairo-2.dll
 0002:00000500       __imp_cairo_arc_negative   0000000180031500     cairo:libcairo-2.dll
 0002:00000508       __imp_cairo_get_matrix     0000000180031508     cairo:libcairo-2.dll
 0002:00000510       __imp_cairo_save           0000000180031510     cairo:libcairo-2.dll
 0002:00000518       __imp_cairo_surface_mark_dirty_rectangle 0000000180031518     cairo:libcairo-2.dll
 0002:00000520       __imp_cairo_set_operator   0000000180031520     cairo:libcairo-2.dll
 0002:00000528       __imp_cairo_select_font_face 0000000180031528     cairo:libcairo-2.dll
 0002:00000530       __imp_cairo_in_fill        0000000180031530     cairo:libcairo-2.dll
 0002:00000538       __imp_cairo_path_destroy   0000000180031538     cairo:libcairo-2.dll
 0002:00000540       __imp_cairo_pattern_create_for_surface 0000000180031540     cairo:libcairo-2.dll
 0002:00000548       __imp_cairo_pattern_destroy 0000000180031548     cairo:libcairo-2.dll
 0002:00000550       __imp_cairo_pattern_create_linear 0000000180031550     cairo:libcairo-2.dll
 0002:00000558       \177libcairo-2_NULL_THUNK_DATA 0000000180031558     cairo:libcairo-2.dll
 0002:00000560       __imp_png_create_write_struct_2 0000000180031560     libpng:libpng14-14.dll
 0002:00000568       __imp_png_error            0000000180031568     libpng:libpng14-14.dll
 0002:00000570       __imp_png_write_end        0000000180031570     libpng:libpng14-14.dll
 0002:00000578       __imp_png_set_filler       0000000180031578     libpng:libpng14-14.dll
 0002:00000580       __imp_png_create_info_struct 0000000180031580     libpng:libpng14-14.dll
 0002:00000588       __imp_png_set_write_fn     0000000180031588     libpng:libpng14-14.dll
 0002:00000590       __imp_png_set_IHDR         0000000180031590     libpng:libpng14-14.dll
 0002:00000598       __imp_png_set_compression_level 0000000180031598     libpng:libpng14-14.dll
 0002:000005a0       __imp_png_set_filter       00000001800315a0     libpng:libpng14-14.dll
 0002:000005a8       __imp_png_get_error_ptr    00000001800315a8     libpng:libpng14-14.dll
 0002:000005b0       __imp_png_set_packswap     00000001800315b0     libpng:libpng14-14.dll
 0002:000005b8       __imp_png_write_info       00000001800315b8     libpng:libpng14-14.dll
 0002:000005c0       __imp_png_get_io_ptr       00000001800315c0     libpng:libpng14-14.dll
 0002:000005c8       __imp_png_set_longjmp_fn   00000001800315c8     libpng:libpng14-14.dll
 0002:000005d0       __imp_png_set_write_user_transform_fn 00000001800315d0     libpng:libpng14-14.dll
 0002:000005d8       __imp_png_set_bKGD         00000001800315d8     libpng:libpng14-14.dll
 0002:000005e0       __imp_png_destroy_write_struct 00000001800315e0     libpng:libpng14-14.dll
 0002:000005e8       __imp_png_write_image      00000001800315e8     libpng:libpng14-14.dll
 0002:000005f0       \177libpng14-14_NULL_THUNK_DATA 00000001800315f0     libpng:libpng14-14.dll
 0002:000005f8       __guard_check_icall_fptr   00000001800315f8     LIBCMT:guard_support.obj
 0002:00000600       __guard_dispatch_icall_fptr 0000000180031600     LIBCMT:guard_support.obj
 0002:00000608       __xc_a                     0000000180031608     LIBCMT:initializers.obj
 0002:00000640       _register_canvas_          0000000180031640     init.obj
 0002:00000648       __xc_z                     0000000180031648     LIBCMT:initializers.obj
 0002:00000650       __xi_a                     0000000180031650     LIBCMT:initializers.obj
 0002:00000658       __acrt_stdio_initializer   0000000180031658     libucrt:stdio_initializer.obj
 0002:00000660       __acrt_multibyte_initializer 0000000180031660     libucrt:multibyte_initializer.obj
 0002:00000668       __acrt_tran_fma3_initializer 0000000180031668     libucrt:fma3_initializer.obj
 0002:00000670       __xi_z                     0000000180031670     LIBCMT:initializers.obj
 0002:00000678       __xp_a                     0000000180031678     LIBCMT:initializers.obj
 0002:00000680       __acrt_locale_terminator   0000000180031680     libucrt:locale_initializer.obj
 0002:00000688       __dcrt_console_output_terminator 0000000180031688     libucrt:console_output_initializer.obj
 0002:00000690       __acrt_stdio_terminator    0000000180031690     libucrt:stdio_initializer.obj
 0002:00000698       __xp_z                     0000000180031698     LIBCMT:initializers.obj
 0002:000006a0       __xt_a                     00000001800316a0     LIBCMT:initializers.obj
 0002:000006a8       __xt_z                     00000001800316a8     LIBCMT:initializers.obj
 0002:000006b0       __sz_node_exe              00000001800316b0     node:node.exe
 0002:000006c8       ??_7exception@std@@6B@     00000001800316c8     libcpmt:xthrow.obj
 0002:000006d8       ??_C@_0BC@EOODALEL@Unknown?5exception?$AA@ 00000001800316d8     libcpmt:xthrow.obj
 0002:000006f8       ??_7bad_alloc@std@@6B@     00000001800316f8     libcpmt:xthrow.obj
 0002:00000708       ??_C@_0P@GHFPNOJB@bad?5allocation?$AA@ 0000000180031708     libcpmt:xthrow.obj
 0002:00000720       ??_7logic_error@std@@6B@   0000000180031720     libcpmt:xthrow.obj
 0002:00000738       ??_7length_error@std@@6B@  0000000180031738     libcpmt:xthrow.obj
 0002:00000748       _pRawDllMain               0000000180031748     LIBCMT:dll_dllmain.obj
 0002:00000748       _pDefaultRawDllMain        0000000180031748     LIBCMT:dll_dllmain.obj
 0002:00000758       ??_7type_info@@6B@         0000000180031758     LIBCMT:std_type_info_static.obj
 0002:00000778       ??_7bad_array_new_length@std@@6B@ 0000000180031778     LIBCMT:throw_bad_alloc.obj
 0002:00000788       ??_C@_0BF@KINCDENJ@bad?5array?5new?5length?$AA@ 0000000180031788     LIBCMT:throw_bad_alloc.obj
 0002:000007a0       _pDestructExceptionObject  00000001800317a0     libvcruntime:frame.obj
 0002:000007b0       ??_7bad_exception@std@@6B@ 00000001800317b0     libvcruntime:frame.obj
 0002:000007c0       ??_C@_0O@DPKOEFFH@bad?5exception?$AA@ 00000001800317c0     libvcruntime:frame.obj
 0002:00000810       _Microsoft_CRTProvider     0000000180031810     libvcruntime:telemetry.obj
 0002:00000818       ??_C@_11LOCGONAA@?$AA?$AA@ 0000000180031818     libvcruntime:telemetry.obj
 0002:00000820       ??_C@_0O@JEOPJOMI@Main?5Invoked?4?$AA@ 0000000180031820     libvcruntime:telemetry.obj
 0002:00000830       ??_C@_0P@NEAEIBDO@Main?5Returned?4?$AA@ 0000000180031830     libvcruntime:telemetry.obj
 0002:000008f8       ??_C@_1BC@DNHGCMLG@?$AAa?$AAd?$AAv?$AAa?$AAp?$AAi?$AA3?$AA2?$AA?$AA@ 00000001800318f8     libvcruntime:winapi_downlevel.obj
 0002:00000910       ??_C@_1DM@KHCHBNEB@?$AAa?$AAp?$AAi?$AA?9?$AAm?$AAs?$AA?9?$AAw?$AAi?$AAn?$AA?9?$AAc?$AAo?$AAr?$AAe?$AA?9?$AAf?$AAi?$AAb?$AAe?$AAr?$AAs?$AA?9?$AAl?$AA1?$AA?9?$AA1?$AA?9?$AA1?$AA?$AA@ 0000000180031910     libvcruntime:winapi_downlevel.obj
 0002:00000950       ??_C@_1DK@LPPGFMPP@?$AAa?$AAp?$AAi?$AA?9?$AAm?$AAs?$AA?9?$AAw?$AAi?$AAn?$AA?9?$AAc?$AAo?$AAr?$AAe?$AA?9?$AAs?$AAy?$AAn?$AAc?$AAh?$AA?9?$AAl?$AA1?$AA?9?$AA2?$AA?9?$AA0?$AA?$AA@ 0000000180031950     libvcruntime:winapi_downlevel.obj
 0002:00000990       ??_C@_1BC@GDMECMAK@?$AAk?$AAe?$AAr?$AAn?$AAe?$AAl?$AA3?$AA2?$AA?$AA@ 0000000180031990     libvcruntime:winapi_downlevel.obj
 0002:000009a8       ??_C@_0O@BAMBGLIE@EventRegister?$AA@ 00000001800319a8     libvcruntime:winapi_downlevel.obj
 0002:000009c0       ??_C@_0BE@BJEEGHGK@EventSetInformation?$AA@ 00000001800319c0     libvcruntime:winapi_downlevel.obj
 0002:000009d8       ??_C@_0BA@FAKLIPIC@EventUnregister?$AA@ 00000001800319d8     libvcruntime:winapi_downlevel.obj
 0002:000009f0       ??_C@_0BD@PKLHJPHD@EventWriteTransfer?$AA@ 00000001800319f0     libvcruntime:winapi_downlevel.obj
 0002:00000a10       ??_C@_08KNHFBNJ@FlsAlloc?$AA@ 0000000180031a10     libvcruntime:winapi_downlevel.obj
 0002:00000a28       ??_C@_07PEJMOBNF@FlsFree?$AA@ 0000000180031a28     libvcruntime:winapi_downlevel.obj
 0002:00000a38       ??_C@_0M@GDNOONDI@FlsGetValue?$AA@ 0000000180031a38     libvcruntime:winapi_downlevel.obj
 0002:00000a50       ??_C@_0M@JCPCPOEF@FlsSetValue?$AA@ 0000000180031a50     libvcruntime:winapi_downlevel.obj
 0002:00000a68       ??_C@_0BM@HCFOFFN@InitializeCriticalSectionEx?$AA@ 0000000180031a68     libvcruntime:winapi_downlevel.obj
 0002:00000a84       ??_C@_02EEKDKGMJ@?$DO?$DN?$AA@ 0000000180031a84     libvcruntime:undname.obj
 0002:00000a88       ??_C@_01IHBHIGKO@?0?$AA@   0000000180031a88     libvcruntime:undname.obj
 0002:00000a8c       ??_C@_02HCKGKOFO@?$CI?$CJ?$AA@ 0000000180031a8c     libvcruntime:undname.obj
 0002:00000a90       ??_C@_01PJKLJHI@?$HO?$AA@  0000000180031a90     libvcruntime:undname.obj
 0002:00000a94       ??_C@_01JKBOJNNK@?$FO?$AA@ 0000000180031a94     libvcruntime:undname.obj
 0002:00000a98       ??_C@_01DNKMNLPK@?$HM?$AA@ 0000000180031a98     libvcruntime:undname.obj
 0002:00000a9c       ??_C@_02PPKAJPJL@?$CG?$CG?$AA@ 0000000180031a9c     libvcruntime:undname.obj
 0002:00000aa0       ??_C@_02NONPIBCD@?$HM?$HM?$AA@ 0000000180031aa0     libvcruntime:undname.obj
 0002:00000aa4       ??_C@_02FPIMKNGF@?$CK?$DN?$AA@ 0000000180031aa4     libvcruntime:undname.obj
 0002:00000aa8       ??_C@_02FOEOMHFC@?$CL?$DN?$AA@ 0000000180031aa8     libvcruntime:undname.obj
 0002:00000aac       ??_C@_02FKMDLLOA@?9?$DN?$AA@ 0000000180031aac     libvcruntime:undname.obj
 0002:00000ab0       ??_C@_02FJEHGPIO@?1?$DN?$AA@ 0000000180031ab0     libvcruntime:undname.obj
 0002:00000ab4       ??_C@_02FENAOKFI@?$CF?$DN?$AA@ 0000000180031ab4     libvcruntime:undname.obj
 0002:00000ab8       ??_C@_03IKFCCPFF@?$DO?$DO?$DN?$AA@ 0000000180031ab8     libvcruntime:undname.obj
 0002:00000abc       ??_C@_03CDNPDDLA@?$DM?$DM?$DN?$AA@ 0000000180031abc     libvcruntime:undname.obj
 0002:00000ac0       ??_C@_02FGJGFEAB@?$CG?$DN?$AA@ 0000000180031ac0     libvcruntime:undname.obj
 0002:00000ac4       ??_C@_02DHLNPPGH@?$HM?$DN?$AA@ 0000000180031ac4     libvcruntime:undname.obj
 0002:00000ac8       ??_C@_02MHEGNOJ@?$FO?$DN?$AA@ 0000000180031ac8     libvcruntime:undname.obj
 0002:00000ad0       ??_C@_09IFPLHPGF@?$GAvftable?8?$AA@ 0000000180031ad0     libvcruntime:undname.obj
 0002:00000ae0       ??_C@_09BLBHBJP@?$GAvbtable?8?$AA@ 0000000180031ae0     libvcruntime:undname.obj
 0002:00000af0       ??_C@_07FEEIOKP@?$GAvcall?8?$AA@ 0000000180031af0     libvcruntime:undname.obj
 0002:00000af8       ??_C@_08LLFFHHDJ@?$GAtypeof?8?$AA@ 0000000180031af8     libvcruntime:undname.obj
 0002:00000b08       ??_C@_0BF@KDPPACIK@?$GAlocal?5static?5guard?8?$AA@ 0000000180031b08     libvcruntime:undname.obj
 0002:00000b20       ??_C@_08OBABFOLI@?$GAstring?8?$AA@ 0000000180031b20     libvcruntime:undname.obj
 0002:00000b30       ??_C@_0BD@JDLKDPAB@?$GAvbase?5destructor?8?$AA@ 0000000180031b30     libvcruntime:undname.obj
 0002:00000b48       ??_C@_0BN@DEGPLNFK@?$GAvector?5deleting?5destructor?8?$AA@ 0000000180031b48     libvcruntime:undname.obj
 0002:00000b68       ??_C@_0BO@OBMKPJIG@?$GAdefault?5constructor?5closure?8?$AA@ 0000000180031b68     libvcruntime:undname.obj
 0002:00000b88       ??_C@_0BN@IMDCHIKM@?$GAscalar?5deleting?5destructor?8?$AA@ 0000000180031b88     libvcruntime:undname.obj
 0002:00000ba8       ??_C@_0BO@PFGOCPJJ@?$GAvector?5constructor?5iterator?8?$AA@ 0000000180031ba8     libvcruntime:undname.obj
 0002:00000bc8       ??_C@_0BN@LFPFMEDL@?$GAvector?5destructor?5iterator?8?$AA@ 0000000180031bc8     libvcruntime:undname.obj
 0002:00000be8       ??_C@_0CE@IKBNEHA@?$GAvector?5vbase?5constructor?5iterat@ 0000000180031be8     libvcruntime:undname.obj
 0002:00000c10       ??_C@_0BL@NILFHHPC@?$GAvirtual?5displacement?5map?8?$AA@ 0000000180031c10     libvcruntime:undname.obj
 0002:00000c30       ??_C@_0CB@JONCMFFK@?$GAeh?5vector?5constructor?5iterator?8@ 0000000180031c30     libvcruntime:undname.obj
 0002:00000c58       ??_C@_0CA@GCEOPDGL@?$GAeh?5vector?5destructor?5iterator?8?$AA@ 0000000180031c58     libvcruntime:undname.obj
 0002:00000c78       ??_C@_0CH@OOJPLCPH@?$GAeh?5vector?5vbase?5constructor?5ite@ 0000000180031c78     libvcruntime:undname.obj
 0002:00000ca0       ??_C@_0BL@LLKPOHJI@?$GAcopy?5constructor?5closure?8?$AA@ 0000000180031ca0     libvcruntime:undname.obj
 0002:00000cc0       ??_C@_0BA@KBCDOMBN@?$GAudt?5returning?8?$AA@ 0000000180031cc0     libvcruntime:undname.obj
 0002:00000cd0       ??_C@_03KLGMFNMG@?$GAEH?$AA@ 0000000180031cd0     libvcruntime:undname.obj
 0002:00000cd4       ??_C@_05KHLCHHI@?$GARTTI?$AA@ 0000000180031cd4     libvcruntime:undname.obj
 0002:00000ce0       ??_C@_0BA@KKLDJDLB@?$GAlocal?5vftable?8?$AA@ 0000000180031ce0     libvcruntime:undname.obj
 0002:00000cf0       ??_C@_0CE@IIHCMGGL@?$GAlocal?5vftable?5constructor?5closu@ 0000000180031cf0     libvcruntime:undname.obj
 0002:00000d14       ??_C@_06FHBGPFGH@?5new?$FL?$FN?$AA@ 0000000180031d14     libvcruntime:undname.obj
 0002:00000d20       ??_C@_09LBNFPBCA@?5delete?$FL?$FN?$AA@ 0000000180031d20     libvcruntime:undname.obj
 0002:00000d30       ??_C@_0P@HJKNJFNN@?$GAomni?5callsig?8?$AA@ 0000000180031d30     libvcruntime:undname.obj
 0002:00000d40       ??_C@_0BL@CNOONJFP@?$GAplacement?5delete?5closure?8?$AA@ 0000000180031d40     libvcruntime:undname.obj
 0002:00000d60       ??_C@_0BN@CKNJLHMB@?$GAplacement?5delete?$FL?$FN?5closure?8?$AA@ 0000000180031d60     libvcruntime:undname.obj
 0002:00000d80       ??_C@_0CG@CFDHKGGD@?$GAmanaged?5vector?5constructor?5iter@ 0000000180031d80     libvcruntime:undname.obj
 0002:00000da8       ??_C@_0CF@IMGKMJNO@?$GAmanaged?5vector?5destructor?5itera@ 0000000180031da8     libvcruntime:undname.obj
 0002:00000dd0       ??_C@_0CG@HLDDJMAG@?$GAeh?5vector?5copy?5constructor?5iter@ 0000000180031dd0     libvcruntime:undname.obj
 0002:00000df8       ??_C@_0CM@FCBBDIGB@?$GAeh?5vector?5vbase?5copy?5constructo@ 0000000180031df8     libvcruntime:undname.obj
 0002:00000e28       ??_C@_0BL@CLIPGLGB@?$GAdynamic?5initializer?5for?5?8?$AA@ 0000000180031e28     libvcruntime:undname.obj
 0002:00000e48       ??_C@_0CB@PDBIFEP@?$GAdynamic?5atexit?5destructor?5for?5?8@ 0000000180031e48     libvcruntime:undname.obj
 0002:00000e70       ??_C@_0CD@CGAJBKEJ@?$GAvector?5copy?5constructor?5iterato@ 0000000180031e70     libvcruntime:undname.obj
 0002:00000e98       ??_C@_0CJ@GJELGAMM@?$GAvector?5vbase?5copy?5constructor?5i@ 0000000180031e98     libvcruntime:undname.obj
 0002:00000ec8       ??_C@_0CL@FGIJHLCE@?$GAmanaged?5vector?5copy?5constructor@ 0000000180031ec8     libvcruntime:undname.obj
 0002:00000ef8       ??_C@_0BM@PMGGMLDN@?$GAlocal?5static?5thread?5guard?8?$AA@ 0000000180031ef8     libvcruntime:undname.obj
 0002:00000f18       ??_C@_0N@BDNMDMOL@operator?5?$CC?$CC?5?$AA@ 0000000180031f18     libvcruntime:undname.obj
 0002:00001258       ??_C@_0BC@DAFEJGAK@?5Type?5Descriptor?8?$AA@ 0000000180032258     libvcruntime:undname.obj
 0002:00001270       ??_C@_0BM@LDKODKLH@?5Base?5Class?5Descriptor?5at?5?$CI?$AA@ 0000000180032270     libvcruntime:undname.obj
 0002:00001290       ??_C@_0BD@LGICGFMM@?5Base?5Class?5Array?8?$AA@ 0000000180032290     libvcruntime:undname.obj
 0002:000012a8       ??_C@_0BN@MECKDCOJ@?5Class?5Hierarchy?5Descriptor?8?$AA@ 00000001800322a8     libvcruntime:undname.obj
 0002:000012c8       ??_C@_0BK@CFCOFLF@?5Complete?5Object?5Locator?8?$AA@ 00000001800322c8     libvcruntime:undname.obj
 0002:000012e8       ??_C@_08EHJDFFNH@__based?$CI?$AA@ 00000001800322e8     libvcruntime:undname.obj
 0002:000012f8       ??_C@_07KOLFKCDI@__cdecl?$AA@ 00000001800322f8     libvcruntime:undname.obj
 0002:00001300       ??_C@_08GHMPAG@__pascal?$AA@ 0000000180032300     libvcruntime:undname.obj
 0002:00001310       ??_C@_09IFJBGAPI@__stdcall?$AA@ 0000000180032310     libvcruntime:undname.obj
 0002:00001320       ??_C@_0L@NPHFGOKO@__thiscall?$AA@ 0000000180032320     libvcruntime:undname.obj
 0002:00001330       ??_C@_0L@JMKHOMEK@__fastcall?$AA@ 0000000180032330     libvcruntime:undname.obj
 0002:00001340       ??_C@_0N@BCKKPABJ@__vectorcall?$AA@ 0000000180032340     libvcruntime:undname.obj
 0002:00001350       ??_C@_09HIJEGCPM@__clrcall?$AA@ 0000000180032350     libvcruntime:undname.obj
 0002:0000135c       ??_C@_06GHPCKEAG@__eabi?$AA@ 000000018003235c     libvcruntime:undname.obj
 0002:00001368       ??_C@_07JOMMBBKO@__ptr64?$AA@ 0000000180032368     libvcruntime:undname.obj
 0002:00001370       ??_C@_0L@PILCLIHE@__restrict?$AA@ 0000000180032370     libvcruntime:undname.obj
 0002:00001380       ??_C@_0M@GFIIJFMG@__unaligned?$AA@ 0000000180032380     libvcruntime:undname.obj
 0002:00001390       ??_C@_09DHDLOLLB@restrict?$CI?$AA@ 0000000180032390     libvcruntime:undname.obj
 0002:0000139c       ??_C@_04NIHEBCM@?5new?$AA@ 000000018003239c     libvcruntime:undname.obj
 0002:000013a8       ??_C@_07FPCDHGMM@?5delete?$AA@ 00000001800323a8     libvcruntime:undname.obj
 0002:000013b0       ??_C@_01NEMOKFLO@?$DN?$AA@ 00000001800323b0     libvcruntime:undname.obj
 0002:000013b4       ??_C@_02GPIOPFAK@?$DO?$DO?$AA@ 00000001800323b4     libvcruntime:undname.obj
 0002:000013b8       ??_C@_02FODMEDOG@?$DM?$DM?$AA@ 00000001800323b8     libvcruntime:undname.obj
 0002:000013bc       ??_C@_01DCLJPIOD@?$CB?$AA@ 00000001800323bc     libvcruntime:undname.obj
 0002:000013c0       ??_C@_02EGOFBIJA@?$DN?$DN?$AA@ 00000001800323c0     libvcruntime:undname.obj
 0002:000013c4       ??_C@_02FDNJECIE@?$CB?$DN?$AA@ 00000001800323c4     libvcruntime:undname.obj
 0002:000013c8       ??_C@_02GPECMEKF@?$FL?$FN?$AA@ 00000001800323c8     libvcruntime:undname.obj
 0002:000013d0       ??_C@_08LHJFAFGD@operator?$AA@ 00000001800323d0     libvcruntime:undname.obj
 0002:000013dc       ??_C@_02HBOOOICD@?9?$DO?$AA@ 00000001800323dc     libvcruntime:undname.obj
 0002:000013e0       ??_C@_01NBENCBCI@?$CK?$AA@ 00000001800323e0     libvcruntime:undname.obj
 0002:000013e4       ??_C@_02ECNGHCIF@?$CL?$CL?$AA@ 00000001800323e4     libvcruntime:undname.obj
 0002:000013e8       ??_C@_02BAABKJLB@?9?9?$AA@ 00000001800323e8     libvcruntime:undname.obj
 0002:000013ec       ??_C@_01JOAMLHOP@?9?$AA@   00000001800323ec     libvcruntime:undname.obj
 0002:000013f0       ??_C@_01MIFGBAGJ@?$CL?$AA@ 00000001800323f0     libvcruntime:undname.obj
 0002:000013f4       ??_C@_01HNPIGOCE@?$CG?$AA@ 00000001800323f4     libvcruntime:undname.obj
 0002:000013f8       ??_C@_03MNHNFDLC@?9?$DO?$CK?$AA@ 00000001800323f8     libvcruntime:undname.obj
 0002:000013fc       ??_C@_01KMDKNFGN@?1?$AA@   00000001800323fc     libvcruntime:undname.obj
 0002:00001400       ??_C@_01FGNFDNOH@?$CF?$AA@ 0000000180032400     libvcruntime:undname.obj
 0002:00001404       ??_C@_01MNNFJEPP@?$DM?$AA@ 0000000180032404     libvcruntime:undname.obj
 0002:00001408       ??_C@_02EHCHHCKH@?$DM?$DN?$AA@ 0000000180032408     libvcruntime:undname.obj
 0002:0000140c       ??_C@_01PPODPGHN@?$DO?$AA@ 000000018003240c     libvcruntime:undname.obj
 0002:00001410       ??_C@_1EK@MBDPDCGA@?$AAM?$AAi?$AAc?$AAr?$AAo?$AAs?$AAo?$AAf?$AAt?$AA?5?$AAV?$AAi?$AAs?$AAu?$AAa?$AAl?$AA?5?$AAC?$AA?$CL?$AA?$CL?$AA?5?$AAR?$AAu?$AAn?$AAt?$AAi?$AAm?$AAe?$AA?5?$AAL?$AAi?$AAb@ 0000000180032410     libucrt:assert.obj
 0002:00001460       ??_C@_1FE@LHBLIKM@?$AAA?$AAs?$AAs?$AAe?$AAr?$AAt?$AAi?$AAo?$AAn?$AA?5?$AAf?$AAa?$AAi?$AAl?$AAe?$AAd?$AA?3?$AA?5?$AA?$CF?$AAT?$AAs?$AA?0?$AA?5?$AAf?$AAi?$AAl?$AAe?$AA?5?$AA?$CF?$AAT?$AAs?$AA?0@ 0000000180032460     libucrt:assert.obj
 0002:000014b8       ??_C@_1CE@OJBNHDMO@?$AAA?$AAs?$AAs?$AAe?$AAr?$AAt?$AAi?$AAo?$AAn?$AA?5?$AAf?$AAa?$AAi?$AAl?$AAe?$AAd?$AA?$CB?$AA?$AA@ 00000001800324b8     libucrt:assert.obj
 0002:000014e0       ??_C@_1BE@PHKBBGE@?$AAP?$AAr?$AAo?$AAg?$AAr?$AAa?$AAm?$AA?3?$AA?5?$AA?$AA@ 00000001800324e0     libucrt:assert.obj
 0002:000014f8       ??_C@_1O@HEMHKNDC@?$AAF?$AAi?$AAl?$AAe?$AA?3?$AA?5?$AA?$AA@ 00000001800324f8     libucrt:assert.obj
 0002:00001508       ??_C@_1O@KCAFKHJE@?$AAL?$AAi?$AAn?$AAe?$AA?3?$AA?5?$AA?$AA@ 0000000180032508     libucrt:assert.obj
 0002:00001518       ??_C@_1BK@PEDCIPMA@?$AAE?$AAx?$AAp?$AAr?$AAe?$AAs?$AAs?$AAi?$AAo?$AAn?$AA?3?$AA?5?$AA?$AA@ 0000000180032518     libucrt:assert.obj
 0002:00001540       ??_C@_1OA@EGMLFBHJ@?$AAF?$AAo?$AAr?$AA?5?$AAi?$AAn?$AAf?$AAo?$AAr?$AAm?$AAa?$AAt?$AAi?$AAo?$AAn?$AA?5?$AAo?$AAn?$AA?5?$AAh?$AAo?$AAw?$AA?5?$AAy?$AAo?$AAu?$AAr?$AA?5?$AAp?$AAr?$AAo?$AAg@ 0000000180032540     libucrt:assert.obj
 0002:00001620       ??_C@_1HK@POCJMFGK@?$AA?$CI?$AAP?$AAr?$AAe?$AAs?$AAs?$AA?5?$AAR?$AAe?$AAt?$AAr?$AAy?$AA?5?$AAt?$AAo?$AA?5?$AAd?$AAe?$AAb?$AAu?$AAg?$AA?5?$AAt?$AAh?$AAe?$AA?5?$AAa?$AAp?$AAp?$AAl?$AAi?$AAc@ 0000000180032620     libucrt:assert.obj
 0002:000016a0       ??_C@_17LGKOMLJ@?$AA?4?$AA?4?$AA?4?$AA?$AA@ 00000001800326a0     libucrt:assert.obj
 0002:000016a8       ??_C@_13LBAGMAIH@?$AA?6?$AA?$AA@ 00000001800326a8     libucrt:assert.obj
 0002:000016ac       ??_C@_15IABLJNFO@?$AA?6?$AA?6?$AA?$AA@ 00000001800326ac     libucrt:assert.obj
 0002:000016b8       ??_C@_1CO@EAEJAADC@?$AA?$DM?$AAp?$AAr?$AAo?$AAg?$AAr?$AAa?$AAm?$AA?5?$AAn?$AAa?$AAm?$AAe?$AA?5?$AAu?$AAn?$AAk?$AAn?$AAo?$AAw?$AAn?$AA?$DO?$AA?$AA@ 00000001800326b8     libucrt:assert.obj
 0002:000016f0       standard_lookup_table      00000001800326f0     libucrt:output.obj
 0002:0000174c       ??_C@_06OJHGLDPL@?$CInull?$CJ?$AA@ 000000018003274c     libucrt:output.obj
 0002:00001758       ??_C@_1O@CEDCILHN@?$AA?$CI?$AAn?$AAu?$AAl?$AAl?$AA?$CJ?$AA?$AA@ 0000000180032758     libucrt:output.obj
 0002:00001770       __acrt_exception_action_table 0000000180032770     libucrt:exception_filter.obj
 0002:00001830       __acrt_signal_action_table_count 0000000180032830     libucrt:exception_filter.obj
 0002:00001838       __acrt_signal_action_first_fpe_index 0000000180032838     libucrt:exception_filter.obj
 0002:00001840       __acrt_signal_action_fpe_count 0000000180032840     libucrt:exception_filter.obj
 0002:00001848       ??_C@_1BI@BGOHAHKC@?$AAm?$AAs?$AAc?$AAo?$AAr?$AAe?$AAe?$AA?4?$AAd?$AAl?$AAl?$AA?$AA@ 0000000180032848     libucrt:exit.obj
 0002:00001860       ??_C@_0P@MIGLKIOC@CorExitProcess?$AA@ 0000000180032860     libucrt:exit.obj
 0002:00001b70       ??_C@_1EG@CNNIPFIM@?$AAa?$AAp?$AAi?$AA?9?$AAm?$AAs?$AA?9?$AAw?$AAi?$AAn?$AA?9?$AAa?$AAp?$AAp?$AAm?$AAo?$AAd?$AAe?$AAl?$AA?9?$AAr?$AAu?$AAn?$AAt?$AAi?$AAm?$AAe?$AA?9?$AAl?$AA1?$AA?9?$AA1@ 0000000180032b70     libucrt:winapi_thunks.obj
 0002:00001bc0       ??_C@_1EA@JGEFHKEI@?$AAa?$AAp?$AAi?$AA?9?$AAm?$AAs?$AA?9?$AAw?$AAi?$AAn?$AA?9?$AAc?$AAo?$AAr?$AAe?$AA?9?$AAd?$AAa?$AAt?$AAe?$AAt?$AAi?$AAm?$AAe?$AA?9?$AAl?$AA1?$AA?9?$AA1?$AA?9?$AA1?$AA?$AA@ 0000000180032bc0     libucrt:winapi_thunks.obj
 0002:00001c00       ??_C@_1DI@GCIAAENM@?$AAa?$AAp?$AAi?$AA?9?$AAm?$AAs?$AA?9?$AAw?$AAi?$AAn?$AA?9?$AAc?$AAo?$AAr?$AAe?$AA?9?$AAf?$AAi?$AAl?$AAe?$AA?9?$AAl?$AA2?$AA?9?$AA1?$AA?9?$AA1?$AA?$AA@ 0000000180032c00     libucrt:winapi_thunks.obj
 0002:00001c40       ??_C@_1EI@MPIAOHOC@?$AAa?$AAp?$AAi?$AA?9?$AAm?$AAs?$AA?9?$AAw?$AAi?$AAn?$AA?9?$AAc?$AAo?$AAr?$AAe?$AA?9?$AAl?$AAo?$AAc?$AAa?$AAl?$AAi?$AAz?$AAa?$AAt?$AAi?$AAo?$AAn?$AA?9?$AAl?$AA1?$AA?9@ 0000000180032c40     libucrt:winapi_thunks.obj
 0002:00001c90       ??_C@_1FK@FPHCKFIE@?$AAa?$AAp?$AAi?$AA?9?$AAm?$AAs?$AA?9?$AAw?$AAi?$AAn?$AA?9?$AAc?$AAo?$AAr?$AAe?$AA?9?$AAl?$AAo?$AAc?$AAa?$AAl?$AAi?$AAz?$AAa?$AAt?$AAi?$AAo?$AAn?$AA?9?$AAo?$AAb?$AAs@ 0000000180032c90     libucrt:winapi_thunks.obj
 0002:00001cf0       ??_C@_1EM@DILCGIIO@?$AAa?$AAp?$AAi?$AA?9?$AAm?$AAs?$AA?9?$AAw?$AAi?$AAn?$AA?9?$AAc?$AAo?$AAr?$AAe?$AA?9?$AAp?$AAr?$AAo?$AAc?$AAe?$AAs?$AAs?$AAt?$AAh?$AAr?$AAe?$AAa?$AAd?$AAs?$AA?9?$AAl@ 0000000180032cf0     libucrt:winapi_thunks.obj
 0002:00001d40       ??_C@_1DM@LNCGDDPN@?$AAa?$AAp?$AAi?$AA?9?$AAm?$AAs?$AA?9?$AAw?$AAi?$AAn?$AA?9?$AAc?$AAo?$AAr?$AAe?$AA?9?$AAs?$AAt?$AAr?$AAi?$AAn?$AAg?$AA?9?$AAl?$AA1?$AA?9?$AA1?$AA?9?$AA0?$AA?$AA@ 0000000180032d40     libucrt:winapi_thunks.obj
 0002:00001d80       ??_C@_1DO@FPAPJEMD@?$AAa?$AAp?$AAi?$AA?9?$AAm?$AAs?$AA?9?$AAw?$AAi?$AAn?$AA?9?$AAc?$AAo?$AAr?$AAe?$AA?9?$AAs?$AAy?$AAs?$AAi?$AAn?$AAf?$AAo?$AA?9?$AAl?$AA1?$AA?9?$AA2?$AA?9?$AA1?$AA?$AA@ 0000000180032d80     libucrt:winapi_thunks.obj
 0002:00001dc0       ??_C@_1DK@NDHNAHIO@?$AAa?$AAp?$AAi?$AA?9?$AAm?$AAs?$AA?9?$AAw?$AAi?$AAn?$AA?9?$AAc?$AAo?$AAr?$AAe?$AA?9?$AAw?$AAi?$AAn?$AAr?$AAt?$AA?9?$AAl?$AA1?$AA?9?$AA1?$AA?9?$AA0?$AA?$AA@ 0000000180032dc0     libucrt:winapi_thunks.obj
 0002:00001e00       ??_C@_1DM@KGHDGBCM@?$AAa?$AAp?$AAi?$AA?9?$AAm?$AAs?$AA?9?$AAw?$AAi?$AAn?$AA?9?$AAc?$AAo?$AAr?$AAe?$AA?9?$AAx?$AAs?$AAt?$AAa?$AAt?$AAe?$AA?9?$AAl?$AA2?$AA?9?$AA1?$AA?9?$AA0?$AA?$AA@ 0000000180032e00     libucrt:winapi_thunks.obj
 0002:00001e40       ??_C@_1EO@IJIOEFOH@?$AAa?$AAp?$AAi?$AA?9?$AAm?$AAs?$AA?9?$AAw?$AAi?$AAn?$AA?9?$AAr?$AAt?$AAc?$AAo?$AAr?$AAe?$AA?9?$AAn?$AAt?$AAu?$AAs?$AAe?$AAr?$AA?9?$AAw?$AAi?$AAn?$AAd?$AAo?$AAw?$AA?9@ 0000000180032e40     libucrt:winapi_thunks.obj
 0002:00001e90       ??_C@_1FG@HHGEKANL@?$AAa?$AAp?$AAi?$AA?9?$AAm?$AAs?$AA?9?$AAw?$AAi?$AAn?$AA?9?$AAs?$AAe?$AAc?$AAu?$AAr?$AAi?$AAt?$AAy?$AA?9?$AAs?$AAy?$AAs?$AAt?$AAe?$AAm?$AAf?$AAu?$AAn?$AAc?$AAt?$AAi@ 0000000180032e90     libucrt:winapi_thunks.obj
 0002:00001ef0       ??_C@_1FG@NCKKOLKO@?$AAe?$AAx?$AAt?$AA?9?$AAm?$AAs?$AA?9?$AAw?$AAi?$AAn?$AA?9?$AAk?$AAe?$AAr?$AAn?$AAe?$AAl?$AA3?$AA2?$AA?9?$AAp?$AAa?$AAc?$AAk?$AAa?$AAg?$AAe?$AA?9?$AAc?$AAu?$AAr?$AAr@ 0000000180032ef0     libucrt:winapi_thunks.obj
 0002:00001f50       ??_C@_1EG@DBIOJECG@?$AAe?$AAx?$AAt?$AA?9?$AAm?$AAs?$AA?9?$AAw?$AAi?$AAn?$AA?9?$AAn?$AAt?$AAu?$AAs?$AAe?$AAr?$AA?9?$AAd?$AAi?$AAa?$AAl?$AAo?$AAg?$AAb?$AAo?$AAx?$AA?9?$AAl?$AA1?$AA?9?$AA1@ 0000000180032f50     libucrt:winapi_thunks.obj
 0002:00001fa0       ??_C@_1EO@FIHMJCLF@?$AAe?$AAx?$AAt?$AA?9?$AAm?$AAs?$AA?9?$AAw?$AAi?$AAn?$AA?9?$AAn?$AAt?$AAu?$AAs?$AAe?$AAr?$AA?9?$AAw?$AAi?$AAn?$AAd?$AAo?$AAw?$AAs?$AAt?$AAa?$AAt?$AAi?$AAo?$AAn?$AA?9@ 0000000180032fa0     libucrt:winapi_thunks.obj
 0002:00001ff0       ??_C@_1O@BCCLBEOE@?$AAu?$AAs?$AAe?$AAr?$AA3?$AA2?$AA?$AA@ 0000000180032ff0     libucrt:winapi_thunks.obj
 0002:00002008       ??_C@_0BA@FHFNEAED@AreFileApisANSI?$AA@ 0000000180033008     libucrt:winapi_thunks.obj
 0002:00002040       ??_C@_0BA@HNOPNCHB@GetActiveWindow?$AA@ 0000000180033040     libucrt:winapi_thunks.obj
 0002:00002058       ??_C@_0BE@JOGNEJCI@GetCurrentPackageId?$AA@ 0000000180033058     libucrt:winapi_thunks.obj
 0002:00002078       ??_C@_0BD@HHGDFDBJ@GetLastActivePopup?$AA@ 0000000180033078     libucrt:winapi_thunks.obj
 0002:00002098       ??_C@_0BI@DFKBFLJE@GetProcessWindowStation?$AA@ 0000000180033098     libucrt:winapi_thunks.obj
 0002:000020b8       ??_C@_0BK@DEKFELLI@GetUserObjectInformationW?$AA@ 00000001800330b8     libucrt:winapi_thunks.obj
 0002:000020e8       ??_C@_0O@KKBNKAPF@LCMapStringEx?$AA@ 00000001800330e8     libucrt:winapi_thunks.obj
 0002:00002100       ??_C@_0BB@HBDEELFH@LocaleNameToLCID?$AA@ 0000000180033100     libucrt:winapi_thunks.obj
 0002:00002120       ??_C@_0M@CHKKJDAI@MessageBoxA?$AA@ 0000000180033120     libucrt:winapi_thunks.obj
 0002:00002138       ??_C@_0M@DLDCCGNP@MessageBoxW?$AA@ 0000000180033138     libucrt:winapi_thunks.obj
 0002:00002144       ??_C@_03OEIAHPBN@INF?$AA@  0000000180033144     libucrt:cvt.obj
 0002:00002148       ??_C@_03OJHLLCGB@inf?$AA@  0000000180033148     libucrt:cvt.obj
 0002:0000214c       ??_C@_03LKNCIKJB@NAN?$AA@  000000018003314c     libucrt:cvt.obj
 0002:00002150       ??_C@_03LHCJEHON@nan?$AA@  0000000180033150     libucrt:cvt.obj
 0002:00002158       ??_C@_09OFJJIMPC@NAN?$CISNAN?$CJ?$AA@ 0000000180033158     libucrt:cvt.obj
 0002:00002168       ??_C@_09IPFBKMDL@nan?$CIsnan?$CJ?$AA@ 0000000180033168     libucrt:cvt.obj
 0002:00002178       ??_C@_08IKHNHAJ@NAN?$CIIND?$CJ?$AA@ 0000000180033178     libucrt:cvt.obj
 0002:00002188       ??_C@_08OFCDMILK@nan?$CIind?$CJ?$AA@ 0000000180033188     libucrt:cvt.obj
 0002:00002194       ??_C@_05KLBDPFGC@e?$CL000?$AA@ 0000000180033194     libucrt:cvt.obj
 0002:000021a0       __lc_time_c                00000001800331a0     libucrt:nlsdata.obj
 0002:00002460       ??_C@_03KOEHGMDN@Sun?$AA@  0000000180033460     libucrt:nlsdata.obj
 0002:00002464       ??_C@_03PDAGKDH@Mon?$AA@   0000000180033464     libucrt:nlsdata.obj
 0002:00002468       ??_C@_03NAGEINEP@Tue?$AA@  0000000180033468     libucrt:nlsdata.obj
 0002:0000246c       ??_C@_03MHOMLAJA@Wed?$AA@  000000018003346c     libucrt:nlsdata.obj
 0002:00002470       ??_C@_03IOFIKPDN@Thu?$AA@  0000000180033470     libucrt:nlsdata.obj
 0002:00002474       ??_C@_03IDIOELNC@Fri?$AA@  0000000180033474     libucrt:nlsdata.obj
 0002:00002478       ??_C@_03FEFJNEK@Sat?$AA@   0000000180033478     libucrt:nlsdata.obj
 0002:0000247c       ??_C@_06OOPIFAJ@Sunday?$AA@ 000000018003347c     libucrt:nlsdata.obj
 0002:00002484       ??_C@_06JLEDEDGH@Monday?$AA@ 0000000180033484     libucrt:nlsdata.obj
 0002:00002490       ??_C@_07BAAGCFCM@Tuesday?$AA@ 0000000180033490     libucrt:nlsdata.obj
 0002:00002498       ??_C@_09DLIGFAKA@Wednesday?$AA@ 0000000180033498     libucrt:nlsdata.obj
 0002:000024a8       ??_C@_08HACCIKIA@Thursday?$AA@ 00000001800334a8     libucrt:nlsdata.obj
 0002:000024b4       ??_C@_06JECMNKMI@Friday?$AA@ 00000001800334b4     libucrt:nlsdata.obj
 0002:000024c0       ??_C@_08INBOOONO@Saturday?$AA@ 00000001800334c0     libucrt:nlsdata.obj
 0002:000024cc       ??_C@_03JIHJHPIE@Jan?$AA@  00000001800334cc     libucrt:nlsdata.obj
 0002:000024d0       ??_C@_03HJBDCHOM@Feb?$AA@  00000001800334d0     libucrt:nlsdata.obj
 0002:000024d4       ??_C@_03ODNJBKGA@Mar?$AA@  00000001800334d4     libucrt:nlsdata.obj
 0002:000024d8       ??_C@_03LEOLGMJP@Apr?$AA@  00000001800334d8     libucrt:nlsdata.obj
 0002:000024dc       ??_C@_03CNMDKL@May?$AA@    00000001800334dc     libucrt:nlsdata.obj
 0002:000024e0       ??_C@_03IDFGHECI@Jun?$AA@  00000001800334e0     libucrt:nlsdata.obj
 0002:000024e4       ??_C@_03LBGABGKK@Jul?$AA@  00000001800334e4     libucrt:nlsdata.obj
 0002:000024e8       ??_C@_03IFJFEIGA@Aug?$AA@  00000001800334e8     libucrt:nlsdata.obj
 0002:000024ec       ??_C@_03GGCAPAJC@Sep?$AA@  00000001800334ec     libucrt:nlsdata.obj
 0002:000024f0       ??_C@_03BMAOKBAD@Oct?$AA@  00000001800334f0     libucrt:nlsdata.obj
 0002:000024f4       ??_C@_03JPJOFNIA@Nov?$AA@  00000001800334f4     libucrt:nlsdata.obj
 0002:000024f8       ??_C@_03MKABNOCG@Dec?$AA@  00000001800334f8     libucrt:nlsdata.obj
 0002:00002500       ??_C@_07CGJPFGJA@January?$AA@ 0000000180033500     libucrt:nlsdata.obj
 0002:00002508       ??_C@_08GNJGEPFN@February?$AA@ 0000000180033508     libucrt:nlsdata.obj
 0002:00002514       ??_C@_05HPCKOFNC@March?$AA@ 0000000180033514     libucrt:nlsdata.obj
 0002:0000251c       ??_C@_05DMJDNLEJ@April?$AA@ 000000018003351c     libucrt:nlsdata.obj
 0002:00002524       ??_C@_04CNLMGBGM@June?$AA@ 0000000180033524     libucrt:nlsdata.obj
 0002:0000252c       ??_C@_04MIEPOIFP@July?$AA@ 000000018003352c     libucrt:nlsdata.obj
 0002:00002534       ??_C@_06LBBHFDDG@August?$AA@ 0000000180033534     libucrt:nlsdata.obj
 0002:00002540       ??_C@_09BHHEALKD@September?$AA@ 0000000180033540     libucrt:nlsdata.obj
 0002:00002550       ??_C@_07JJNFCEND@October?$AA@ 0000000180033550     libucrt:nlsdata.obj
 0002:00002558       ??_C@_08HCHEGEOA@November?$AA@ 0000000180033558     libucrt:nlsdata.obj
 0002:00002568       ??_C@_08EDHMEBNP@December?$AA@ 0000000180033568     libucrt:nlsdata.obj
 0002:00002574       ??_C@_02DEDBPAFC@AM?$AA@   0000000180033574     libucrt:nlsdata.obj
 0002:00002578       ??_C@_02CJNFDJBF@PM?$AA@   0000000180033578     libucrt:nlsdata.obj
 0002:00002580       ??_C@_08BPBNCDIB@MM?1dd?1yy?$AA@ 0000000180033580     libucrt:nlsdata.obj
 0002:00002590       ??_C@_0BE@CKGJFCPC@dddd?0?5MMMM?5dd?0?5yyyy?$AA@ 0000000180033590     libucrt:nlsdata.obj
 0002:000025a8       ??_C@_08JCCMCCIL@HH?3mm?3ss?$AA@ 00000001800335a8     libucrt:nlsdata.obj
 0002:000025b8       ??_C@_17MBGCMIPB@?$AAS?$AAu?$AAn?$AA?$AA@ 00000001800335b8     libucrt:nlsdata.obj
 0002:000025c0       ??_C@_17KBOMKBF@?$AAM?$AAo?$AAn?$AA?$AA@ 00000001800335c0     libucrt:nlsdata.obj
 0002:000025c8       ??_C@_17BMKGEGOJ@?$AAT?$AAu?$AAe?$AA?$AA@ 00000001800335c8     libucrt:nlsdata.obj
 0002:000025d0       ??_C@_17CJEDCEPE@?$AAW?$AAe?$AAd?$AA?$AA@ 00000001800335d0     libucrt:nlsdata.obj
 0002:000025d8       ??_C@_17PDPHAADD@?$AAT?$AAh?$AAu?$AA?$AA@ 00000001800335d8     libucrt:nlsdata.obj
 0002:000025e0       ??_C@_17HFOLPPLP@?$AAF?$AAr?$AAi?$AA?$AA@ 00000001800335e0     libucrt:nlsdata.obj
 0002:000025e8       ??_C@_17GGIBDPIH@?$AAS?$AAa?$AAt?$AA?$AA@ 00000001800335e8     libucrt:nlsdata.obj
 0002:000025f0       ??_C@_1O@IHNHDHPB@?$AAS?$AAu?$AAn?$AAd?$AAa?$AAy?$AA?$AA@ 00000001800335f0     libucrt:nlsdata.obj
 0002:00002600       ??_C@_1O@MMNBFLIA@?$AAM?$AAo?$AAn?$AAd?$AAa?$AAy?$AA?$AA@ 0000000180033600     libucrt:nlsdata.obj
 0002:00002610       ??_C@_1BA@ENFBFFEK@?$AAT?$AAu?$AAe?$AAs?$AAd?$AAa?$AAy?$AA?$AA@ 0000000180033610     libucrt:nlsdata.obj
 0002:00002620       ??_C@_1BE@EBOGMDOH@?$AAW?$AAe?$AAd?$AAn?$AAe?$AAs?$AAd?$AAa?$AAy?$AA?$AA@ 0000000180033620     libucrt:nlsdata.obj
 0002:00002638       ??_C@_1BC@HHMNLIHE@?$AAT?$AAh?$AAu?$AAr?$AAs?$AAd?$AAa?$AAy?$AA?$AA@ 0000000180033638     libucrt:nlsdata.obj
 0002:00002650       ??_C@_1O@PDICJHAG@?$AAF?$AAr?$AAi?$AAd?$AAa?$AAy?$AA?$AA@ 0000000180033650     libucrt:nlsdata.obj
 0002:00002660       ??_C@_1BC@ENMNNPAJ@?$AAS?$AAa?$AAt?$AAu?$AAr?$AAd?$AAa?$AAy?$AA?$AA@ 0000000180033660     libucrt:nlsdata.obj
 0002:00002678       ??_C@_17DKNBKCHM@?$AAJ?$AAa?$AAn?$AA?$AA@ 0000000180033678     libucrt:nlsdata.obj
 0002:00002680       ??_C@_17LMDJEKJN@?$AAF?$AAe?$AAb?$AA?$AA@ 0000000180033680     libucrt:nlsdata.obj
 0002:00002688       ??_C@_17CKNLEDEC@?$AAM?$AAa?$AAr?$AA?$AA@ 0000000180033688     libucrt:nlsdata.obj
 0002:00002690       ??_C@_17LFPOIHDD@?$AAA?$AAp?$AAr?$AA?$AA@ 0000000180033690     libucrt:nlsdata.obj
 0002:00002698       ??_C@_17PNNKMEED@?$AAM?$AAa?$AAy?$AA?$AA@ 0000000180033698     libucrt:nlsdata.obj
 0002:000026a0       ??_C@_17KCJGOCPB@?$AAJ?$AAu?$AAn?$AA?$AA@ 00000001800336a0     libucrt:nlsdata.obj
 0002:000026a8       ??_C@_17IJPCKHK@?$AAJ?$AAu?$AAl?$AA?$AA@ 00000001800336a8     libucrt:nlsdata.obj
 0002:000026b0       ??_C@_17ICPELBCN@?$AAA?$AAu?$AAg?$AA?$AA@ 00000001800336b0     libucrt:nlsdata.obj
 0002:000026b8       ??_C@_17HCHCOKMG@?$AAS?$AAe?$AAp?$AA?$AA@ 00000001800336b8     libucrt:nlsdata.obj
 0002:000026c0       ??_C@_17FNLKOI@?$AAO?$AAc?$AAt?$AA?$AA@ 00000001800336c0     libucrt:nlsdata.obj
 0002:000026c8       ??_C@_17BBDMLCIG@?$AAN?$AAo?$AAv?$AA?$AA@ 00000001800336c8     libucrt:nlsdata.obj
 0002:000026d0       ??_C@_17EGKACKIF@?$AAD?$AAe?$AAc?$AA?$AA@ 00000001800336d0     libucrt:nlsdata.obj
 0002:000026d8       ??_C@_1BA@EFMEIEBA@?$AAJ?$AAa?$AAn?$AAu?$AAa?$AAr?$AAy?$AA?$AA@ 00000001800336d8     libucrt:nlsdata.obj
 0002:000026e8       ??_C@_1BC@JGDDFFAM@?$AAF?$AAe?$AAb?$AAr?$AAu?$AAa?$AAr?$AAy?$AA?$AA@ 00000001800336e8     libucrt:nlsdata.obj
 0002:00002700       ??_C@_1M@IKEENEDF@?$AAM?$AAa?$AAr?$AAc?$AAh?$AA?$AA@ 0000000180033700     libucrt:nlsdata.obj
 0002:00002710       ??_C@_1M@GJNLMHFD@?$AAA?$AAp?$AAr?$AAi?$AAl?$AA?$AA@ 0000000180033710     libucrt:nlsdata.obj
 0002:00002720       ??_C@_19EPFLPGAP@?$AAJ?$AAu?$AAn?$AAe?$AA?$AA@ 0000000180033720     libucrt:nlsdata.obj
 0002:00002730       ??_C@_19BIFMLPCD@?$AAJ?$AAu?$AAl?$AAy?$AA?$AA@ 0000000180033730     libucrt:nlsdata.obj
 0002:00002740       ??_C@_1O@PAHLKOAC@?$AAA?$AAu?$AAg?$AAu?$AAs?$AAt?$AA?$AA@ 0000000180033740     libucrt:nlsdata.obj
 0002:00002750       ??_C@_1BE@DKAAMBJL@?$AAS?$AAe?$AAp?$AAt?$AAe?$AAm?$AAb?$AAe?$AAr?$AA?$AA@ 0000000180033750     libucrt:nlsdata.obj
 0002:00002768       ??_C@_1BA@EPANDLNG@?$AAO?$AAc?$AAt?$AAo?$AAb?$AAe?$AAr?$AA?$AA@ 0000000180033768     libucrt:nlsdata.obj
 0002:00002778       ??_C@_1BC@BGLIFPF@?$AAN?$AAo?$AAv?$AAe?$AAm?$AAb?$AAe?$AAr?$AA?$AA@ 0000000180033778     libucrt:nlsdata.obj
 0002:00002790       ??_C@_1BC@FEMKIFH@?$AAD?$AAe?$AAc?$AAe?$AAm?$AAb?$AAe?$AAr?$AA?$AA@ 0000000180033790     libucrt:nlsdata.obj
 0002:000027a4       ??_C@_15ODEHAHHF@?$AAA?$AAM?$AA?$AA@ 00000001800337a4     libucrt:nlsdata.obj
 0002:000027ac       ??_C@_15CLMNNGEL@?$AAP?$AAM?$AA?$AA@ 00000001800337ac     libucrt:nlsdata.obj
 0002:000027b8       ??_C@_1BC@IEBCMHCM@?$AAM?$AAM?$AA?1?$AAd?$AAd?$AA?1?$AAy?$AAy?$AA?$AA@ 00000001800337b8     libucrt:nlsdata.obj
 0002:000027d0       ??_C@_1CI@KNAKOEBC@?$AAd?$AAd?$AAd?$AAd?$AA?0?$AA?5?$AAM?$AAM?$AAM?$AAM?$AA?5?$AAd?$AAd?$AA?0?$AA?5?$AAy?$AAy?$AAy?$AAy?$AA?$AA@ 00000001800337d0     libucrt:nlsdata.obj
 0002:000027f8       ??_C@_1BC@GDGBMEMK@?$AAH?$AAH?$AA?3?$AAm?$AAm?$AA?3?$AAs?$AAs?$AA?$AA@ 00000001800337f8     libucrt:nlsdata.obj
 0002:00002810       ??_C@_1M@BMHNFIME@?$AAe?$AAn?$AA?9?$AAU?$AAS?$AA?$AA@ 0000000180033810     libucrt:nlsdata.obj
 0002:0000281c       ?ccs@?BL@???$__acrt_stdio_parse_mode@D@@YA?AU__acrt_stdio_stream_mode@@QEBD@Z@4QBDB 000000018003381c     libucrt:openfile.obj
 0002:00002820       ?utf8_encoding@?BL@???$__acrt_stdio_parse_mode@D@@YA?AU__acrt_stdio_stream_mode@@QEBD@Z@4QBDB 0000000180033820     libucrt:openfile.obj
 0002:00002828       ?utf16_encoding@?BL@???$__acrt_stdio_parse_mode@D@@YA?AU__acrt_stdio_stream_mode@@QEBD@Z@4QBDB 0000000180033828     libucrt:openfile.obj
 0002:00002830       ?unicode_encoding@?BL@???$__acrt_stdio_parse_mode@D@@YA?AU__acrt_stdio_stream_mode@@QEBD@Z@4QBDB 0000000180033830     libucrt:openfile.obj
 0002:00002858       ??_C@_1M@HPNHIDJI@?$AAj?$AAa?$AA?9?$AAJ?$AAP?$AA?$AA@ 0000000180033858     libucrt:mbctype.obj
 0002:00002868       ??_C@_1M@BIBDDEMK@?$AAz?$AAh?$AA?9?$AAC?$AAN?$AA?$AA@ 0000000180033868     libucrt:mbctype.obj
 0002:00002878       ??_C@_1M@JLOOOEGK@?$AAk?$AAo?$AA?9?$AAK?$AAR?$AA?$AA@ 0000000180033878     libucrt:mbctype.obj
 0002:00002888       ??_C@_1M@CLNBBOPM@?$AAz?$AAh?$AA?9?$AAT?$AAW?$AA?$AA@ 0000000180033888     libucrt:mbctype.obj
 0002:000028a0       __newctype                 00000001800338a0     libucrt:ctype.obj
 0002:00002ba0       __newclmap                 0000000180033ba0     libucrt:ctype.obj
 0002:00002d20       __newcumap                 0000000180033d20     libucrt:ctype.obj
 0002:00002ea0       _wctype                    0000000180033ea0     libucrt:ctype.obj
 0002:000030a4       ??_C@_05HGHHAHAP@log10?$AA@ 00000001800340a4     libucrt:fpexcept.obj
 0002:000030ac       ??_C@_04PDIFKINK@acos?$AA@ 00000001800340ac     libucrt:fpexcept.obj
 0002:00003f00       ??_C@_15EMKDOKLE@?$AAa?$AAr?$AA?$AA@ 0000000180034f00     libucrt:lcidtoname_downlevel.obj
 0002:00003f08       ??_C@_15KNPADPLH@?$AAb?$AAg?$AA?$AA@ 0000000180034f08     libucrt:lcidtoname_downlevel.obj
 0002:00003f10       ??_C@_15EDMHLDMO@?$AAc?$AAa?$AA?$AA@ 0000000180034f10     libucrt:lcidtoname_downlevel.obj
 0002:00003f18       ??_C@_1O@BPEAJADD@?$AAz?$AAh?$AA?9?$AAC?$AAH?$AAS?$AA?$AA@ 0000000180034f18     libucrt:lcidtoname_downlevel.obj
 0002:00003f28       ??_C@_15LJNHCMNK@?$AAc?$AAs?$AA?$AA@ 0000000180034f28     libucrt:lcidtoname_downlevel.obj
 0002:00003f30       ??_C@_15FOMCIDHG@?$AAd?$AAa?$AA?$AA@ 0000000180034f30     libucrt:lcidtoname_downlevel.obj
 0002:00003f38       ??_C@_15NBKABECB@?$AAd?$AAe?$AA?$AA@ 0000000180034f38     libucrt:lcidtoname_downlevel.obj
 0002:00003f40       ??_C@_15GHPEIIAO@?$AAe?$AAl?$AA?$AA@ 0000000180034f40     libucrt:lcidtoname_downlevel.obj
 0002:00003f48       ??_C@_15MNPNEAIF@?$AAe?$AAn?$AA?$AA@ 0000000180034f48     libucrt:lcidtoname_downlevel.obj
 0002:00003f50       ??_C@_15GPIOMPMH@?$AAe?$AAs?$AA?$AA@ 0000000180034f50     libucrt:lcidtoname_downlevel.obj
 0002:00003f58       ??_C@_15NGLOAKJC@?$AAf?$AAi?$AA?$AA@ 0000000180034f58     libucrt:lcidtoname_downlevel.obj
 0002:00003f60       ??_C@_15FBKGNKAM@?$AAf?$AAr?$AA?$AA@ 0000000180034f60     libucrt:lcidtoname_downlevel.obj
 0002:00003f68       ??_C@_15KGGCNEFK@?$AAh?$AAe?$AA?$AA@ 0000000180034f68     libucrt:lcidtoname_downlevel.obj
 0002:00003f70       ??_C@_15PGHLIDMF@?$AAh?$AAu?$AA?$AA@ 0000000180034f70     libucrt:lcidtoname_downlevel.obj
 0002:00003f78       ??_C@_15BIEMAPLM@?$AAi?$AAs?$AA?$AA@ 0000000180034f78     libucrt:lcidtoname_downlevel.obj
 0002:00003f80       ??_C@_15IFJLDHAF@?$AAi?$AAt?$AA?$AA@ 0000000180034f80     libucrt:lcidtoname_downlevel.obj
 0002:00003f88       ??_C@_15GEMIOCAG@?$AAj?$AAa?$AA?$AA@ 0000000180034f88     libucrt:lcidtoname_downlevel.obj
 0002:00003f90       ??_C@_15EPELEGJA@?$AAk?$AAo?$AA?$AA@ 0000000180034f90     libucrt:lcidtoname_downlevel.obj
 0002:00003f98       ??_C@_15NDDHIMN@?$AAn?$AAl?$AA?$AA@ 0000000180034f98     libucrt:lcidtoname_downlevel.obj
 0002:00003fa0       ??_C@_15BPIGNHCD@?$AAn?$AAo?$AA?$AA@ 0000000180034fa0     libucrt:lcidtoname_downlevel.obj
 0002:00003fa8       ??_C@_15DEOPBLCG@?$AAp?$AAl?$AA?$AA@ 0000000180034fa8     libucrt:lcidtoname_downlevel.obj
 0002:00003fb0       ??_C@_15KBECGEFG@?$AAp?$AAt?$AA?$AA@ 0000000180034fb0     libucrt:lcidtoname_downlevel.obj
 0002:00003fb8       ??_C@_15GLJCBFMD@?$AAr?$AAo?$AA?$AA@ 0000000180034fb8     libucrt:lcidtoname_downlevel.obj
 0002:00003fc0       ??_C@_15FEDGKCDI@?$AAr?$AAu?$AA?$AA@ 0000000180034fc0     libucrt:lcidtoname_downlevel.obj
 0002:00003fc8       ??_C@_15GLKMLLHM@?$AAh?$AAr?$AA?$AA@ 0000000180034fc8     libucrt:lcidtoname_downlevel.obj
 0002:00003fd0       ??_C@_15CPKMFBDB@?$AAs?$AAk?$AA?$AA@ 0000000180034fd0     libucrt:lcidtoname_downlevel.obj
 0002:00003fd8       ??_C@_15BAAIOGMK@?$AAs?$AAq?$AA?$AA@ 0000000180034fd8     libucrt:lcidtoname_downlevel.obj
 0002:00003fe0       ??_C@_15INNPNOHD@?$AAs?$AAv?$AA?$AA@ 0000000180034fe0     libucrt:lcidtoname_downlevel.obj
 0002:00003fe8       ??_C@_15CABMMOGH@?$AAt?$AAh?$AA?$AA@ 0000000180034fe8     libucrt:lcidtoname_downlevel.obj
 0002:00003ff0       ??_C@_15BPLIHJJM@?$AAt?$AAr?$AA?$AA@ 0000000180034ff0     libucrt:lcidtoname_downlevel.obj
 0002:00003ff8       ??_C@_15NEOEKKDJ@?$AAu?$AAr?$AA?$AA@ 0000000180034ff8     libucrt:lcidtoname_downlevel.obj
 0002:00004000       ??_C@_15NFICGAJK@?$AAi?$AAd?$AA?$AA@ 0000000180035000     libucrt:lcidtoname_downlevel.obj
 0002:00004008       ??_C@_15PJPFLCCM@?$AAu?$AAk?$AA?$AA@ 0000000180035008     libucrt:lcidtoname_downlevel.obj
 0002:00004010       ??_C@_15HPJPHDM@?$AAb?$AAe?$AA?$AA@ 0000000180035010     libucrt:lcidtoname_downlevel.obj
 0002:00004018       ??_C@_15LCHLGJII@?$AAs?$AAl?$AA?$AA@ 0000000180035018     libucrt:lcidtoname_downlevel.obj
 0002:00004020       ??_C@_15PCFJPHHO@?$AAe?$AAt?$AA?$AA@ 0000000180035020     libucrt:lcidtoname_downlevel.obj
 0002:00004028       ??_C@_15HPFPGODN@?$AAl?$AAv?$AA?$AA@ 0000000180035028     libucrt:lcidtoname_downlevel.obj
 0002:00004030       ??_C@_15NFFGKGLG@?$AAl?$AAt?$AA?$AA@ 0000000180035030     libucrt:lcidtoname_downlevel.obj
 0002:00004038       ??_C@_15BDAKCCHN@?$AAf?$AAa?$AA?$AA@ 0000000180035038     libucrt:lcidtoname_downlevel.obj
 0002:00004040       ??_C@_15NFGIAIAJ@?$AAv?$AAi?$AA?$AA@ 0000000180035040     libucrt:lcidtoname_downlevel.obj
 0002:00004048       ??_C@_15LMKNDMHN@?$AAh?$AAy?$AA?$AA@ 0000000180035048     libucrt:lcidtoname_downlevel.obj
 0002:00004050       ??_C@_15IJBHMCFL@?$AAa?$AAz?$AA?$AA@ 0000000180035050     libucrt:lcidtoname_downlevel.obj
 0002:00004058       ??_C@_15EKOFJABL@?$AAe?$AAu?$AA?$AA@ 0000000180035058     libucrt:lcidtoname_downlevel.obj
 0002:00004060       ??_C@_15BGHADCNK@?$AAm?$AAk?$AA?$AA@ 0000000180035060     libucrt:lcidtoname_downlevel.obj
 0002:00004068       ??_C@_15JDNICKHM@?$AAa?$AAf?$AA?$AA@ 0000000180035068     libucrt:lcidtoname_downlevel.obj
 0002:00004070       ??_C@_15KPJEDBKD@?$AAk?$AAa?$AA?$AA@ 0000000180035070     libucrt:lcidtoname_downlevel.obj
 0002:00004078       ??_C@_15PDNFFFEO@?$AAf?$AAo?$AA?$AA@ 0000000180035078     libucrt:lcidtoname_downlevel.obj
 0002:00004080       ??_C@_15OMLEGLOC@?$AAh?$AAi?$AA?$AA@ 0000000180035080     libucrt:lcidtoname_downlevel.obj
 0002:00004088       ??_C@_15IDNNENKK@?$AAm?$AAs?$AA?$AA@ 0000000180035088     libucrt:lcidtoname_downlevel.obj
 0002:00004090       ??_C@_15MACJNBMH@?$AAk?$AAk?$AA?$AA@ 0000000180035090     libucrt:lcidtoname_downlevel.obj
 0002:00004098       ??_C@_15DKDJEOND@?$AAk?$AAy?$AA?$AA@ 0000000180035098     libucrt:lcidtoname_downlevel.obj
 0002:000040a0       ??_C@_15DFGDLJBG@?$AAs?$AAw?$AA?$AA@ 00000001800350a0     libucrt:lcidtoname_downlevel.obj
 0002:000040a8       ??_C@_15BBFAICNG@?$AAu?$AAz?$AA?$AA@ 00000001800350a8     libucrt:lcidtoname_downlevel.obj
 0002:000040b0       ??_C@_15DKNDCGEA@?$AAt?$AAt?$AA?$AA@ 00000001800350b0     libucrt:lcidtoname_downlevel.obj
 0002:000040b8       ??_C@_15MGIFMDPL@?$AAp?$AAa?$AA?$AA@ 00000001800350b8     libucrt:lcidtoname_downlevel.obj
 0002:000040c0       ??_C@_15HCNDBBA@?$AAg?$AAu?$AA?$AA@ 00000001800350c0     libucrt:lcidtoname_downlevel.obj
 0002:000040c8       ??_C@_15FNBEIBON@?$AAt?$AAa?$AA?$AA@ 00000001800350c8     libucrt:lcidtoname_downlevel.obj
 0002:000040d0       ??_C@_15NCHGBGLK@?$AAt?$AAe?$AA?$AA@ 00000001800350d0     libucrt:lcidtoname_downlevel.obj
 0002:000040d8       ??_C@_15PHPHCBPF@?$AAk?$AAn?$AA?$AA@ 00000001800350d8     libucrt:lcidtoname_downlevel.obj
 0002:000040e0       ??_C@_15DLGBCKMP@?$AAm?$AAr?$AA?$AA@ 00000001800350e0     libucrt:lcidtoname_downlevel.obj
 0002:000040e8       ??_C@_15EABBLBFF@?$AAs?$AAa?$AA?$AA@ 00000001800350e8     libucrt:lcidtoname_downlevel.obj
 0002:000040f0       ??_C@_15CBKOMCOI@?$AAm?$AAn?$AA?$AA@ 00000001800350f0     libucrt:lcidtoname_downlevel.obj
 0002:000040f8       ??_C@_15CKDMCJAF@?$AAg?$AAl?$AA?$AA@ 00000001800350f8     libucrt:lcidtoname_downlevel.obj
 0002:00004100       ??_C@_17CNJFBPG@?$AAk?$AAo?$AAk?$AA?$AA@ 0000000180035100     libucrt:lcidtoname_downlevel.obj
 0002:00004108       ??_C@_17FFBJICPL@?$AAs?$AAy?$AAr?$AA?$AA@ 0000000180035108     libucrt:lcidtoname_downlevel.obj
 0002:00004110       ??_C@_17KPNDCPAF@?$AAd?$AAi?$AAv?$AA?$AA@ 0000000180035110     libucrt:lcidtoname_downlevel.obj
 0002:00004118       ??_C@_1M@OKAHONE@?$AAa?$AAr?$AA?9?$AAS?$AAA?$AA?$AA@ 0000000180035118     libucrt:lcidtoname_downlevel.obj
 0002:00004128       ??_C@_1M@FFFIGIGK@?$AAb?$AAg?$AA?9?$AAB?$AAG?$AA?$AA@ 0000000180035128     libucrt:lcidtoname_downlevel.obj
 0002:00004138       ??_C@_1M@BJNKEDC@?$AAc?$AAa?$AA?9?$AAE?$AAS?$AA?$AA@ 0000000180035138     libucrt:lcidtoname_downlevel.obj
 0002:00004148       ??_C@_1M@IJJHFJHA@?$AAc?$AAs?$AA?9?$AAC?$AAZ?$AA?$AA@ 0000000180035148     libucrt:lcidtoname_downlevel.obj
 0002:00004158       ??_C@_1M@CLPEOBGI@?$AAd?$AAa?$AA?9?$AAD?$AAK?$AA?$AA@ 0000000180035158     libucrt:lcidtoname_downlevel.obj
 0002:00004168       ??_C@_1M@MCMADGCB@?$AAd?$AAe?$AA?9?$AAD?$AAE?$AA?$AA@ 0000000180035168     libucrt:lcidtoname_downlevel.obj
 0002:00004178       ??_C@_1M@OOCKEMAM@?$AAe?$AAl?$AA?9?$AAG?$AAR?$AA?$AA@ 0000000180035178     libucrt:lcidtoname_downlevel.obj
 0002:00004188       ??_C@_1M@DDNJFGID@?$AAf?$AAi?$AA?9?$AAF?$AAI?$AA?$AA@ 0000000180035188     libucrt:lcidtoname_downlevel.obj
 0002:00004198       ??_C@_1M@GLIPPMAC@?$AAf?$AAr?$AA?9?$AAF?$AAR?$AA?$AA@ 0000000180035198     libucrt:lcidtoname_downlevel.obj
 0002:000041a8       ??_C@_1M@GFMCHPE@?$AAh?$AAe?$AA?9?$AAI?$AAL?$AA?$AA@ 00000001800351a8     libucrt:lcidtoname_downlevel.obj
 0002:000041b8       ??_C@_1M@MHLPGNKM@?$AAh?$AAu?$AA?9?$AAH?$AAU?$AA?$AA@ 00000001800351b8     libucrt:lcidtoname_downlevel.obj
 0002:000041c8       ??_C@_1M@LPDDNNPN@?$AAi?$AAs?$AA?9?$AAI?$AAS?$AA?$AA@ 00000001800351c8     libucrt:lcidtoname_downlevel.obj
 0002:000041d8       ??_C@_1M@MADIPODN@?$AAi?$AAt?$AA?9?$AAI?$AAT?$AA?$AA@ 00000001800351d8     libucrt:lcidtoname_downlevel.obj
 0002:000041e8       ??_C@_1M@IHBJJGG@?$AAn?$AAl?$AA?9?$AAN?$AAL?$AA?$AA@ 00000001800351e8     libucrt:lcidtoname_downlevel.obj
 0002:000041f8       ??_C@_1M@EANAGDL@?$AAn?$AAb?$AA?9?$AAN?$AAO?$AA?$AA@ 00000001800351f8     libucrt:lcidtoname_downlevel.obj
 0002:00004208       ??_C@_1M@NEIEMEGP@?$AAp?$AAl?$AA?9?$AAP?$AAL?$AA?$AA@ 0000000180035208     libucrt:lcidtoname_downlevel.obj
 0002:00004218       ??_C@_1M@BOCFIGEP@?$AAp?$AAt?$AA?9?$AAB?$AAR?$AA?$AA@ 0000000180035218     libucrt:lcidtoname_downlevel.obj
 0002:00004228       ??_C@_1M@IMPFOPBG@?$AAr?$AAo?$AA?9?$AAR?$AAO?$AA?$AA@ 0000000180035228     libucrt:lcidtoname_downlevel.obj
 0002:00004238       ??_C@_1M@IDNNEJMM@?$AAr?$AAu?$AA?9?$AAR?$AAU?$AA?$AA@ 0000000180035238     libucrt:lcidtoname_downlevel.obj
 0002:00004248       ??_C@_1M@LILEEOGM@?$AAh?$AAr?$AA?9?$AAH?$AAR?$AA?$AA@ 0000000180035248     libucrt:lcidtoname_downlevel.obj
 0002:00004258       ??_C@_1M@FKIFEHPB@?$AAs?$AAk?$AA?9?$AAS?$AAK?$AA?$AA@ 0000000180035258     libucrt:lcidtoname_downlevel.obj
 0002:00004268       ??_C@_1M@LJMAMNPJ@?$AAs?$AAq?$AA?9?$AAA?$AAL?$AA?$AA@ 0000000180035268     libucrt:lcidtoname_downlevel.obj
 0002:00004278       ??_C@_1M@GIAKDKJK@?$AAs?$AAv?$AA?9?$AAS?$AAE?$AA?$AA@ 0000000180035278     libucrt:lcidtoname_downlevel.obj
 0002:00004288       ??_C@_1M@MKJKIKCL@?$AAt?$AAh?$AA?9?$AAT?$AAH?$AA?$AA@ 0000000180035288     libucrt:lcidtoname_downlevel.obj
 0002:00004298       ??_C@_1M@MFLCCMPB@?$AAt?$AAr?$AA?9?$AAT?$AAR?$AA?$AA@ 0000000180035298     libucrt:lcidtoname_downlevel.obj
 0002:000042a8       ??_C@_1M@OIJHDKJN@?$AAu?$AAr?$AA?9?$AAP?$AAK?$AA?$AA@ 00000001800352a8     libucrt:lcidtoname_downlevel.obj
 0002:000042b8       ??_C@_1M@LHIPCIEK@?$AAi?$AAd?$AA?9?$AAI?$AAD?$AA?$AA@ 00000001800352b8     libucrt:lcidtoname_downlevel.obj
 0002:000042c8       ??_C@_1M@MFMOBGI@?$AAu?$AAk?$AA?9?$AAU?$AAA?$AA?$AA@ 00000001800352c8     libucrt:lcidtoname_downlevel.obj
 0002:000042d8       ??_C@_1M@OBGLJIPL@?$AAb?$AAe?$AA?9?$AAB?$AAY?$AA?$AA@ 00000001800352d8     libucrt:lcidtoname_downlevel.obj
 0002:000042e8       ??_C@_1M@BCFAJEAD@?$AAs?$AAl?$AA?9?$AAS?$AAI?$AA?$AA@ 00000001800352e8     libucrt:lcidtoname_downlevel.obj
 0002:000042f8       ??_C@_1M@FKFFEDDN@?$AAe?$AAt?$AA?9?$AAE?$AAE?$AA?$AA@ 00000001800352f8     libucrt:lcidtoname_downlevel.obj
 0002:00004308       ??_C@_1M@KGKKAACI@?$AAl?$AAv?$AA?9?$AAL?$AAV?$AA?$AA@ 0000000180035308     libucrt:lcidtoname_downlevel.obj
 0002:00004318       ??_C@_1M@IFGBIJO@?$AAl?$AAt?$AA?9?$AAL?$AAT?$AA?$AA@ 0000000180035318     libucrt:lcidtoname_downlevel.obj
 0002:00004328       ??_C@_1M@FGEAHEDM@?$AAf?$AAa?$AA?9?$AAI?$AAR?$AA?$AA@ 0000000180035328     libucrt:lcidtoname_downlevel.obj
 0002:00004338       ??_C@_1M@KBMAIBFN@?$AAv?$AAi?$AA?9?$AAV?$AAN?$AA?$AA@ 0000000180035338     libucrt:lcidtoname_downlevel.obj
 0002:00004348       ??_C@_1M@GPCBKDJK@?$AAh?$AAy?$AA?9?$AAA?$AAM?$AA?$AA@ 0000000180035348     libucrt:lcidtoname_downlevel.obj
 0002:00004358       ??_C@_1BG@BECMDDJB@?$AAa?$AAz?$AA?9?$AAA?$AAZ?$AA?9?$AAL?$AAa?$AAt?$AAn?$AA?$AA@ 0000000180035358     libucrt:lcidtoname_downlevel.obj
 0002:00004370       ??_C@_1M@MAOFCAEA@?$AAe?$AAu?$AA?9?$AAE?$AAS?$AA?$AA@ 0000000180035370     libucrt:lcidtoname_downlevel.obj
 0002:00004380       ??_C@_1M@IGHABKPI@?$AAm?$AAk?$AA?9?$AAM?$AAK?$AA?$AA@ 0000000180035380     libucrt:lcidtoname_downlevel.obj
 0002:00004390       ??_C@_1M@IAIGNEJG@?$AAt?$AAn?$AA?9?$AAZ?$AAA?$AA?$AA@ 0000000180035390     libucrt:lcidtoname_downlevel.obj
 0002:000043a0       ??_C@_1M@IIJCOJFA@?$AAx?$AAh?$AA?9?$AAZ?$AAA?$AA?$AA@ 00000001800353a0     libucrt:lcidtoname_downlevel.obj
 0002:000043b0       ??_C@_1M@LGPJHNJH@?$AAz?$AAu?$AA?9?$AAZ?$AAA?$AA?$AA@ 00000001800353b0     libucrt:lcidtoname_downlevel.obj
 0002:000043c0       ??_C@_1M@HOKAOIO@?$AAa?$AAf?$AA?9?$AAZ?$AAA?$AA?$AA@ 00000001800353c0     libucrt:lcidtoname_downlevel.obj
 0002:000043d0       ??_C@_1M@DPCLHLIE@?$AAk?$AAa?$AA?9?$AAG?$AAE?$AA?$AA@ 00000001800353d0     libucrt:lcidtoname_downlevel.obj
 0002:000043e0       ??_C@_1M@BLKMHJBI@?$AAf?$AAo?$AA?9?$AAF?$AAO?$AA?$AA@ 00000001800353e0     libucrt:lcidtoname_downlevel.obj
 0002:000043f0       ??_C@_1M@LGGJAPPB@?$AAh?$AAi?$AA?9?$AAI?$AAN?$AA?$AA@ 00000001800353f0     libucrt:lcidtoname_downlevel.obj
 0002:00004400       ??_C@_1M@FIKPIHFE@?$AAm?$AAt?$AA?9?$AAM?$AAT?$AA?$AA@ 0000000180035400     libucrt:lcidtoname_downlevel.obj
 0002:00004410       ??_C@_1M@HEGGPBFA@?$AAs?$AAe?$AA?9?$AAN?$AAO?$AA?$AA@ 0000000180035410     libucrt:lcidtoname_downlevel.obj
 0002:00004420       ??_C@_1M@EIBJEEPA@?$AAm?$AAs?$AA?9?$AAM?$AAY?$AA?$AA@ 0000000180035420     libucrt:lcidtoname_downlevel.obj
 0002:00004430       ??_C@_1M@FHLBGMPP@?$AAk?$AAk?$AA?9?$AAK?$AAZ?$AA?$AA@ 0000000180035430     libucrt:lcidtoname_downlevel.obj
 0002:00004440       ??_C@_1M@NGJJLCGI@?$AAk?$AAy?$AA?9?$AAK?$AAG?$AA?$AA@ 0000000180035440     libucrt:lcidtoname_downlevel.obj
 0002:00004450       ??_C@_1M@GIENNBFC@?$AAs?$AAw?$AA?9?$AAK?$AAE?$AA?$AA@ 0000000180035450     libucrt:lcidtoname_downlevel.obj
 0002:00004460       ??_C@_1BG@NDGMJIMJ@?$AAu?$AAz?$AA?9?$AAU?$AAZ?$AA?9?$AAL?$AAa?$AAt?$AAn?$AA?$AA@ 0000000180035460     libucrt:lcidtoname_downlevel.obj
 0002:00004478       ??_C@_1M@IDCCIHBC@?$AAt?$AAt?$AA?9?$AAR?$AAU?$AA?$AA@ 0000000180035478     libucrt:lcidtoname_downlevel.obj
 0002:00004488       ??_C@_1M@LOICPMOJ@?$AAb?$AAn?$AA?9?$AAI?$AAN?$AA?$AA@ 0000000180035488     libucrt:lcidtoname_downlevel.obj
 0002:00004498       ??_C@_1M@KPKKNEAH@?$AAp?$AAa?$AA?9?$AAI?$AAN?$AA?$AA@ 0000000180035498     libucrt:lcidtoname_downlevel.obj
 0002:000044a8       ??_C@_1M@PJGPPBOG@?$AAg?$AAu?$AA?9?$AAI?$AAN?$AA?$AA@ 00000001800354a8     libucrt:lcidtoname_downlevel.obj
 0002:000044b8       ??_C@_1M@KMKMOPHI@?$AAt?$AAa?$AA?9?$AAI?$AAN?$AA?$AA@ 00000001800354b8     libucrt:lcidtoname_downlevel.obj
 0002:000044c8       ??_C@_1M@KFEHEPAC@?$AAt?$AAe?$AA?9?$AAI?$AAN?$AA?$AA@ 00000001800354c8     libucrt:lcidtoname_downlevel.obj
 0002:000044d8       ??_C@_1M@CDCLMGHI@?$AAk?$AAn?$AA?9?$AAI?$AAN?$AA?$AA@ 00000001800354d8     libucrt:lcidtoname_downlevel.obj
 0002:000044e8       ??_C@_1M@MIODLDKF@?$AAm?$AAl?$AA?9?$AAI?$AAN?$AA?$AA@ 00000001800354e8     libucrt:lcidtoname_downlevel.obj
 0002:000044f8       ??_C@_1M@PBIEACPO@?$AAm?$AAr?$AA?9?$AAI?$AAN?$AA?$AA@ 00000001800354f8     libucrt:lcidtoname_downlevel.obj
 0002:00004508       ??_C@_1M@NIDEAGPH@?$AAs?$AAa?$AA?9?$AAI?$AAN?$AA?$AA@ 0000000180035508     libucrt:lcidtoname_downlevel.obj
 0002:00004518       ??_C@_1M@FHIHCBIO@?$AAm?$AAn?$AA?9?$AAM?$AAN?$AA?$AA@ 0000000180035518     libucrt:lcidtoname_downlevel.obj
 0002:00004528       ??_C@_1M@JAIJPENP@?$AAc?$AAy?$AA?9?$AAG?$AAB?$AA?$AA@ 0000000180035528     libucrt:lcidtoname_downlevel.obj
 0002:00004538       ??_C@_1M@PHGFBEPN@?$AAg?$AAl?$AA?9?$AAE?$AAS?$AA?$AA@ 0000000180035538     libucrt:lcidtoname_downlevel.obj
 0002:00004548       ??_C@_1O@KPIPDNCP@?$AAk?$AAo?$AAk?$AA?9?$AAI?$AAN?$AA?$AA@ 0000000180035548     libucrt:lcidtoname_downlevel.obj
 0002:00004558       ??_C@_1O@KNHJLDJA@?$AAs?$AAy?$AAr?$AA?9?$AAS?$AAY?$AA?$AA@ 0000000180035558     libucrt:lcidtoname_downlevel.obj
 0002:00004568       ??_C@_1O@MKEKBLAH@?$AAd?$AAi?$AAv?$AA?9?$AAM?$AAV?$AA?$AA@ 0000000180035568     libucrt:lcidtoname_downlevel.obj
 0002:00004578       ??_C@_1O@OHDCKDDF@?$AAq?$AAu?$AAz?$AA?9?$AAB?$AAO?$AA?$AA@ 0000000180035578     libucrt:lcidtoname_downlevel.obj
 0002:00004588       ??_C@_1M@LEPJNLFD@?$AAn?$AAs?$AA?9?$AAZ?$AAA?$AA?$AA@ 0000000180035588     libucrt:lcidtoname_downlevel.obj
 0002:00004598       ??_C@_1M@OMLEIIJB@?$AAm?$AAi?$AA?9?$AAN?$AAZ?$AA?$AA@ 0000000180035598     libucrt:lcidtoname_downlevel.obj
 0002:000045a8       ??_C@_1M@PMPEAILG@?$AAa?$AAr?$AA?9?$AAI?$AAQ?$AA?$AA@ 00000001800355a8     libucrt:lcidtoname_downlevel.obj
 0002:000045b8       ??_C@_1M@CNKPNOEE@?$AAd?$AAe?$AA?9?$AAC?$AAH?$AA?$AA@ 00000001800355b8     libucrt:lcidtoname_downlevel.obj
 0002:000045c8       ??_C@_1M@LKMGMLKO@?$AAe?$AAn?$AA?9?$AAG?$AAB?$AA?$AA@ 00000001800355c8     libucrt:lcidtoname_downlevel.obj
 0002:000045d8       ??_C@_1M@PGKJFFGL@?$AAe?$AAs?$AA?9?$AAM?$AAX?$AA?$AA@ 00000001800355d8     libucrt:lcidtoname_downlevel.obj
 0002:000045e8       ??_C@_1M@DNNANBDC@?$AAf?$AAr?$AA?9?$AAB?$AAE?$AA?$AA@ 00000001800355e8     libucrt:lcidtoname_downlevel.obj
 0002:000045f8       ??_C@_1M@HLGMDFHM@?$AAi?$AAt?$AA?9?$AAC?$AAH?$AA?$AA@ 00000001800355f8     libucrt:lcidtoname_downlevel.obj
 0002:00004608       ??_C@_1M@CLLBGJH@?$AAn?$AAl?$AA?9?$AAB?$AAE?$AA?$AA@ 0000000180035608     libucrt:lcidtoname_downlevel.obj
 0002:00004618       ??_C@_1M@BODBOGLF@?$AAn?$AAn?$AA?9?$AAN?$AAO?$AA?$AA@ 0000000180035618     libucrt:lcidtoname_downlevel.obj
 0002:00004628       ??_C@_1M@HFFAHKAD@?$AAp?$AAt?$AA?9?$AAP?$AAT?$AA?$AA@ 0000000180035628     libucrt:lcidtoname_downlevel.obj
 0002:00004638       ??_C@_1BG@LNOAKHIE@?$AAs?$AAr?$AA?9?$AAS?$AAP?$AA?9?$AAL?$AAa?$AAt?$AAn?$AA?$AA@ 0000000180035638     libucrt:lcidtoname_downlevel.obj
 0002:00004650       ??_C@_1M@HBMHBGAK@?$AAs?$AAv?$AA?9?$AAF?$AAI?$AA?$AA@ 0000000180035650     libucrt:lcidtoname_downlevel.obj
 0002:00004660       ??_C@_1BG@DGCJGJBE@?$AAa?$AAz?$AA?9?$AAA?$AAZ?$AA?9?$AAC?$AAy?$AAr?$AAl?$AA?$AA@ 0000000180035660     libucrt:lcidtoname_downlevel.obj
 0002:00004678       ??_C@_1M@KEJDAAHB@?$AAs?$AAe?$AA?9?$AAS?$AAE?$AA?$AA@ 0000000180035678     libucrt:lcidtoname_downlevel.obj
 0002:00004688       ??_C@_1M@HEIBJJAD@?$AAm?$AAs?$AA?9?$AAB?$AAN?$AA?$AA@ 0000000180035688     libucrt:lcidtoname_downlevel.obj
 0002:00004698       ??_C@_1BG@PBGJMCEM@?$AAu?$AAz?$AA?9?$AAU?$AAZ?$AA?9?$AAC?$AAy?$AAr?$AAl?$AA?$AA@ 0000000180035698     libucrt:lcidtoname_downlevel.obj
 0002:000046b0       ??_C@_1O@LAOBCMDF@?$AAq?$AAu?$AAz?$AA?9?$AAE?$AAC?$AA?$AA@ 00000001800356b0     libucrt:lcidtoname_downlevel.obj
 0002:000046c0       ??_C@_1M@POEEMAIO@?$AAa?$AAr?$AA?9?$AAE?$AAG?$AA?$AA@ 00000001800356c0     libucrt:lcidtoname_downlevel.obj
 0002:000046d0       ??_C@_1M@EFAKDEDL@?$AAz?$AAh?$AA?9?$AAH?$AAK?$AA?$AA@ 00000001800356d0     libucrt:lcidtoname_downlevel.obj
 0002:000046e0       ??_C@_1M@HKKIJHGI@?$AAd?$AAe?$AA?9?$AAA?$AAT?$AA?$AA@ 00000001800356e0     libucrt:lcidtoname_downlevel.obj
 0002:000046f0       ??_C@_1M@KBFBEHJF@?$AAe?$AAn?$AA?9?$AAA?$AAU?$AA?$AA@ 00000001800356f0     libucrt:lcidtoname_downlevel.obj
 0002:00004700       ??_C@_1M@MNPLFAAH@?$AAe?$AAs?$AA?9?$AAE?$AAS?$AA?$AA@ 0000000180035700     libucrt:lcidtoname_downlevel.obj
 0002:00004710       ??_C@_1M@HJOOJFMA@?$AAf?$AAr?$AA?9?$AAC?$AAA?$AA?$AA@ 0000000180035710     libucrt:lcidtoname_downlevel.obj
 0002:00004720       ??_C@_1BG@JPOFPNAB@?$AAs?$AAr?$AA?9?$AAS?$AAP?$AA?9?$AAC?$AAy?$AAr?$AAl?$AA?$AA@ 0000000180035720     libucrt:lcidtoname_downlevel.obj
 0002:00004738       ??_C@_1M@LNFOCMOB@?$AAs?$AAe?$AA?9?$AAF?$AAI?$AA?$AA@ 0000000180035738     libucrt:lcidtoname_downlevel.obj
 0002:00004748       ??_C@_1O@MGJBOAMB@?$AAq?$AAu?$AAz?$AA?9?$AAP?$AAE?$AA?$AA@ 0000000180035748     libucrt:lcidtoname_downlevel.obj
 0002:00004758       ??_C@_1M@GJINLBOK@?$AAa?$AAr?$AA?9?$AAL?$AAY?$AA?$AA@ 0000000180035758     libucrt:lcidtoname_downlevel.obj
 0002:00004768       ??_C@_1M@GGMNHJNL@?$AAz?$AAh?$AA?9?$AAS?$AAG?$AA?$AA@ 0000000180035768     libucrt:lcidtoname_downlevel.obj
 0002:00004778       ??_C@_1M@HOIKODND@?$AAd?$AAe?$AA?9?$AAL?$AAU?$AA?$AA@ 0000000180035778     libucrt:lcidtoname_downlevel.obj
 0002:00004788       ??_C@_1M@DDOCCGFG@?$AAe?$AAn?$AA?9?$AAC?$AAA?$AA?$AA@ 0000000180035788     libucrt:lcidtoname_downlevel.obj
 0002:00004798       ??_C@_1M@BNOEMJLF@?$AAe?$AAs?$AA?9?$AAG?$AAT?$AA?$AA@ 0000000180035798     libucrt:lcidtoname_downlevel.obj
 0002:000047a8       ??_C@_1M@EOGNKEK@?$AAf?$AAr?$AA?9?$AAC?$AAH?$AA?$AA@ 00000001800357a8     libucrt:lcidtoname_downlevel.obj
 0002:000047b8       ??_C@_1M@FLIDJFHL@?$AAh?$AAr?$AA?9?$AAB?$AAA?$AA?$AA@ 00000001800357b8     libucrt:lcidtoname_downlevel.obj
 0002:000047c8       ??_C@_1O@FMCELNAJ@?$AAs?$AAm?$AAj?$AA?9?$AAN?$AAO?$AA?$AA@ 00000001800357c8     libucrt:lcidtoname_downlevel.obj
 0002:000047d8       ??_C@_1M@JHGLJMGJ@?$AAa?$AAr?$AA?9?$AAD?$AAZ?$AA?$AA@ 00000001800357d8     libucrt:lcidtoname_downlevel.obj
 0002:000047e8       ??_C@_1M@JKKFDCNP@?$AAz?$AAh?$AA?9?$AAM?$AAO?$AA?$AA@ 00000001800357e8     libucrt:lcidtoname_downlevel.obj
 0002:000047f8       ??_C@_1M@GEEFALPE@?$AAd?$AAe?$AA?9?$AAL?$AAI?$AA?$AA@ 00000001800357f8     libucrt:lcidtoname_downlevel.obj
 0002:00004808       ??_C@_1M@IGEOFBG@?$AAe?$AAn?$AA?9?$AAN?$AAZ?$AA?$AA@ 0000000180035808     libucrt:lcidtoname_downlevel.obj
 0002:00004818       ??_C@_1M@KDBONEHP@?$AAe?$AAs?$AA?9?$AAC?$AAR?$AA?$AA@ 0000000180035818     libucrt:lcidtoname_downlevel.obj
 0002:00004828       ??_C@_1M@FHMDOHNN@?$AAf?$AAr?$AA?9?$AAL?$AAU?$AA?$AA@ 0000000180035828     libucrt:lcidtoname_downlevel.obj
 0002:00004838       ??_C@_1BG@NFKKMAFG@?$AAb?$AAs?$AA?9?$AAB?$AAA?$AA?9?$AAL?$AAa?$AAt?$AAn?$AA?$AA@ 0000000180035838     libucrt:lcidtoname_downlevel.obj
 0002:00004850       ??_C@_1O@IMNBEMCI@?$AAs?$AAm?$AAj?$AA?9?$AAS?$AAE?$AA?$AA@ 0000000180035850     libucrt:lcidtoname_downlevel.obj
 0002:00004860       ??_C@_1M@DHHMBNDP@?$AAa?$AAr?$AA?9?$AAM?$AAA?$AA?$AA@ 0000000180035860     libucrt:lcidtoname_downlevel.obj
 0002:00004870       ??_C@_1M@BNBLJCGH@?$AAe?$AAn?$AA?9?$AAI?$AAE?$AA?$AA@ 0000000180035870     libucrt:lcidtoname_downlevel.obj
 0002:00004880       ??_C@_1M@GEPAFMDL@?$AAe?$AAs?$AA?9?$AAP?$AAA?$AA?$AA@ 0000000180035880     libucrt:lcidtoname_downlevel.obj
 0002:00004890       ??_C@_1M@OJONDMDL@?$AAf?$AAr?$AA?9?$AAM?$AAC?$AA?$AA@ 0000000180035890     libucrt:lcidtoname_downlevel.obj
 0002:000048a0       ??_C@_1BG@OBCNFJB@?$AAs?$AAr?$AA?9?$AAB?$AAA?$AA?9?$AAL?$AAa?$AAt?$AAn?$AA?$AA@ 00000001800358a0     libucrt:lcidtoname_downlevel.obj
 0002:000048b8       ??_C@_1O@KEMEEGPO@?$AAs?$AAm?$AAa?$AA?9?$AAN?$AAO?$AA?$AA@ 00000001800358b8     libucrt:lcidtoname_downlevel.obj
 0002:000048c8       ??_C@_1M@ELMGFODK@?$AAa?$AAr?$AA?9?$AAT?$AAN?$AA?$AA@ 00000001800358c8     libucrt:lcidtoname_downlevel.obj
 0002:000048d8       ??_C@_1M@BHDLHFAF@?$AAe?$AAn?$AA?9?$AAZ?$AAA?$AA?$AA@ 00000001800358d8     libucrt:lcidtoname_downlevel.obj
 0002:000048e8       ??_C@_1M@BMGIGLIF@?$AAe?$AAs?$AA?9?$AAD?$AAO?$AA?$AA@ 00000001800358e8     libucrt:lcidtoname_downlevel.obj
 0002:000048f8       ??_C@_1BG@CMBHIPBE@?$AAs?$AAr?$AA?9?$AAB?$AAA?$AA?9?$AAC?$AAy?$AAr?$AAl?$AA?$AA@ 00000001800358f8     libucrt:lcidtoname_downlevel.obj
 0002:00004910       ??_C@_1O@HEDBLHNP@?$AAs?$AAm?$AAa?$AA?9?$AAS?$AAE?$AA?$AA@ 0000000180035910     libucrt:lcidtoname_downlevel.obj
 0002:00004920       ??_C@_1M@DAGCADIM@?$AAa?$AAr?$AA?9?$AAO?$AAM?$AA?$AA@ 0000000180035920     libucrt:lcidtoname_downlevel.obj
 0002:00004930       ??_C@_1M@FODLMICG@?$AAe?$AAn?$AA?9?$AAJ?$AAM?$AA?$AA@ 0000000180035930     libucrt:lcidtoname_downlevel.obj
 0002:00004940       ??_C@_1M@DNMLCIHB@?$AAe?$AAs?$AA?9?$AAV?$AAE?$AA?$AA@ 0000000180035940     libucrt:lcidtoname_downlevel.obj
 0002:00004950       ??_C@_1O@EOKHMKJK@?$AAs?$AAm?$AAs?$AA?9?$AAF?$AAI?$AA?$AA@ 0000000180035950     libucrt:lcidtoname_downlevel.obj
 0002:00004960       ??_C@_1M@CAFJMKOF@?$AAa?$AAr?$AA?9?$AAY?$AAE?$AA?$AA@ 0000000180035960     libucrt:lcidtoname_downlevel.obj
 0002:00004970       ??_C@_1M@CBFHIJLI@?$AAe?$AAn?$AA?9?$AAC?$AAB?$AA?$AA@ 0000000180035970     libucrt:lcidtoname_downlevel.obj
 0002:00004980       ??_C@_1M@BGNFLDN@?$AAe?$AAs?$AA?9?$AAC?$AAO?$AA?$AA@ 0000000180035980     libucrt:lcidtoname_downlevel.obj
 0002:00004990       ??_C@_1O@JMPHMAMC@?$AAs?$AAm?$AAn?$AA?9?$AAF?$AAI?$AA?$AA@ 0000000180035990     libucrt:lcidtoname_downlevel.obj
 0002:000049a0       ??_C@_1M@JLANABKE@?$AAa?$AAr?$AA?9?$AAS?$AAY?$AA?$AA@ 00000001800359a0     libucrt:lcidtoname_downlevel.obj
 0002:000049b0       ??_C@_1M@HPKGCFGN@?$AAe?$AAn?$AA?9?$AAB?$AAZ?$AA?$AA@ 00000001800359b0     libucrt:lcidtoname_downlevel.obj
 0002:000049c0       ??_C@_1M@OLJCMLGM@?$AAe?$AAs?$AA?9?$AAP?$AAE?$AA?$AA@ 00000001800359c0     libucrt:lcidtoname_downlevel.obj
 0002:000049d0       ??_C@_1M@MKKGFKLE@?$AAa?$AAr?$AA?9?$AAJ?$AAO?$AA?$AA@ 00000001800359d0     libucrt:lcidtoname_downlevel.obj
 0002:000049e0       ??_C@_1M@EKPGLDNI@?$AAe?$AAn?$AA?9?$AAT?$AAT?$AA?$AA@ 00000001800359e0     libucrt:lcidtoname_downlevel.obj
 0002:000049f0       ??_C@_1M@OONGHFHE@?$AAe?$AAs?$AA?9?$AAA?$AAR?$AA?$AA@ 00000001800359f0     libucrt:lcidtoname_downlevel.obj
 0002:00004a00       ??_C@_1M@OOJFGBHE@?$AAa?$AAr?$AA?9?$AAL?$AAB?$AA?$AA@ 0000000180035a00     libucrt:lcidtoname_downlevel.obj
 0002:00004a10       ??_C@_1M@GCEJHNEG@?$AAe?$AAn?$AA?9?$AAZ?$AAW?$AA?$AA@ 0000000180035a10     libucrt:lcidtoname_downlevel.obj
 0002:00004a20       ??_C@_1M@JNOCAHJI@?$AAe?$AAs?$AA?9?$AAE?$AAC?$AA?$AA@ 0000000180035a20     libucrt:lcidtoname_downlevel.obj
 0002:00004a30       ??_C@_1M@JEFHPGGB@?$AAa?$AAr?$AA?9?$AAK?$AAW?$AA?$AA@ 0000000180035a30     libucrt:lcidtoname_downlevel.obj
 0002:00004a40       ??_C@_1M@MLKIBJOJ@?$AAe?$AAn?$AA?9?$AAP?$AAH?$AA?$AA@ 0000000180035a40     libucrt:lcidtoname_downlevel.obj
 0002:00004a50       ??_C@_1M@BDNIPEND@?$AAe?$AAs?$AA?9?$AAC?$AAL?$AA?$AA@ 0000000180035a50     libucrt:lcidtoname_downlevel.obj
 0002:00004a60       ??_C@_1M@MPNMEKBD@?$AAa?$AAr?$AA?9?$AAA?$AAE?$AA?$AA@ 0000000180035a60     libucrt:lcidtoname_downlevel.obj
 0002:00004a70       ??_C@_1M@KBJALCPI@?$AAe?$AAs?$AA?9?$AAU?$AAY?$AA?$AA@ 0000000180035a70     libucrt:lcidtoname_downlevel.obj
 0002:00004a80       ??_C@_1M@LLCCOAGA@?$AAa?$AAr?$AA?9?$AAB?$AAH?$AA?$AA@ 0000000180035a80     libucrt:lcidtoname_downlevel.obj
 0002:00004a90       ??_C@_1M@PBFNCDEL@?$AAe?$AAs?$AA?9?$AAP?$AAY?$AA?$AA@ 0000000180035a90     libucrt:lcidtoname_downlevel.obj
 0002:00004aa0       ??_C@_1M@EDGINPNP@?$AAa?$AAr?$AA?9?$AAQ?$AAA?$AA?$AA@ 0000000180035aa0     libucrt:lcidtoname_downlevel.obj
 0002:00004ab0       ??_C@_1M@MKDBIIJI@?$AAe?$AAs?$AA?9?$AAB?$AAO?$AA?$AA@ 0000000180035ab0     libucrt:lcidtoname_downlevel.obj
 0002:00004ac0       ??_C@_1M@CPKKEBLD@?$AAe?$AAs?$AA?9?$AAS?$AAV?$AA?$AA@ 0000000180035ac0     libucrt:lcidtoname_downlevel.obj
 0002:00004ad0       ??_C@_1M@NDBGMMJL@?$AAe?$AAs?$AA?9?$AAH?$AAN?$AA?$AA@ 0000000180035ad0     libucrt:lcidtoname_downlevel.obj
 0002:00004ae0       ??_C@_1M@JIJIBHDP@?$AAe?$AAs?$AA?9?$AAN?$AAI?$AA?$AA@ 0000000180035ae0     libucrt:lcidtoname_downlevel.obj
 0002:00004af0       ??_C@_1M@CGFMKEEK@?$AAe?$AAs?$AA?9?$AAP?$AAR?$AA?$AA@ 0000000180035af0     libucrt:lcidtoname_downlevel.obj
 0002:00004b00       ??_C@_1O@ICJHKIIK@?$AAz?$AAh?$AA?9?$AAC?$AAH?$AAT?$AA?$AA@ 0000000180035b00     libucrt:lcidtoname_downlevel.obj
 0002:00004b10       ??_C@_15CLNEJCE@?$AAs?$AAr?$AA?$AA@ 0000000180035b10     libucrt:lcidtoname_downlevel.obj
 0002:00005960       ??_C@_1M@KAHEKEIG@?$AAa?$AAf?$AA?9?$AAz?$AAa?$AA?$AA@ 0000000180036960     libucrt:lcidtoname_downlevel.obj
 0002:00005970       ??_C@_1M@GIECOABL@?$AAa?$AAr?$AA?9?$AAa?$AAe?$AA?$AA@ 0000000180036970     libucrt:lcidtoname_downlevel.obj
 0002:00005980       ??_C@_1M@BMLMEKGI@?$AAa?$AAr?$AA?9?$AAb?$AAh?$AA?$AA@ 0000000180036980     libucrt:lcidtoname_downlevel.obj
 0002:00005990       ??_C@_1M@DAPFDGGB@?$AAa?$AAr?$AA?9?$AAd?$AAz?$AA?$AA@ 0000000180036990     libucrt:lcidtoname_downlevel.obj
 0002:000059a0       ??_C@_1M@FJNKGKIG@?$AAa?$AAr?$AA?9?$AAe?$AAg?$AA?$AA@ 00000001800369a0     libucrt:lcidtoname_downlevel.obj
 0002:000059b0       ??_C@_1M@FLGKKCLO@?$AAa?$AAr?$AA?9?$AAi?$AAq?$AA?$AA@ 00000001800369b0     libucrt:lcidtoname_downlevel.obj
 0002:000059c0       ??_C@_1M@GNDIPALM@?$AAa?$AAr?$AA?9?$AAj?$AAo?$AA?$AA@ 00000001800369c0     libucrt:lcidtoname_downlevel.obj
 0002:000059d0       ??_C@_1M@DDMJFMGJ@?$AAa?$AAr?$AA?9?$AAk?$AAw?$AA?$AA@ 00000001800369d0     libucrt:lcidtoname_downlevel.obj
 0002:000059e0       ??_C@_1M@EJALMLHM@?$AAa?$AAr?$AA?9?$AAl?$AAb?$AA?$AA@ 00000001800369e0     libucrt:lcidtoname_downlevel.obj
 0002:000059f0       ??_C@_1M@MOBDBLOC@?$AAa?$AAr?$AA?9?$AAl?$AAy?$AA?$AA@ 00000001800369f0     libucrt:lcidtoname_downlevel.obj
 0002:00005a00       ??_C@_1M@JAOCLHDH@?$AAa?$AAr?$AA?9?$AAm?$AAa?$AA?$AA@ 0000000180036a00     libucrt:lcidtoname_downlevel.obj
 0002:00005a10       ??_C@_1M@JHPMKJIE@?$AAa?$AAr?$AA?9?$AAo?$AAm?$AA?$AA@ 0000000180036a10     libucrt:lcidtoname_downlevel.obj
 0002:00005a20       ??_C@_1M@OEPGHFNH@?$AAa?$AAr?$AA?9?$AAq?$AAa?$AA?$AA@ 0000000180036a20     libucrt:lcidtoname_downlevel.obj
 0002:00005a30       ??_C@_1M@KJDONENM@?$AAa?$AAr?$AA?9?$AAs?$AAa?$AA?$AA@ 0000000180036a30     libucrt:lcidtoname_downlevel.obj
 0002:00005a40       ??_C@_1M@DMJDKLKM@?$AAa?$AAr?$AA?9?$AAs?$AAy?$AA?$AA@ 0000000180036a40     libucrt:lcidtoname_downlevel.obj
 0002:00005a50       ??_C@_1M@OMFIPEDC@?$AAa?$AAr?$AA?9?$AAt?$AAn?$AA?$AA@ 0000000180036a50     libucrt:lcidtoname_downlevel.obj
 0002:00005a60       ??_C@_1M@IHMHGAON@?$AAa?$AAr?$AA?9?$AAy?$AAe?$AA?$AA@ 0000000180036a60     libucrt:lcidtoname_downlevel.obj
 0002:00005a70       ??_C@_1BG@KDCPGJGB@?$AAa?$AAz?$AA?9?$AAa?$AAz?$AA?9?$AAc?$AAy?$AAr?$AAl?$AA?$AA@ 0000000180036a70     libucrt:lcidtoname_downlevel.obj
 0002:00005a88       ??_C@_1BG@IBCKDDOE@?$AAa?$AAz?$AA?9?$AAa?$AAz?$AA?9?$AAl?$AAa?$AAt?$AAn?$AA?$AA@ 0000000180036a88     libucrt:lcidtoname_downlevel.obj
 0002:00005aa0       ??_C@_1M@EGPFDCPD@?$AAb?$AAe?$AA?9?$AAb?$AAy?$AA?$AA@ 0000000180036aa0     libucrt:lcidtoname_downlevel.obj
 0002:00005ab0       ??_C@_1M@PCMGMCGC@?$AAb?$AAg?$AA?9?$AAb?$AAg?$AA?$AA@ 0000000180036ab0     libucrt:lcidtoname_downlevel.obj
 0002:00005ac0       ??_C@_1M@BJBMFGOB@?$AAb?$AAn?$AA?9?$AAi?$AAn?$AA?$AA@ 0000000180036ac0     libucrt:lcidtoname_downlevel.obj
 0002:00005ad0       ??_C@_1BG@EAKMMACD@?$AAb?$AAs?$AA?9?$AAb?$AAa?$AA?9?$AAl?$AAa?$AAt?$AAn?$AA?$AA@ 0000000180036ad0     libucrt:lcidtoname_downlevel.obj
 0002:00005ae8       ??_C@_1M@KGADAODK@?$AAc?$AAa?$AA?9?$AAe?$AAs?$AA?$AA@ 0000000180036ae8     libucrt:lcidtoname_downlevel.obj
 0002:00005af8       ??_C@_1M@COAJPDHI@?$AAc?$AAs?$AA?9?$AAc?$AAz?$AA?$AA@ 0000000180036af8     libucrt:lcidtoname_downlevel.obj
 0002:00005b08       ??_C@_1M@DHBHFONH@?$AAc?$AAy?$AA?9?$AAg?$AAb?$AA?$AA@ 0000000180036b08     libucrt:lcidtoname_downlevel.obj
 0002:00005b18       ??_C@_1M@IMGKELGA@?$AAd?$AAa?$AA?9?$AAd?$AAk?$AA?$AA@ 0000000180036b18     libucrt:lcidtoname_downlevel.obj
 0002:00005b28       ??_C@_1M@NNDGDNGA@?$AAd?$AAe?$AA?9?$AAa?$AAt?$AA?$AA@ 0000000180036b28     libucrt:lcidtoname_downlevel.obj
 0002:00005b38       ??_C@_1M@IKDBHEEM@?$AAd?$AAe?$AA?9?$AAc?$AAh?$AA?$AA@ 0000000180036b38     libucrt:lcidtoname_downlevel.obj
 0002:00005b48       ??_C@_1M@GFFOJMCJ@?$AAd?$AAe?$AA?9?$AAd?$AAe?$AA?$AA@ 0000000180036b48     libucrt:lcidtoname_downlevel.obj
 0002:00005b58       ??_C@_1M@MDNLKBPM@?$AAd?$AAe?$AA?9?$AAl?$AAi?$AA?$AA@ 0000000180036b58     libucrt:lcidtoname_downlevel.obj
 0002:00005b68       ??_C@_1M@NJBEEJNL@?$AAd?$AAe?$AA?9?$AAl?$AAu?$AA?$AA@ 0000000180036b68     libucrt:lcidtoname_downlevel.obj
 0002:00005b78       ??_C@_1O@GNNELBAP@?$AAd?$AAi?$AAv?$AA?9?$AAm?$AAv?$AA?$AA@ 0000000180036b78     libucrt:lcidtoname_downlevel.obj
 0002:00005b88       ??_C@_1M@EJLEOGAE@?$AAe?$AAl?$AA?9?$AAg?$AAr?$AA?$AA@ 0000000180036b88     libucrt:lcidtoname_downlevel.obj
 0002:00005b98       ??_C@_1M@GMPONJN@?$AAe?$AAn?$AA?9?$AAa?$AAu?$AA?$AA@ 0000000180036b98     libucrt:lcidtoname_downlevel.obj
 0002:00005ba8       ??_C@_1M@NIDIIPGF@?$AAe?$AAn?$AA?9?$AAb?$AAz?$AA?$AA@ 0000000180036ba8     libucrt:lcidtoname_downlevel.obj
 0002:00005bb8       ??_C@_1M@JEHMIMFO@?$AAe?$AAn?$AA?9?$AAc?$AAa?$AA?$AA@ 0000000180036bb8     libucrt:lcidtoname_downlevel.obj
 0002:00005bc8       ??_C@_1M@IGMJCDLA@?$AAe?$AAn?$AA?9?$AAc?$AAb?$AA?$AA@ 0000000180036bc8     libucrt:lcidtoname_downlevel.obj
 0002:00005bd8       ??_C@_1M@BNFIGBKG@?$AAe?$AAn?$AA?9?$AAg?$AAb?$AA?$AA@ 0000000180036bd8     libucrt:lcidtoname_downlevel.obj
 0002:00005be8       ??_C@_1M@LKIFDIGP@?$AAe?$AAn?$AA?9?$AAi?$AAe?$AA?$AA@ 0000000180036be8     libucrt:lcidtoname_downlevel.obj
 0002:00005bf8       ??_C@_1M@PJKFGCCO@?$AAe?$AAn?$AA?9?$AAj?$AAm?$AA?$AA@ 0000000180036bf8     libucrt:lcidtoname_downlevel.obj
 0002:00005c08       ??_C@_1M@KPPKEPBO@?$AAe?$AAn?$AA?9?$AAn?$AAz?$AA?$AA@ 0000000180036c08     libucrt:lcidtoname_downlevel.obj
 0002:00005c18       ??_C@_1M@GMDGLDOB@?$AAe?$AAn?$AA?9?$AAp?$AAh?$AA?$AA@ 0000000180036c18     libucrt:lcidtoname_downlevel.obj
 0002:00005c28       ??_C@_1M@ONGIBJNA@?$AAe?$AAn?$AA?9?$AAt?$AAt?$AA?$AA@ 0000000180036c28     libucrt:lcidtoname_downlevel.obj
 0002:00005c38       ??_C@_1M@LLODPCMM@?$AAe?$AAn?$AA?9?$AAu?$AAs?$AA?$AA@ 0000000180036c38     libucrt:lcidtoname_downlevel.obj
 0002:00005c48       ??_C@_1M@LAKFNPAN@?$AAe?$AAn?$AA?9?$AAz?$AAa?$AA?$AA@ 0000000180036c48     libucrt:lcidtoname_downlevel.obj
 0002:00005c58       ??_C@_1M@MFNHNHEO@?$AAe?$AAn?$AA?9?$AAz?$AAw?$AA?$AA@ 0000000180036c58     libucrt:lcidtoname_downlevel.obj
 0002:00005c68       ??_C@_1M@EJEINPHM@?$AAe?$AAs?$AA?9?$AAa?$AAr?$AA?$AA@ 0000000180036c68     libucrt:lcidtoname_downlevel.obj
 0002:00005c78       ??_C@_1M@GNKPCCJA@?$AAe?$AAs?$AA?9?$AAb?$AAo?$AA?$AA@ 0000000180036c78     libucrt:lcidtoname_downlevel.obj
 0002:00005c88       ??_C@_1M@LEEGFONL@?$AAe?$AAs?$AA?9?$AAc?$AAl?$AA?$AA@ 0000000180036c88     libucrt:lcidtoname_downlevel.obj
 0002:00005c98       ??_C@_1M@KGPDPBDF@?$AAe?$AAs?$AA?9?$AAc?$AAo?$AA?$AA@ 0000000180036c98     libucrt:lcidtoname_downlevel.obj
 0002:00005ca8       ??_C@_1M@EIAHOHH@?$AAe?$AAs?$AA?9?$AAc?$AAr?$AA?$AA@ 0000000180036ca8     libucrt:lcidtoname_downlevel.obj
 0002:00005cb8       ??_C@_1M@LLPGMBIN@?$AAe?$AAs?$AA?9?$AAd?$AAo?$AA?$AA@ 0000000180036cb8     libucrt:lcidtoname_downlevel.obj
 0002:00005cc8       ??_C@_1M@DKHMKNJA@?$AAe?$AAs?$AA?9?$AAe?$AAc?$AA?$AA@ 0000000180036cc8     libucrt:lcidtoname_downlevel.obj
 0002:00005cd8       ??_C@_1M@GKGFPKAP@?$AAe?$AAs?$AA?9?$AAe?$AAs?$AA?$AA@ 0000000180036cd8     libucrt:lcidtoname_downlevel.obj
 0002:00005ce8       ??_C@_1M@LKHKGDLN@?$AAe?$AAs?$AA?9?$AAg?$AAt?$AA?$AA@ 0000000180036ce8     libucrt:lcidtoname_downlevel.obj
 0002:00005cf8       ??_C@_1M@HEIIGGJD@?$AAe?$AAs?$AA?9?$AAh?$AAn?$AA?$AA@ 0000000180036cf8     libucrt:lcidtoname_downlevel.obj
 0002:00005d08       ??_C@_1M@FBDHPPGD@?$AAe?$AAs?$AA?9?$AAm?$AAx?$AA?$AA@ 0000000180036d08     libucrt:lcidtoname_downlevel.obj
 0002:00005d18       ??_C@_1M@DPAGLNDH@?$AAe?$AAs?$AA?9?$AAn?$AAi?$AA?$AA@ 0000000180036d18     libucrt:lcidtoname_downlevel.obj
 0002:00005d28       ??_C@_1M@MDGOPGDD@?$AAe?$AAs?$AA?9?$AAp?$AAa?$AA?$AA@ 0000000180036d28     libucrt:lcidtoname_downlevel.obj
 0002:00005d38       ??_C@_1M@EMAMGBGE@?$AAe?$AAs?$AA?9?$AAp?$AAe?$AA?$AA@ 0000000180036d38     libucrt:lcidtoname_downlevel.obj
 0002:00005d48       ??_C@_1M@IBMCAOEC@?$AAe?$AAs?$AA?9?$AAp?$AAr?$AA?$AA@ 0000000180036d48     libucrt:lcidtoname_downlevel.obj
 0002:00005d58       ??_C@_1M@FGMDIJED@?$AAe?$AAs?$AA?9?$AAp?$AAy?$AA?$AA@ 0000000180036d58     libucrt:lcidtoname_downlevel.obj
 0002:00005d68       ??_C@_1M@IIDEOLLL@?$AAe?$AAs?$AA?9?$AAs?$AAv?$AA?$AA@ 0000000180036d68     libucrt:lcidtoname_downlevel.obj
 0002:00005d78       ??_C@_1M@GAOBIPA@?$AAe?$AAs?$AA?9?$AAu?$AAy?$AA?$AA@ 0000000180036d78     libucrt:lcidtoname_downlevel.obj
 0002:00005d88       ??_C@_1M@JKFFICHJ@?$AAe?$AAs?$AA?9?$AAv?$AAe?$AA?$AA@ 0000000180036d88     libucrt:lcidtoname_downlevel.obj
 0002:00005d98       ??_C@_1M@PNMLOJDF@?$AAe?$AAt?$AA?9?$AAe?$AAe?$AA?$AA@ 0000000180036d98     libucrt:lcidtoname_downlevel.obj
 0002:00005da8       ??_C@_1M@GHHLIKEI@?$AAe?$AAu?$AA?9?$AAe?$AAs?$AA?$AA@ 0000000180036da8     libucrt:lcidtoname_downlevel.obj
 0002:00005db8       ??_C@_1M@PBNONODE@?$AAf?$AAa?$AA?9?$AAi?$AAr?$AA?$AA@ 0000000180036db8     libucrt:lcidtoname_downlevel.obj
 0002:00005dc8       ??_C@_1M@JEEHPMIL@?$AAf?$AAi?$AA?9?$AAf?$AAi?$AA?$AA@ 0000000180036dc8     libucrt:lcidtoname_downlevel.obj
 0002:00005dd8       ??_C@_1M@LMDCNDBA@?$AAf?$AAo?$AA?9?$AAf?$AAo?$AA?$AA@ 0000000180036dd8     libucrt:lcidtoname_downlevel.obj
 0002:00005de8       ??_C@_1M@JKEOHLDK@?$AAf?$AAr?$AA?9?$AAb?$AAe?$AA?$AA@ 0000000180036de8     libucrt:lcidtoname_downlevel.obj
 0002:00005df8       ??_C@_1M@NOHADPMI@?$AAf?$AAr?$AA?9?$AAc?$AAa?$AA?$AA@ 0000000180036df8     libucrt:lcidtoname_downlevel.obj
 0002:00005e08       ??_C@_1M@KDHIHAEC@?$AAf?$AAr?$AA?9?$AAc?$AAh?$AA?$AA@ 0000000180036e08     libucrt:lcidtoname_downlevel.obj
 0002:00005e18       ??_C@_1M@MMBBFGAK@?$AAf?$AAr?$AA?9?$AAf?$AAr?$AA?$AA@ 0000000180036e18     libucrt:lcidtoname_downlevel.obj
 0002:00005e28       ??_C@_1M@PAFNENNF@?$AAf?$AAr?$AA?9?$AAl?$AAu?$AA?$AA@ 0000000180036e28     libucrt:lcidtoname_downlevel.obj
 0002:00005e38       ??_C@_1M@EOHDJGDD@?$AAf?$AAr?$AA?9?$AAm?$AAc?$AA?$AA@ 0000000180036e38     libucrt:lcidtoname_downlevel.obj
 0002:00005e48       ??_C@_1M@FAPLLOPF@?$AAg?$AAl?$AA?9?$AAe?$AAs?$AA?$AA@ 0000000180036e48     libucrt:lcidtoname_downlevel.obj
 0002:00005e58       ??_C@_1M@FOPBFLOO@?$AAg?$AAu?$AA?9?$AAi?$AAn?$AA?$AA@ 0000000180036e58     libucrt:lcidtoname_downlevel.obj
 0002:00005e68       ??_C@_1M@KBMCINPM@?$AAh?$AAe?$AA?9?$AAi?$AAl?$AA?$AA@ 0000000180036e68     libucrt:lcidtoname_downlevel.obj
 0002:00005e78       ??_C@_1M@BBPHKFPJ@?$AAh?$AAi?$AA?9?$AAi?$AAn?$AA?$AA@ 0000000180036e78     libucrt:lcidtoname_downlevel.obj
 0002:00005e88       ??_C@_1M@PMBNDPHD@?$AAh?$AAr?$AA?9?$AAb?$AAa?$AA?$AA@ 0000000180036e88     libucrt:lcidtoname_downlevel.obj
 0002:00005e98       ??_C@_1M@BPCKOEGE@?$AAh?$AAr?$AA?9?$AAh?$AAr?$AA?$AA@ 0000000180036e98     libucrt:lcidtoname_downlevel.obj
 0002:00005ea8       ??_C@_1M@GACBMHKE@?$AAh?$AAu?$AA?9?$AAh?$AAu?$AA?$AA@ 0000000180036ea8     libucrt:lcidtoname_downlevel.obj
 0002:00005eb8       ??_C@_1M@MILPAJJC@?$AAh?$AAy?$AA?9?$AAa?$AAm?$AA?$AA@ 0000000180036eb8     libucrt:lcidtoname_downlevel.obj
 0002:00005ec8       ??_C@_1M@BABBICEC@?$AAi?$AAd?$AA?9?$AAi?$AAd?$AA?$AA@ 0000000180036ec8     libucrt:lcidtoname_downlevel.obj
 0002:00005ed8       ??_C@_1M@BIKNHHPF@?$AAi?$AAs?$AA?9?$AAi?$AAs?$AA?$AA@ 0000000180036ed8     libucrt:lcidtoname_downlevel.obj
 0002:00005ee8       ??_C@_1M@NMPCJPHE@?$AAi?$AAt?$AA?9?$AAc?$AAh?$AA?$AA@ 0000000180036ee8     libucrt:lcidtoname_downlevel.obj
 0002:00005ef8       ??_C@_1M@GHKGFEDF@?$AAi?$AAt?$AA?9?$AAi?$AAt?$AA?$AA@ 0000000180036ef8     libucrt:lcidtoname_downlevel.obj
 0002:00005f08       ??_C@_1M@NIEJCJJA@?$AAj?$AAa?$AA?9?$AAj?$AAp?$AA?$AA@ 0000000180036f08     libucrt:lcidtoname_downlevel.obj
 0002:00005f18       ??_C@_1M@JILFNBIM@?$AAk?$AAa?$AA?9?$AAg?$AAe?$AA?$AA@ 0000000180036f18     libucrt:lcidtoname_downlevel.obj
 0002:00005f28       ??_C@_1M@PACPMGPH@?$AAk?$AAk?$AA?9?$AAk?$AAz?$AA?$AA@ 0000000180036f28     libucrt:lcidtoname_downlevel.obj
 0002:00005f38       ??_C@_1M@IELFGMHA@?$AAk?$AAn?$AA?9?$AAi?$AAn?$AA?$AA@ 0000000180036f38     libucrt:lcidtoname_downlevel.obj
 0002:00005f48       ??_C@_1O@IBBJHCH@?$AAk?$AAo?$AAk?$AA?9?$AAi?$AAn?$AA?$AA@ 0000000180036f48     libucrt:lcidtoname_downlevel.obj
 0002:00005f58       ??_C@_1M@DMHAEOGC@?$AAk?$AAo?$AA?9?$AAk?$AAr?$AA?$AA@ 0000000180036f58     libucrt:lcidtoname_downlevel.obj
 0002:00005f68       ??_C@_1M@HBAHBIGA@?$AAk?$AAy?$AA?9?$AAk?$AAg?$AA?$AA@ 0000000180036f68     libucrt:lcidtoname_downlevel.obj
 0002:00005f78       ??_C@_1M@KPMILCJG@?$AAl?$AAt?$AA?9?$AAl?$AAt?$AA?$AA@ 0000000180036f78     libucrt:lcidtoname_downlevel.obj
 0002:00005f88       ??_C@_1M@BDEKKCA@?$AAl?$AAv?$AA?9?$AAl?$AAv?$AA?$AA@ 0000000180036f88     libucrt:lcidtoname_downlevel.obj
 0002:00005f98       ??_C@_1M@ELCKCCJJ@?$AAm?$AAi?$AA?9?$AAn?$AAz?$AA?$AA@ 0000000180036f98     libucrt:lcidtoname_downlevel.obj
 0002:00005fa8       ??_C@_1M@CBOOLAPA@?$AAm?$AAk?$AA?9?$AAm?$AAk?$AA?$AA@ 0000000180036fa8     libucrt:lcidtoname_downlevel.obj
 0002:00005fb8       ??_C@_1M@GPHNBJKN@?$AAm?$AAl?$AA?9?$AAi?$AAn?$AA?$AA@ 0000000180036fb8     libucrt:lcidtoname_downlevel.obj
 0002:00005fc8       ??_C@_1M@PABJILIG@?$AAm?$AAn?$AA?9?$AAm?$AAn?$AA?$AA@ 0000000180036fc8     libucrt:lcidtoname_downlevel.obj
 0002:00005fd8       ??_C@_1M@FGBKKIPG@?$AAm?$AAr?$AA?9?$AAi?$AAn?$AA?$AA@ 0000000180036fd8     libucrt:lcidtoname_downlevel.obj
 0002:00005fe8       ??_C@_1M@NDBPDDAL@?$AAm?$AAs?$AA?9?$AAb?$AAn?$AA?$AA@ 0000000180036fe8     libucrt:lcidtoname_downlevel.obj
 0002:00005ff8       ??_C@_1M@OPIHOOPI@?$AAm?$AAs?$AA?9?$AAm?$AAy?$AA?$AA@ 0000000180036ff8     libucrt:lcidtoname_downlevel.obj
 0002:00006008       ??_C@_1M@PPDBCNFM@?$AAm?$AAt?$AA?9?$AAm?$AAt?$AA?$AA@ 0000000180037008     libucrt:lcidtoname_downlevel.obj
 0002:00006018       ??_C@_1M@KDJDKMDD@?$AAn?$AAb?$AA?9?$AAn?$AAo?$AA?$AA@ 0000000180037018     libucrt:lcidtoname_downlevel.obj
 0002:00006028       ??_C@_1M@KFCFLMJP@?$AAn?$AAl?$AA?9?$AAb?$AAe?$AA?$AA@ 0000000180037028     libucrt:lcidtoname_downlevel.obj
 0002:00006038       ??_C@_1M@KPOPDDGO@?$AAn?$AAl?$AA?9?$AAn?$AAl?$AA?$AA@ 0000000180037038     libucrt:lcidtoname_downlevel.obj
 0002:00006048       ??_C@_1M@LJKPEMLN@?$AAn?$AAn?$AA?9?$AAn?$AAo?$AA?$AA@ 0000000180037048     libucrt:lcidtoname_downlevel.obj
 0002:00006058       ??_C@_1M@BDGHHBFL@?$AAn?$AAs?$AA?9?$AAz?$AAa?$AA?$AA@ 0000000180037058     libucrt:lcidtoname_downlevel.obj
 0002:00006068       ??_C@_1M@IDEHOAP@?$AAp?$AAa?$AA?9?$AAi?$AAn?$AA?$AA@ 0000000180037068     libucrt:lcidtoname_downlevel.obj
 0002:00006078       ??_C@_1M@HDBKGOGH@?$AAp?$AAl?$AA?9?$AAp?$AAl?$AA?$AA@ 0000000180037078     libucrt:lcidtoname_downlevel.obj
 0002:00006088       ??_C@_1M@LJLLCMEH@?$AAp?$AAt?$AA?9?$AAb?$AAr?$AA?$AA@ 0000000180037088     libucrt:lcidtoname_downlevel.obj
 0002:00006098       ??_C@_1M@NCMONAAL@?$AAp?$AAt?$AA?9?$AAp?$AAt?$AA?$AA@ 0000000180037098     libucrt:lcidtoname_downlevel.obj
 0002:000060a8       ??_C@_1O@EAKMAJDN@?$AAq?$AAu?$AAz?$AA?9?$AAb?$AAo?$AA?$AA@ 00000001800370a8     libucrt:lcidtoname_downlevel.obj
 0002:000060b8       ??_C@_1O@BHHPIGDN@?$AAq?$AAu?$AAz?$AA?9?$AAe?$AAc?$AA?$AA@ 00000001800370b8     libucrt:lcidtoname_downlevel.obj
 0002:000060c8       ??_C@_1O@GBAPEKMJ@?$AAq?$AAu?$AAz?$AA?9?$AAp?$AAe?$AA?$AA@ 00000001800370c8     libucrt:lcidtoname_downlevel.obj
 0002:000060d8       ??_C@_1M@CLGLEFBO@?$AAr?$AAo?$AA?9?$AAr?$AAo?$AA?$AA@ 00000001800370d8     libucrt:lcidtoname_downlevel.obj
 0002:000060e8       ??_C@_1M@CEEDODME@?$AAr?$AAu?$AA?9?$AAr?$AAu?$AA?$AA@ 00000001800370e8     libucrt:lcidtoname_downlevel.obj
 0002:000060f8       ??_C@_1M@HPKKKMPP@?$AAs?$AAa?$AA?9?$AAi?$AAn?$AA?$AA@ 00000001800370f8     libucrt:lcidtoname_downlevel.obj
 0002:00006108       ??_C@_1M@BKMAIGOJ@?$AAs?$AAe?$AA?9?$AAf?$AAi?$AA?$AA@ 0000000180037108     libucrt:lcidtoname_downlevel.obj
 0002:00006118       ??_C@_1M@NDPIFLFI@?$AAs?$AAe?$AA?9?$AAn?$AAo?$AA?$AA@ 0000000180037118     libucrt:lcidtoname_downlevel.obj
 0002:00006128       ??_C@_1M@DANKKHJ@?$AAs?$AAe?$AA?9?$AAs?$AAe?$AA?$AA@ 0000000180037128     libucrt:lcidtoname_downlevel.obj
 0002:00006138       ??_C@_1M@PNBLONPJ@?$AAs?$AAk?$AA?9?$AAs?$AAk?$AA?$AA@ 0000000180037138     libucrt:lcidtoname_downlevel.obj
 0002:00006148       ??_C@_1M@LFMODOAL@?$AAs?$AAl?$AA?9?$AAs?$AAi?$AA?$AA@ 0000000180037148     libucrt:lcidtoname_downlevel.obj
 0002:00006158       ??_C@_1O@DFKOMPG@?$AAs?$AAm?$AAa?$AA?9?$AAn?$AAo?$AA?$AA@ 0000000180037158     libucrt:lcidtoname_downlevel.obj
 0002:00006168       ??_C@_1O@NDKPBNNH@?$AAs?$AAm?$AAa?$AA?9?$AAs?$AAe?$AA?$AA@ 0000000180037168     libucrt:lcidtoname_downlevel.obj
 0002:00006178       ??_C@_1O@PLLKBHAB@?$AAs?$AAm?$AAj?$AA?9?$AAn?$AAo?$AA?$AA@ 0000000180037178     libucrt:lcidtoname_downlevel.obj
 0002:00006188       ??_C@_1O@CLEPOGCA@?$AAs?$AAm?$AAj?$AA?9?$AAs?$AAe?$AA?$AA@ 0000000180037188     libucrt:lcidtoname_downlevel.obj
 0002:00006198       ??_C@_1O@DLGJGKMK@?$AAs?$AAm?$AAn?$AA?9?$AAf?$AAi?$AA?$AA@ 0000000180037198     libucrt:lcidtoname_downlevel.obj
 0002:000061a8       ??_C@_1O@OJDJGAJC@?$AAs?$AAm?$AAs?$AA?9?$AAf?$AAi?$AA?$AA@ 00000001800371a8     libucrt:lcidtoname_downlevel.obj
 0002:000061b8       ??_C@_1M@BOFOGHPB@?$AAs?$AAq?$AA?9?$AAa?$AAl?$AA?$AA@ 00000001800371b8     libucrt:lcidtoname_downlevel.obj
 0002:000061c8       ??_C@_1BG@LJBBIPGB@?$AAs?$AAr?$AA?9?$AAb?$AAa?$AA?9?$AAc?$AAy?$AAr?$AAl?$AA?$AA@ 00000001800371c8     libucrt:lcidtoname_downlevel.obj
 0002:000061e0       ??_C@_1BG@JLBENFOE@?$AAs?$AAr?$AA?9?$AAb?$AAa?$AA?9?$AAl?$AAa?$AAt?$AAn?$AA?$AA@ 00000001800371e0     libucrt:lcidtoname_downlevel.obj
 0002:000061f8       ??_C@_1BG@KODPNHE@?$AAs?$AAr?$AA?9?$AAs?$AAp?$AA?9?$AAc?$AAy?$AAr?$AAl?$AA?$AA@ 00000001800371f8     libucrt:lcidtoname_downlevel.obj
 0002:00006210       ??_C@_1BG@CIOGKHPB@?$AAs?$AAr?$AA?9?$AAs?$AAp?$AA?9?$AAl?$AAa?$AAt?$AAn?$AA?$AA@ 0000000180037210     libucrt:lcidtoname_downlevel.obj
 0002:00006228       ??_C@_1M@NGFJLMAC@?$AAs?$AAv?$AA?9?$AAf?$AAi?$AA?$AA@ 0000000180037228     libucrt:lcidtoname_downlevel.obj
 0002:00006238       ??_C@_1M@MPJEJAJC@?$AAs?$AAv?$AA?9?$AAs?$AAe?$AA?$AA@ 0000000180037238     libucrt:lcidtoname_downlevel.obj
 0002:00006248       ??_C@_1M@MPNDHLFK@?$AAs?$AAw?$AA?9?$AAk?$AAe?$AA?$AA@ 0000000180037248     libucrt:lcidtoname_downlevel.obj
 0002:00006258       ??_C@_1O@KOHBJJI@?$AAs?$AAy?$AAr?$AA?9?$AAs?$AAy?$AA?$AA@ 0000000180037258     libucrt:lcidtoname_downlevel.obj
 0002:00006268       ??_C@_1M@LDCEFHA@?$AAt?$AAa?$AA?9?$AAi?$AAn?$AA?$AA@ 0000000180037268     libucrt:lcidtoname_downlevel.obj
 0002:00006278       ??_C@_1M@CNJOFAK@?$AAt?$AAe?$AA?9?$AAi?$AAn?$AA?$AA@ 0000000180037278     libucrt:lcidtoname_downlevel.obj
 0002:00006288       ??_C@_1M@GNAECACD@?$AAt?$AAh?$AA?9?$AAt?$AAh?$AA?$AA@ 0000000180037288     libucrt:lcidtoname_downlevel.obj
 0002:00006298       ??_C@_1M@CHBIHOJO@?$AAt?$AAn?$AA?9?$AAz?$AAa?$AA?$AA@ 0000000180037298     libucrt:lcidtoname_downlevel.obj
 0002:000062a8       ??_C@_1M@GCCMIGPJ@?$AAt?$AAr?$AA?9?$AAt?$AAr?$AA?$AA@ 00000001800372a8     libucrt:lcidtoname_downlevel.obj
 0002:000062b8       ??_C@_1M@CELMCNBK@?$AAt?$AAt?$AA?9?$AAr?$AAu?$AA?$AA@ 00000001800372b8     libucrt:lcidtoname_downlevel.obj
 0002:000062c8       ??_C@_1M@KLMCELGA@?$AAu?$AAk?$AA?9?$AAu?$AAa?$AA?$AA@ 00000001800372c8     libucrt:lcidtoname_downlevel.obj
 0002:000062d8       ??_C@_1M@EPAJJAJF@?$AAu?$AAr?$AA?9?$AAp?$AAk?$AA?$AA@ 00000001800372d8     libucrt:lcidtoname_downlevel.obj
 0002:000062e8       ??_C@_1BG@GEGPMCDJ@?$AAu?$AAz?$AA?9?$AAu?$AAz?$AA?9?$AAc?$AAy?$AAr?$AAl?$AA?$AA@ 00000001800372e8     libucrt:lcidtoname_downlevel.obj
 0002:00006300       ??_C@_1BG@EGGKJILM@?$AAu?$AAz?$AA?9?$AAu?$AAz?$AA?9?$AAl?$AAa?$AAt?$AAn?$AA?$AA@ 0000000180037300     libucrt:lcidtoname_downlevel.obj
 0002:00006318       ??_C@_1M@GFOCLFF@?$AAv?$AAi?$AA?9?$AAv?$AAn?$AA?$AA@ 0000000180037318     libucrt:lcidtoname_downlevel.obj
 0002:00006328       ??_C@_1M@CPAMEDFI@?$AAx?$AAh?$AA?9?$AAz?$AAa?$AA?$AA@ 0000000180037328     libucrt:lcidtoname_downlevel.obj
 0002:00006338       ??_C@_1O@EBKIFIGN@?$AAz?$AAh?$AA?9?$AAc?$AAh?$AAs?$AA?$AA@ 0000000180037338     libucrt:lcidtoname_downlevel.obj
 0002:00006348       ??_C@_1O@NMHPGANE@?$AAz?$AAh?$AA?9?$AAc?$AAh?$AAt?$AA?$AA@ 0000000180037348     libucrt:lcidtoname_downlevel.obj
 0002:00006358       ??_C@_1M@LPINJOMC@?$AAz?$AAh?$AA?9?$AAc?$AAn?$AA?$AA@ 0000000180037358     libucrt:lcidtoname_downlevel.obj
 0002:00006368       ??_C@_1M@OCJEJODD@?$AAz?$AAh?$AA?9?$AAh?$AAk?$AA?$AA@ 0000000180037368     libucrt:lcidtoname_downlevel.obj
 0002:00006378       ??_C@_1M@DNDLJINH@?$AAz?$AAh?$AA?9?$AAm?$AAo?$AA?$AA@ 0000000180037378     libucrt:lcidtoname_downlevel.obj
 0002:00006388       ??_C@_1M@MBFDNDND@?$AAz?$AAh?$AA?9?$AAs?$AAg?$AA?$AA@ 0000000180037388     libucrt:lcidtoname_downlevel.obj
 0002:00006398       ??_C@_1M@IMEPLEPE@?$AAz?$AAh?$AA?9?$AAt?$AAw?$AA?$AA@ 0000000180037398     libucrt:lcidtoname_downlevel.obj
 0002:000063a8       ??_C@_1M@BBGHNHJP@?$AAz?$AAu?$AA?9?$AAz?$AAa?$AA?$AA@ 00000001800373a8     libucrt:lcidtoname_downlevel.obj
 0002:000063c0       ?large_power_data@?1??multiply_by_power_of_ten@__crt_strtox@@YA_NAEAUbig_integer@2@I@Z@4QBIB 00000001800373c0     libucrt:cfout.obj
 0002:00006cd0       ?large_power_indices@?1??multiply_by_power_of_ten@__crt_strtox@@YA_NAEAUbig_integer@2@I@Z@4QBUunpack_index@?1??12@YA_N0I@Z@B 0000000180037cd0     libucrt:cfout.obj
 0002:00006d68       ?small_powers_of_ten@?6??multiply_by_power_of_ten@__crt_strtox@@YA_NAEAUbig_integer@2@I@Z@4QBIB 0000000180037d68     libucrt:cfout.obj
 0002:00006d8c       ??_C@_05DNEBIAHO@1?$CDINF?$AA@ 0000000180037d8c     libucrt:cfout.obj
 0002:00006d94       ??_C@_06IMKFLFPG@1?$CDQNAN?$AA@ 0000000180037d94     libucrt:cfout.obj
 0002:00006d9c       ??_C@_06PGGFOGJG@1?$CDSNAN?$AA@ 0000000180037d9c     libucrt:cfout.obj
 0002:00006da4       ??_C@_05PHHOCPM@1?$CDIND?$AA@ 0000000180037da4     libucrt:cfout.obj
 0002:00007010       ??_C@_1BA@BALFACEM@?$AAC?$AAO?$AAN?$AAO?$AAU?$AAT?$AA$?$AA?$AA@ 0000000180038010     libucrt:initcon.obj
 0002:00007020       __log10_256_lead           0000000180038020     libucrt:log10_256_lead_tail_table.obj
 0002:00007830       __log10_256_tail           0000000180038830     libucrt:log10_256_lead_tail_table.obj
 0002:00008040       __log_F_inv_qword          0000000180039040     libucrt:log_f_inv_qword_table.obj
 0002:00008850       ??_C@_1BK@DBDEIDLH@?$AAK?$AAE?$AAR?$AAN?$AAE?$AAL?$AA3?$AA2?$AA?4?$AAD?$AAL?$AAL?$AA?$AA@ 0000000180039850     DelayImp:delayhlp.obj
 0002:00008870       ??_C@_0BI@OMNLIJDB@AcquireSRWLockExclusive?$AA@ 0000000180039870     DelayImp:delayhlp.obj
 0002:00008888       ??_C@_0BI@HMIEPCNJ@ReleaseSRWLockExclusive?$AA@ 0000000180039888     DelayImp:delayhlp.obj
 0002:000088a0       _load_config_used          00000001800398a0     LIBCMT:loadcfg.obj
 0002:00008938       ??_C@_0CK@JCPCLECK@external?5memory?5allocation?5limit@ 0000000180039938     Canvas.obj
 0002:00008968       ??_C@_1DG@OKCGPKIB@?$AAp?$AAe?$AAr?$AAs?$AAi?$AAs?$AAt?$AAe?$AAn?$AAt?$AA?$CI?$AA?$CJ?$AA?4?$AAI?$AAs?$AAN?$AAe?$AAa?$AAr?$AAD?$AAe?$AAa?$AAt?$AAh?$AA?$CI?$AA?$CJ?$AA?$AA@ 0000000180039968     Canvas.obj
 0002:000089a0       ??_C@_1CO@EGNPJLKI@?$AAp?$AAe?$AAr?$AAs?$AAi?$AAs?$AAt?$AAe?$AAn?$AAt?$AA?$CI?$AA?$CJ?$AA?4?$AAI?$AAs?$AAE?$AAm?$AAp?$AAt?$AAy?$AA?$CI?$AA?$CJ?$AA?$AA@ 00000001800399a0     Canvas.obj
 0002:000089d0       ??_C@_1DA@FBGAEOIO@?$AA?$CB?$AAp?$AAe?$AAr?$AAs?$AAi?$AAs?$AAt?$AAe?$AAn?$AAt?$AA?$CI?$AA?$CJ?$AA?4?$AAI?$AAs?$AAE?$AAm?$AAp?$AAt?$AAy?$AA?$CI?$AA?$CJ?$AA?$AA@ 00000001800399d0     Canvas.obj
 0002:00008a00       ??_C@_1CO@JCKLEFMA@?$AA?$CB?$AAp?$AAe?$AAr?$AAs?$AAi?$AAs?$AAt?$AAe?$AAn?$AAt?$AA?$CI?$AA?$CJ?$AA?4?$AAI?$AAs?$AAW?$AAe?$AAa?$AAk?$AA?$CI?$AA?$CJ?$AA?$AA@ 0000000180039a00     Canvas.obj
 0002:00008a30       ??_C@_1BE@GMLLOIPJ@?$AAr?$AAe?$AAf?$AAs?$AA_?$AA?5?$AA?$DO?$AA?5?$AA0?$AA?$AA@ 0000000180039a30     Canvas.obj
 0002:00008a48       ??_C@_1CC@GBFLAAPF@?$AAw?$AAr?$AAa?$AAp?$AA?9?$AA?$DO?$AAr?$AAe?$AAf?$AAs?$AA_?$AA?5?$AA?$DN?$AA?$DN?$AA?5?$AA0?$AA?$AA@ 0000000180039a48     Canvas.obj
 0002:00008a70       ??_C@_1DI@ELDBKNAK@?$AAw?$AAr?$AAa?$AAp?$AA?9?$AA?$DO?$AAh?$AAa?$AAn?$AAd?$AAl?$AAe?$AA_?$AA?4?$AAI?$AAs?$AAN?$AAe?$AAa?$AAr?$AAD?$AAe?$AAa?$AAt?$AAh?$AA?$CI?$AA?$CJ?$AA?$AA@ 0000000180039a70     Canvas.obj
 0002:00008ab0       ??_C@_1LI@BNKICJGD@?$AAC?$AA?3?$AA?2?$AAU?$AAs?$AAe?$AAr?$AAs?$AA?2?$AAL?$AAe?$AAo?$AAn?$AA?2?$AAD?$AAo?$AAc?$AAu?$AAm?$AAe?$AAn?$AAt?$AAs?$AA?2?$AAG?$AAi?$AAt?$AAH?$AAu?$AAb?$AA?2?$AAM@ 0000000180039ab0     Canvas.obj
 0002:00008b70       ??_C@_1FM@LOELJOFK@?$AAs?$AAi?$AAz?$AAe?$AA?5?$AA?$DM?$AA?$DN?$AA?5?$AAi?$AAm?$AAp?$AA?3?$AA?3?$AAk?$AAM?$AAa?$AAx?$AAL?$AAe?$AAn?$AAg?$AAt?$AAh?$AA?5?$AA?$CG?$AA?$CG?$AA?5?$AA?$CC?$AAt?$AAo?$AAo?$AA?5@ 0000000180039b70     Canvas.obj
 0002:00008bd0       ??_C@_1NA@CLCMEJHH@?$AAc?$AA?3?$AA?2?$AAu?$AAs?$AAe?$AAr?$AAs?$AA?2?$AAl?$AAe?$AAo?$AAn?$AA?2?$AAd?$AAo?$AAc?$AAu?$AAm?$AAe?$AAn?$AAt?$AAs?$AA?2?$AAg?$AAi?$AAt?$AAh?$AAu?$AAb?$AA?2?$AAm@ 0000000180039bd0     Canvas.obj
 0002:00008ca0       ??_C@_1EC@MGGLMBLC@?$AAo?$AAb?$AAj?$AAe?$AAc?$AAt?$AA?9?$AA?$DO?$AAI?$AAn?$AAt?$AAe?$AAr?$AAn?$AAa?$AAl?$AAF?$AAi?$AAe?$AAl?$AAd?$AAC?$AAo?$AAu?$AAn?$AAt?$AA?$CI?$AA?$CJ?$AA?5?$AA?$DO?$AA?5?$AA0@ 0000000180039ca0     Canvas.obj
 0002:00008ce4       ??_C@_05EGBLHKBN@1?44?43?$AA@ 0000000180039ce4     Canvas.obj
 0002:00008cec       ??_C@_06PBIJCONE@Canvas?$AA@ 0000000180039cec     Canvas.obj
 0002:00008cf8       ??_C@_08GOCDALDA@toBuffer?$AA@ 0000000180039cf8     Canvas.obj
 0002:00008d08       ??_C@_0O@IOKOGJGN@streamPNGSync?$AA@ 0000000180039d08     Canvas.obj
 0002:00008d18       ??_C@_04GPMDFGEJ@type?$AA@ 0000000180039d18     Canvas.obj
 0002:00008d20       ??_C@_05IGKADHGO@width?$AA@ 0000000180039d20     Canvas.obj
 0002:00008d28       ??_C@_06LNLHEAAG@height?$AA@ 0000000180039d28     Canvas.obj
 0002:00008d30       ??_C@_0P@DNOOAMCM@PNG_NO_FILTERS?$AA@ 0000000180039d30     Canvas.obj
 0002:00008d40       ??_C@_0BA@NECJFJGB@PNG_FILTER_NONE?$AA@ 0000000180039d40     Canvas.obj
 0002:00008d50       ??_C@_0P@ILKINAJE@PNG_FILTER_SUB?$AA@ 0000000180039d50     Canvas.obj
 0002:00008d60       ??_C@_0O@PHEANGBB@PNG_FILTER_UP?$AA@ 0000000180039d60     Canvas.obj
 0002:00008d70       ??_C@_0P@OIJAFJM@PNG_FILTER_AVG?$AA@ 0000000180039d70     Canvas.obj
 0002:00008d80       ??_C@_0BB@EOMICOFG@PNG_FILTER_PAETH?$AA@ 0000000180039d80     Canvas.obj
 0002:00008d98       ??_C@_0BA@HBOOLNBH@PNG_ALL_FILTERS?$AA@ 0000000180039d98     Canvas.obj
 0002:00008da8       ??_C@_03MJPNCPKC@pdf?$AA@  0000000180039da8     Canvas.obj
 0002:00008dac       ??_C@_03NNPBMGBD@svg?$AA@  0000000180039dac     Canvas.obj
 0002:00008db0       ??_C@_05NGOMGBBD@image?$AA@ 0000000180039db0     Canvas.obj
 0002:00008db8       ??_C@_01GBGANLPD@0?$AA@    0000000180039db8     Canvas.obj
 0002:00008dc0       ??_C@_0DE@NKCMEFAA@Allowed?5compression?5levels?5lie?5i@ 0000000180039dc0     Canvas.obj
 0002:00008df8       ??_C@_0CE@KMCMNKHK@Compression?5level?5must?5be?5a?5numb@ 0000000180039df8     Canvas.obj
 0002:00008e20       ??_C@_0BG@HPFBKLBE@Invalid?5filter?5value?4?$AA@ 0000000180039e20     Canvas.obj
 0002:00008e38       ??_C@_0BL@NEPODJIN@callback?5function?5required?$AA@ 0000000180039e38     Canvas.obj
 0002:00008e58       ??_C@_1CC@CMIELAMF@?$AA?4?$AA?4?$AA?2?$AAs?$AAr?$AAc?$AA?2?$AAC?$AAa?$AAn?$AAv?$AAa?$AAs?$AA?4?$AAc?$AAc?$AA?$AA@ 0000000180039e58     Canvas.obj
 0002:00008e80       ??_C@_1BC@KFAOGGDO@?$AA_?$AAc?$AAl?$AAo?$AAs?$AAu?$AAr?$AAe?$AA?$AA@ 0000000180039e80     Canvas.obj
 0002:00008e98       ??_C@_1DO@PEKPJEKO@?$AAs?$AAt?$AAa?$AAt?$AAu?$AAs?$AA?5?$AA?$DN?$AA?$DN?$AA?5?$AAC?$AAA?$AAI?$AAR?$AAO?$AA_?$AAS?$AAT?$AAA?$AAT?$AAU?$AAS?$AA_?$AAS?$AAU?$AAC?$AAC?$AAE?$AAS?$AAS?$AA?$AA@ 0000000180039e98     Canvas.obj
 0002:00008ed8       ??_C@_1BC@OIIGNDNN@?$AA_?$AAs?$AAu?$AAr?$AAf?$AAa?$AAc?$AAe?$AA?$AA@ 0000000180039ed8     Canvas.obj
 0002:00008ef0       ??_C@_07JKKCBBMM@context?$AA@ 0000000180039ef0     Canvas.obj
 0002:00008ef8       ??_C@_1CE@LNAGEONJ@?$AA?$CB?$AAo?$AAb?$AAj?$AAe?$AAc?$AAt?$AA?4?$AAI?$AAs?$AAE?$AAm?$AAp?$AAt?$AAy?$AA?$CI?$AA?$CJ?$AA?$AA@ 0000000180039ef8     Canvas.obj
 0002:00008f20       ??_7ExternalStringResourceBase@String@v8@@6B@ 0000000180039f20     Canvas.obj
 0002:00008f30       ??_7ExternalOneByteStringResourceImpl@v8@@6B@ 0000000180039f30     Canvas.obj
 0002:00008f50       ??_7ExternalStringResource@String@v8@@6B@ 0000000180039f50     Canvas.obj
 0002:00008f50       ??_7ExternalOneByteStringResource@String@v8@@6B@ 0000000180039f50     Canvas.obj
 0002:00008f70       ??_7ExternalSourceStream@ScriptCompiler@v8@@6B@ 0000000180039f70     Canvas.obj
 0002:00008f90       ??_7Allocator@ArrayBuffer@v8@@6B@ 0000000180039f90     Canvas.obj
 0002:00008fb0       ??_7ObjectWrap@Nan@@6B@    0000000180039fb0     Canvas.obj
 0002:00008fc8       ??_7Canvas@@6B@            0000000180039fc8     Canvas.obj
 0002:00008fe0       ??_7Extension@v8@@6B@      0000000180039fe0     Canvas.obj
 0002:00008ff0       ?kNoLineNumberInfo@Message@v8@@2HB 0000000180039ff0     Canvas.obj
 0002:00008ff0       ?kNoScriptIdInfo@Message@v8@@2HB 0000000180039ff0     Canvas.obj
 0002:00008ff0       ?kNoColumnInfo@Message@v8@@2HB 0000000180039ff0     Canvas.obj
 0002:00008ff0       ?kNoScriptId@UnboundScript@v8@@2HB 0000000180039ff0     Canvas.obj
 0002:00008ff4       ?kMaxLength@String@v8@@2HB 0000000180039ff4     Canvas.obj
 0002:00008ff8       ?kInternalFieldCount@ArrayBufferView@v8@@2HB 0000000180039ff8     Canvas.obj
 0002:00008ff8       ?kInternalFieldCount@ArrayBuffer@v8@@2HB 0000000180039ff8     Canvas.obj
 0002:00008ff8       ?kInternalFieldCount@SharedArrayBuffer@v8@@2HB 0000000180039ff8     Canvas.obj
 0002:00009000       ??_7PersistentHandleVisitor@v8@@6B@ 000000018003a000     Canvas.obj
 0002:00009000       ??_7ExternalResourceVisitor@v8@@6B@ 000000018003a000     Canvas.obj
 0002:00009010       ??_C@_0P@CKNMLMDB@CanvasGradient?$AA@ 000000018003a010     CanvasGradient.obj
 0002:00009020       ??_C@_0N@FFOKKILE@addColorStop?$AA@ 000000018003a020     CanvasGradient.obj
 0002:00009030       ??_C@_0BC@KNPMEBHA@invalid?5arguments?$AA@ 000000018003a030     CanvasGradient.obj
 0002:00009048       ??_C@_0BA@ELGKPKEI@offset?5required?$AA@ 000000018003a048     CanvasGradient.obj
 0002:00009058       ??_C@_0BG@HHHCEBEM@color?5string?5required?$AA@ 000000018003a058     CanvasGradient.obj
 0002:00009070       ??_C@_0BD@JKDEPLNJ@parse?5color?5failed?$AA@ 000000018003a070     CanvasGradient.obj
 0002:00009088       ??_7Gradient@@6B@          000000018003a088     CanvasGradient.obj
 0002:000090a0       ??_7Pattern@@6B@           000000018003a0a0     CanvasPattern.obj
 0002:000090b8       ??_C@_0O@KEPDKAFI@CanvasPattern?$AA@ 000000018003a0b8     CanvasPattern.obj
 0002:000090c8       ??_C@_0CG@CKGIHBBA@Image?5given?5has?5not?5completed?5lo@ 000000018003a0c8     CanvasPattern.obj
 0002:000090f0       ??_C@_0BJ@NBALILEB@Image?5or?5Canvas?5expected?$AA@ 000000018003a0f0     CanvasPattern.obj
 0002:00009110       ??_C@_0BJ@OLEJJKDH@CanvasRenderingContext2d?$AA@ 000000018003a110     CanvasRenderingContext2d.obj
 0002:00009130       ??_C@_09LANPKMCJ@drawImage?$AA@ 000000018003a130     CanvasRenderingContext2d.obj
 0002:00009140       ??_C@_0N@HMHAOANH@putImageData?$AA@ 000000018003a140     CanvasRenderingContext2d.obj
 0002:00009150       ??_C@_0N@LJBMKNKJ@getImageData?$AA@ 000000018003a150     CanvasRenderingContext2d.obj
 0002:00009160       ??_C@_07IEJLLIOD@addPage?$AA@ 000000018003a160     CanvasRenderingContext2d.obj
 0002:00009168       ??_C@_04EMMDIJJL@save?$AA@ 000000018003a168     CanvasRenderingContext2d.obj
 0002:00009170       ??_C@_07HICINA@restore?$AA@ 000000018003a170     CanvasRenderingContext2d.obj
 0002:00009178       ??_C@_06CEHMNFAL@rotate?$AA@ 000000018003a178     CanvasRenderingContext2d.obj
 0002:00009180       ??_C@_09ODNGOEIO@translate?$AA@ 000000018003a180     CanvasRenderingContext2d.obj
 0002:00009190       ??_C@_09IFONHNKG@transform?$AA@ 000000018003a190     CanvasRenderingContext2d.obj
 0002:000091a0       ??_C@_0P@KBHJLFLN@resetTransform?$AA@ 000000018003a1a0     CanvasRenderingContext2d.obj
 0002:000091b0       ??_C@_0O@MDNHBEAB@isPointInPath?$AA@ 000000018003a1b0     CanvasRenderingContext2d.obj
 0002:000091c0       ??_C@_05MHMEBBGO@scale?$AA@ 000000018003a1c0     CanvasRenderingContext2d.obj
 0002:000091c8       ??_C@_04POIGMEJN@clip?$AA@ 000000018003a1c8     CanvasRenderingContext2d.obj
 0002:000091d0       ??_C@_04OBAECEGJ@fill?$AA@ 000000018003a1d0     CanvasRenderingContext2d.obj
 0002:000091d8       ??_C@_06JDPPEKDJ@stroke?$AA@ 000000018003a1d8     CanvasRenderingContext2d.obj
 0002:000091e0       ??_C@_08BKNBKKHP@fillText?$AA@ 000000018003a1e0     CanvasRenderingContext2d.obj
 0002:000091f0       ??_C@_0L@NKNGGLJB@strokeText?$AA@ 000000018003a1f0     CanvasRenderingContext2d.obj
 0002:00009200       ??_C@_08IFOCBDEO@fillRect?$AA@ 000000018003a200     CanvasRenderingContext2d.obj
 0002:00009210       ??_C@_0L@EFOFNCKA@strokeRect?$AA@ 000000018003a210     CanvasRenderingContext2d.obj
 0002:00009220       ??_C@_09CADLENBP@clearRect?$AA@ 000000018003a220     CanvasRenderingContext2d.obj
 0002:0000922c       ??_C@_04LHPFHFPH@rect?$AA@ 000000018003a22c     CanvasRenderingContext2d.obj
 0002:00009238       ??_C@_0M@PDPLNFGN@measureText?$AA@ 000000018003a238     CanvasRenderingContext2d.obj
 0002:00009244       ??_C@_06ICOKFDHB@moveTo?$AA@ 000000018003a244     CanvasRenderingContext2d.obj
 0002:0000924c       ??_C@_06KCFEGHJL@lineTo?$AA@ 000000018003a24c     CanvasRenderingContext2d.obj
 0002:00009258       ??_C@_0O@PAEGDEKM@bezierCurveTo?$AA@ 000000018003a258     CanvasRenderingContext2d.obj
 0002:00009268       ??_C@_0BB@NNCDNEFE@quadraticCurveTo?$AA@ 000000018003a268     CanvasRenderingContext2d.obj
 0002:00009280       ??_C@_09GMDIDHBP@beginPath?$AA@ 000000018003a280     CanvasRenderingContext2d.obj
 0002:00009290       ??_C@_09FFNFMCIM@closePath?$AA@ 000000018003a290     CanvasRenderingContext2d.obj
 0002:0000929c       ??_C@_03EEIEDENP@arc?$AA@  000000018003a29c     CanvasRenderingContext2d.obj
 0002:000092a0       ??_C@_05KOMEJIOF@arcTo?$AA@ 000000018003a2a0     CanvasRenderingContext2d.obj
 0002:000092a8       ??_C@_0M@KIBHMOJH@setLineDash?$AA@ 000000018003a2a8     CanvasRenderingContext2d.obj
 0002:000092b8       ??_C@_0M@KHAJBIBE@getLineDash?$AA@ 000000018003a2b8     CanvasRenderingContext2d.obj
 0002:000092c8       ??_C@_08GCBDMPHE@_setFont?$AA@ 000000018003a2c8     CanvasRenderingContext2d.obj
 0002:000092d8       ??_C@_0O@LDAFEHIB@_setFillColor?$AA@ 000000018003a2d8     CanvasRenderingContext2d.obj
 0002:000092e8       ??_C@_0BA@KNEOHGAJ@_setStrokeColor?$AA@ 000000018003a2e8     CanvasRenderingContext2d.obj
 0002:000092f8       ??_C@_0BA@PBFLDAPN@_setFillPattern?$AA@ 000000018003a2f8     CanvasRenderingContext2d.obj
 0002:00009308       ??_C@_0BC@FDNPDMMP@_setStrokePattern?$AA@ 000000018003a308     CanvasRenderingContext2d.obj
 0002:00009320       ??_C@_0BB@CFGDFFJO@_setTextBaseline?$AA@ 000000018003a320     CanvasRenderingContext2d.obj
 0002:00009338       ??_C@_0BC@FPEBGOFB@_setTextAlignment?$AA@ 000000018003a338     CanvasRenderingContext2d.obj
 0002:00009350       ??_C@_0P@HGKACBEG@patternQuality?$AA@ 000000018003a350     CanvasRenderingContext2d.obj
 0002:00009360       ??_C@_0BJ@KOAEPHEF@globalCompositeOperation?$AA@ 000000018003a360     CanvasRenderingContext2d.obj
 0002:00009380       ??_C@_0M@EJNLOLOE@globalAlpha?$AA@ 000000018003a380     CanvasRenderingContext2d.obj
 0002:00009390       ??_C@_0M@JPJLLJDB@shadowColor?$AA@ 000000018003a390     CanvasRenderingContext2d.obj
 0002:000093a0       ??_C@_09EGMCAAKI@fillColor?$AA@ 000000018003a3a0     CanvasRenderingContext2d.obj
 0002:000093b0       ??_C@_0M@BLAMIBG@strokeColor?$AA@ 000000018003a3b0     CanvasRenderingContext2d.obj
 0002:000093c0       ??_C@_0L@EFNIPLDK@miterLimit?$AA@ 000000018003a3c0     CanvasRenderingContext2d.obj
 0002:000093d0       ??_C@_09PELAPJEH@lineWidth?$AA@ 000000018003a3d0     CanvasRenderingContext2d.obj
 0002:000093e0       ??_C@_07IPBACFHB@lineCap?$AA@ 000000018003a3e0     CanvasRenderingContext2d.obj
 0002:000093e8       ??_C@_08CCMLJKBL@lineJoin?$AA@ 000000018003a3e8     CanvasRenderingContext2d.obj
 0002:000093f8       ??_C@_0P@NNEFDNMM@lineDashOffset?$AA@ 000000018003a3f8     CanvasRenderingContext2d.obj
 0002:00009408       ??_C@_0O@FOAIOCIO@shadowOffsetX?$AA@ 000000018003a408     CanvasRenderingContext2d.obj
 0002:00009418       ??_C@_0O@EHBDNDMP@shadowOffsetY?$AA@ 000000018003a418     CanvasRenderingContext2d.obj
 0002:00009428       ??_C@_0L@FJBIPGOL@shadowBlur?$AA@ 000000018003a428     CanvasRenderingContext2d.obj
 0002:00009438       ??_C@_09BEIGEBLF@antialias?$AA@ 000000018003a438     CanvasRenderingContext2d.obj
 0002:00009448       ??_C@_0BA@GALDJJKL@textDrawingMode?$AA@ 000000018003a448     CanvasRenderingContext2d.obj
 0002:00009458       ??_C@_06EOIELIPE@filter?$AA@ 000000018003a458     CanvasRenderingContext2d.obj
 0002:00009460       ??_C@_0BA@IBFIJLCO@Canvas?5expected?$AA@ 000000018003a460     CanvasRenderingContext2d.obj
 0002:00009470       ??_C@_0CG@EHLCPGGB@only?5PDF?5canvases?5support?5?4nextP@ 000000018003a470     CanvasRenderingContext2d.obj
 0002:00009498       ??_C@_0BD@DJPHEEKJ@ImageData?5expected?$AA@ 000000018003a498     CanvasRenderingContext2d.obj
 0002:000094b0       ??_C@_0CH@NDMGIAMG@IndexSizeError?3?5The?5source?5width@ 000000018003a4b0     CanvasRenderingContext2d.obj
 0002:000094d8       ??_C@_0CI@HDADGBDO@IndexSizeError?3?5The?5source?5heigh@ 000000018003a4d8     CanvasRenderingContext2d.obj
 0002:00009500       ??_C@_0M@OABMHCHE@source?9over?$AA@ 000000018003a500     CanvasRenderingContext2d.obj
 0002:00009510       ??_C@_0M@MKIEODMK@source?9atop?$AA@ 000000018003a510     CanvasRenderingContext2d.obj
 0002:00009520       ??_C@_09CMAEPNDN@source?9in?$AA@ 000000018003a520     CanvasRenderingContext2d.obj
 0002:00009530       ??_C@_0L@CGAPOHFD@source?9out?$AA@ 000000018003a530     CanvasRenderingContext2d.obj
 0002:0000953c       ??_C@_03COLCDPPJ@xor?$AA@  000000018003a53c     CanvasRenderingContext2d.obj
 0002:00009540       ??_C@_0BB@CPBJJEG@destination?9atop?$AA@ 000000018003a540     CanvasRenderingContext2d.obj
 0002:00009558       ??_C@_0P@GAHJLNBO@destination?9in?$AA@ 000000018003a558     CanvasRenderingContext2d.obj
 0002:00009568       ??_C@_0BA@IECEOLGB@destination?9out?$AA@ 000000018003a568     CanvasRenderingContext2d.obj
 0002:00009578       ??_C@_0BB@CIGJAIPI@destination?9over?$AA@ 000000018003a578     CanvasRenderingContext2d.obj
 0002:0000958c       ??_C@_05MEHLAELG@clear?$AA@ 000000018003a58c     CanvasRenderingContext2d.obj
 0002:00009594       ??_C@_06OEKOLKIL@source?$AA@ 000000018003a594     CanvasRenderingContext2d.obj
 0002:0000959c       ??_C@_04EEHDLEKF@dest?$AA@ 000000018003a59c     CanvasRenderingContext2d.obj
 0002:000095a4       ??_C@_04DPPOAFIB@over?$AA@ 000000018003a5a4     CanvasRenderingContext2d.obj
 0002:000095b0       ??_C@_08MEKLKAIJ@saturate?$AA@ 000000018003a5b0     CanvasRenderingContext2d.obj
 0002:000095c0       ??_C@_07OODLOHBD@lighten?$AA@ 000000018003a5c0     CanvasRenderingContext2d.obj
 0002:000095c8       ??_C@_03BDGOHNNK@add?$AA@  000000018003a5c8     CanvasRenderingContext2d.obj
 0002:000095cc       ??_C@_06OCOCEFJK@darker?$AA@ 000000018003a5cc     CanvasRenderingContext2d.obj
 0002:000095d8       ??_C@_08MMOCDOEL@multiply?$AA@ 000000018003a5d8     CanvasRenderingContext2d.obj
 0002:000095e4       ??_C@_06LPLGMLP@screen?$AA@ 000000018003a5e4     CanvasRenderingContext2d.obj
 0002:000095f0       ??_C@_07BJNHBMF@overlay?$AA@ 000000018003a5f0     CanvasRenderingContext2d.obj
 0002:000095f8       ??_C@_0L@CEKGHIKD@hard?9light?$AA@ 000000018003a5f8     CanvasRenderingContext2d.obj
 0002:00009608       ??_C@_0L@DKCPCJMJ@soft?9light?$AA@ 000000018003a608     CanvasRenderingContext2d.obj
 0002:00009618       ??_C@_07LGBGJPAP@hsl?9hue?$AA@ 000000018003a618     CanvasRenderingContext2d.obj
 0002:00009620       ??_C@_0P@HLIOCFIP@hsl?9saturation?$AA@ 000000018003a620     CanvasRenderingContext2d.obj
 0002:00009630       ??_C@_09IEDFIDAP@hsl?9color?$AA@ 000000018003a630     CanvasRenderingContext2d.obj
 0002:00009640       ??_C@_0P@HOBGGHID@hsl?9luminosity?$AA@ 000000018003a640     CanvasRenderingContext2d.obj
 0002:00009650       ??_C@_0M@HJIFAOGP@color?9dodge?$AA@ 000000018003a650     CanvasRenderingContext2d.obj
 0002:00009660       ??_C@_0L@BNODHIAO@color?9burn?$AA@ 000000018003a660     CanvasRenderingContext2d.obj
 0002:00009670       ??_C@_0L@CHCOIIBP@difference?$AA@ 000000018003a670     CanvasRenderingContext2d.obj
 0002:00009680       ??_C@_09GJPEMMGJ@exclusion?$AA@ 000000018003a680     CanvasRenderingContext2d.obj
 0002:0000968c       ??_C@_04LBNBHAJC@fast?$AA@ 000000018003a68c     CanvasRenderingContext2d.obj
 0002:00009694       ??_C@_04DDJAGGFE@good?$AA@ 000000018003a694     CanvasRenderingContext2d.obj
 0002:0000969c       ??_C@_04MLDDEBAF@best?$AA@ 000000018003a69c     CanvasRenderingContext2d.obj
 0002:000096a8       ??_C@_07NHJEPDMH@nearest?$AA@ 000000018003a6a8     CanvasRenderingContext2d.obj
 0002:000096b0       ??_C@_08LJMMPFJO@bilinear?$AA@ 000000018003a6b0     CanvasRenderingContext2d.obj
 0002:000096c0       ??_C@_07IEMLKEO@lighter?$AA@ 000000018003a6c0     CanvasRenderingContext2d.obj
 0002:000096c8       ??_C@_04CGFJFPFD@none?$AA@ 000000018003a6c8     CanvasRenderingContext2d.obj
 0002:000096d0       ??_C@_04GEBBKIAA@gray?$AA@ 000000018003a6d0     CanvasRenderingContext2d.obj
 0002:000096d8       ??_C@_08JOJOGLJH@subpixel?$AA@ 000000018003a6d8     CanvasRenderingContext2d.obj
 0002:000096e8       ??_C@_07DLHCIBDH@default?$AA@ 000000018003a6e8     CanvasRenderingContext2d.obj
 0002:000096f0       ??_C@_04LNEJFJGI@path?$AA@ 000000018003a6f0     CanvasRenderingContext2d.obj
 0002:000096f8       ??_C@_05OIOMJNBL@glyph?$AA@ 000000018003a6f8     CanvasRenderingContext2d.obj
 0002:00009700       ??_C@_07CIFAGBMG@unknown?$AA@ 000000018003a700     CanvasRenderingContext2d.obj
 0002:00009708       ??_C@_05JDNDNKBA@bevel?$AA@ 000000018003a708     CanvasRenderingContext2d.obj
 0002:00009710       ??_C@_05MIMAKCN@round?$AA@ 000000018003a710     CanvasRenderingContext2d.obj
 0002:00009718       ??_C@_05NJDNHCJA@miter?$AA@ 000000018003a718     CanvasRenderingContext2d.obj
 0002:00009720       ??_C@_06ICDKOIFG@square?$AA@ 000000018003a720     CanvasRenderingContext2d.obj
 0002:00009728       ??_C@_04JOGFAABP@butt?$AA@ 000000018003a728     CanvasRenderingContext2d.obj
 0002:00009730       ??_C@_0BN@MEBGIMHG@Gradient?5or?5Pattern?5expected?$AA@ 000000018003a730     CanvasRenderingContext2d.obj
 0002:00009750       ??_C@_0BM@CKBGKGDN@lineTo?$CI?$CJ?5x?5must?5be?5a?5number?$AA@ 000000018003a750     CanvasRenderingContext2d.obj
 0002:00009770       ??_C@_0BM@PNPECGGF@lineTo?$CI?$CJ?5y?5must?5be?5a?5number?$AA@ 000000018003a770     CanvasRenderingContext2d.obj
 0002:00009790       ??_C@_0BM@GIIBHACD@moveTo?$CI?$CJ?5x?5must?5be?5a?5number?$AA@ 000000018003a790     CanvasRenderingContext2d.obj
 0002:000097b0       ??_C@_0BM@LPGDPAHL@moveTo?$CI?$CJ?5y?5must?5be?5a?5number?$AA@ 000000018003a7b0     CanvasRenderingContext2d.obj
 0002:000097cc       ??_C@_06DAHKLION@italic?$AA@ 000000018003a7cc     CanvasRenderingContext2d.obj
 0002:000097d8       ??_C@_07PNBIOHPA@oblique?$AA@ 000000018003a7d8     CanvasRenderingContext2d.obj
 0002:000097e0       ??_C@_04PJDGFHHN@bold?$AA@ 000000018003a7e0     CanvasRenderingContext2d.obj
 0002:000097e8       ??_C@_0BG@IGICBKHO@actualBoundingBoxLeft?$AA@ 000000018003a7e8     CanvasRenderingContext2d.obj
 0002:00009800       ??_C@_0BH@KNMENBEI@actualBoundingBoxRight?$AA@ 000000018003a800     CanvasRenderingContext2d.obj
 0002:00009818       ??_C@_0BI@NBNJEOJE@actualBoundingBoxAscent?$AA@ 000000018003a818     CanvasRenderingContext2d.obj
 0002:00009830       ??_C@_0BJ@LKCIMDON@actualBoundingBoxDescent?$AA@ 000000018003a830     CanvasRenderingContext2d.obj
 0002:00009850       ??_C@_0P@FGHEPLGI@emHeightAscent?$AA@ 000000018003a850     CanvasRenderingContext2d.obj
 0002:00009860       ??_C@_0BA@OKENAGP@emHeightDescent?$AA@ 000000018003a860     CanvasRenderingContext2d.obj
 0002:00009870       ??_C@_0BD@NGFBNEGE@alphabeticBaseline?$AA@ 000000018003a870     CanvasRenderingContext2d.obj
 0002:00009888       ??_C@_0BD@OLBABOEK@vector?$DMT?$DO?5too?5long?$AA@ 000000018003a888     CanvasRenderingContext2d.obj
 0002:000098a0       ??_7Context2d@@6B@         000000018003a8a0     CanvasRenderingContext2d.obj
 0002:000098b8       ??_C@_0M@CEEDCJLA@transparent?$AA@ 000000018003a8b8     color.obj
 0002:000098c8       ??_C@_09GNHGKALJ@aliceblue?$AA@ 000000018003a8c8     color.obj
 0002:000098d8       ??_C@_0N@OJFLMGEJ@antiquewhite?$AA@ 000000018003a8d8     color.obj
 0002:000098e8       ??_C@_04GANAGBLL@aqua?$AA@ 000000018003a8e8     color.obj
 0002:000098f0       ??_C@_0L@MOKEMMG@aquamarine?$AA@ 000000018003a8f0     color.obj
 0002:000098fc       ??_C@_05CNOJAJLP@azure?$AA@ 000000018003a8fc     color.obj
 0002:00009904       ??_C@_05EJOPPCPO@beige?$AA@ 000000018003a904     color.obj
 0002:0000990c       ??_C@_06HGAAELGA@bisque?$AA@ 000000018003a90c     color.obj
 0002:00009914       ??_C@_05BIMBDNDC@black?$AA@ 000000018003a914     color.obj
 0002:00009920       ??_C@_0P@CMCBOAOE@blanchedalmond?$AA@ 000000018003a920     color.obj
 0002:00009930       ??_C@_04OBGPFBCN@blue?$AA@ 000000018003a930     color.obj
 0002:00009938       ??_C@_0L@LKLKALMM@blueviolet?$AA@ 000000018003a938     color.obj
 0002:00009944       ??_C@_05EBJGJMAL@brown?$AA@ 000000018003a944     color.obj
 0002:00009950       ??_C@_09JHLANABP@burlywood?$AA@ 000000018003a950     color.obj
 0002:00009960       ??_C@_09KIJDGGAG@cadetblue?$AA@ 000000018003a960     color.obj
 0002:00009970       ??_C@_0L@CHNAEACO@chartreuse?$AA@ 000000018003a970     color.obj
 0002:00009980       ??_C@_09BPADAHOC@chocolate?$AA@ 000000018003a980     color.obj
 0002:0000998c       ??_C@_05JKFECOJP@coral?$AA@ 000000018003a98c     color.obj
 0002:00009998       ??_C@_0P@KLMOGGLK@cornflowerblue?$AA@ 000000018003a998     color.obj
 0002:000099a8       ??_C@_08DECOJLB@cornsilk?$AA@ 000000018003a9a8     color.obj
 0002:000099b8       ??_C@_07DAGIGOOE@crimson?$AA@ 000000018003a9b8     color.obj
 0002:000099c0       ??_C@_04EDBDANFH@cyan?$AA@ 000000018003a9c0     color.obj
 0002:000099c8       ??_C@_08MFEOPMII@darkblue?$AA@ 000000018003a9c8     color.obj
 0002:000099d8       ??_C@_08GHDCKAPC@darkcyan?$AA@ 000000018003a9d8     color.obj
 0002:000099e8       ??_C@_0O@GGJPBKNE@darkgoldenrod?$AA@ 000000018003a9e8     color.obj
 0002:000099f8       ??_C@_08EADAAFKF@darkgray?$AA@ 000000018003a9f8     color.obj
 0002:00009a08       ??_C@_09MHNMOMAI@darkgreen?$AA@ 000000018003aa08     color.obj
 0002:00009a18       ??_C@_08EHDJKNHJ@darkgrey?$AA@ 000000018003aa18     color.obj
 0002:00009a28       ??_C@_09FAPDIPMK@darkkhaki?$AA@ 000000018003aa28     color.obj
 0002:00009a38       ??_C@_0M@MEEFECHN@darkmagenta?$AA@ 000000018003aa38     color.obj
 0002:00009a48       ??_C@_0P@BGCLDNDK@darkolivegreen?$AA@ 000000018003aa48     color.obj
 0002:00009a58       ??_C@_0L@ICJJPBF@darkorange?$AA@ 000000018003aa58     color.obj
 0002:00009a68       ??_C@_0L@EEAHIPOC@darkorchid?$AA@ 000000018003aa68     color.obj
 0002:00009a78       ??_C@_07MFAOOMGP@darkred?$AA@ 000000018003aa78     color.obj
 0002:00009a80       ??_C@_0L@CKNHPKLG@darksalmon?$AA@ 000000018003aa80     color.obj
 0002:00009a90       ??_C@_0N@FBOCOPGH@darkseagreen?$AA@ 000000018003aa90     color.obj
 0002:00009aa0       ??_C@_0O@PABAFENG@darkslateblue?$AA@ 000000018003aaa0     color.obj
 0002:00009ab0       ??_C@_0O@HFGOKNPL@darkslategray?$AA@ 000000018003aab0     color.obj
 0002:00009ac0       ??_C@_0O@HCGHAFCH@darkslategrey?$AA@ 000000018003aac0     color.obj
 0002:00009ad0       ??_C@_0O@HKLGOIEA@darkturquoise?$AA@ 000000018003aad0     color.obj
 0002:00009ae0       ??_C@_0L@NGBKDFME@darkviolet?$AA@ 000000018003aae0     color.obj
 0002:00009af0       ??_C@_08CJGCPHKF@deeppink?$AA@ 000000018003aaf0     color.obj
 0002:00009b00       ??_C@_0M@BGGBNDNG@deepskyblue?$AA@ 000000018003ab00     color.obj
 0002:00009b10       ??_C@_07DJPEDLIH@dimgray?$AA@ 000000018003ab10     color.obj
 0002:00009b18       ??_C@_07DOPNJDFL@dimgrey?$AA@ 000000018003ab18     color.obj
 0002:00009b20       ??_C@_0L@MIOOBLBJ@dodgerblue?$AA@ 000000018003ab20     color.obj
 0002:00009b30       ??_C@_09ELCPEDIM@firebrick?$AA@ 000000018003ab30     color.obj
 0002:00009b40       ??_C@_0M@FFMCAIP@floralwhite?$AA@ 000000018003ab40     color.obj
 0002:00009b50       ??_C@_0M@HBKAKFBN@forestgreen?$AA@ 000000018003ab50     color.obj
 0002:00009b60       ??_C@_07FHEBJCGF@fuchsia?$AA@ 000000018003ab60     color.obj
 0002:00009b68       ??_C@_09MIGKOGAO@gainsboro?$AA@ 000000018003ab68     color.obj
 0002:00009b78       ??_C@_0L@CELMEDAA@ghostwhite?$AA@ 000000018003ab78     color.obj
 0002:00009b84       ??_C@_04DBNGNIAN@gold?$AA@ 000000018003ab84     color.obj
 0002:00009b90       ??_C@_09KJDOAGJL@goldenrod?$AA@ 000000018003ab90     color.obj
 0002:00009b9c       ??_C@_05GBEEJKMC@green?$AA@ 000000018003ab9c     color.obj
 0002:00009ba8       ??_C@_0M@LFPLFELJ@greenyellow?$AA@ 000000018003aba8     color.obj
 0002:00009bb4       ??_C@_04GDBIAANM@grey?$AA@ 000000018003abb4     color.obj
 0002:00009bc0       ??_C@_08BKNCNHLL@honeydew?$AA@ 000000018003abc0     color.obj
 0002:00009bd0       ??_C@_07PCCOEED@hotpink?$AA@ 000000018003abd0     color.obj
 0002:00009bd8       ??_C@_09IELIJPNO@indianred?$AA@ 000000018003abd8     color.obj
 0002:00009be4       ??_C@_06MLCCIEFE@indigo?$AA@ 000000018003abe4     color.obj
 0002:00009bec       ??_C@_05NNJJIMHF@ivory?$AA@ 000000018003abec     color.obj
 0002:00009bf4       ??_C@_05PGGLPJAA@khaki?$AA@ 000000018003abf4     color.obj
 0002:00009c00       ??_C@_08KJDCPJPL@lavender?$AA@ 000000018003ac00     color.obj
 0002:00009c10       ??_C@_0O@CCCMFNCK@lavenderblush?$AA@ 000000018003ac10     color.obj
 0002:00009c20       ??_C@_09MONDINDP@lawngreen?$AA@ 000000018003ac20     color.obj
 0002:00009c30       ??_C@_0N@ICDCAEHK@lemonchiffon?$AA@ 000000018003ac30     color.obj
 0002:00009c40       ??_C@_09NBIPJLA@lightblue?$AA@ 000000018003ac40     color.obj
 0002:00009c50       ??_C@_0L@BEAGLGMO@lightcoral?$AA@ 000000018003ac50     color.obj
 0002:00009c60       ??_C@_09KPGEKFMK@lightcyan?$AA@ 000000018003ac60     color.obj
 0002:00009c70       ??_C@_0BF@PJADCIND@lightgoldenrodyellow?$AA@ 000000018003ac70     color.obj
 0002:00009c88       ??_C@_09IIGGAAJN@lightgray?$AA@ 000000018003ac88     color.obj
 0002:00009c98       ??_C@_0L@OPBGACJD@lightgreen?$AA@ 000000018003ac98     color.obj
 0002:00009ca8       ??_C@_09IPGPKIEB@lightgrey?$AA@ 000000018003aca8     color.obj
 0002:00009cb8       ??_C@_09KOBGKMHP@lightpink?$AA@ 000000018003acb8     color.obj
 0002:00009cc8       ??_C@_0M@ENCCHKJE@lightsalmon?$AA@ 000000018003acc8     color.obj
 0002:00009cd8       ??_C@_0O@BLOIENJC@lightseagreen?$AA@ 000000018003acd8     color.obj
 0002:00009ce8       ??_C@_0N@JIFIFCAN@lightskyblue?$AA@ 000000018003ace8     color.obj
 0002:00009cf8       ??_C@_0P@LIPDKBMK@lightslategray?$AA@ 000000018003acf8     color.obj
 0002:00009d08       ??_C@_0P@LPPKAJBG@lightslategrey?$AA@ 000000018003ad08     color.obj
 0002:00009d18       ??_C@_0P@EIHJHAMG@lightsteelblue?$AA@ 000000018003ad18     color.obj
 0002:00009d28       ??_C@_0M@FBHPKJLB@lightyellow?$AA@ 000000018003ad28     color.obj
 0002:00009d34       ??_C@_04HLLEONLG@lime?$AA@ 000000018003ad34     color.obj
 0002:00009d40       ??_C@_09JKHHFGDO@limegreen?$AA@ 000000018003ad40     color.obj
 0002:00009d4c       ??_C@_05MLLCELJD@linen?$AA@ 000000018003ad4c     color.obj
 0002:00009d58       ??_C@_07EMDGAPCI@magenta?$AA@ 000000018003ad58     color.obj
 0002:00009d60       ??_C@_06BDPIEPJF@maroon?$AA@ 000000018003ad60     color.obj
 0002:00009d68       ??_C@_0BB@HHCOFKIC@mediumaquamarine?$AA@ 000000018003ad68     color.obj
 0002:00009d80       ??_C@_0L@CEFFILOH@mediumblue?$AA@ 000000018003ad80     color.obj
 0002:00009d90       ??_C@_0N@GIADPNAO@mediumorchid?$AA@ 000000018003ad90     color.obj
 0002:00009da0       ??_C@_0N@DDGNBDHJ@mediumpurple?$AA@ 000000018003ada0     color.obj
 0002:00009db0       ??_C@_0P@BNCCGPJD@mediumseagreen?$AA@ 000000018003adb0     color.obj
 0002:00009dc0       ??_C@_0BA@EKIMKCFD@mediumslateblue?$AA@ 000000018003adc0     color.obj
 0002:00009dd0       ??_C@_0BC@POGDBPNO@mediumspringgreen?$AA@ 000000018003add0     color.obj
 0002:00009de8       ??_C@_0BA@MACKBOMF@mediumturquoise?$AA@ 000000018003ade8     color.obj
 0002:00009df8       ??_C@_0BA@PNNCDMHM@mediumvioletred?$AA@ 000000018003adf8     color.obj
 0002:00009e08       ??_C@_0N@PJDKAOHK@midnightblue?$AA@ 000000018003ae08     color.obj
 0002:00009e18       ??_C@_09INCGBEJA@mintcream?$AA@ 000000018003ae18     color.obj
 0002:00009e28       ??_C@_09HABDAMOF@mistyrose?$AA@ 000000018003ae28     color.obj
 0002:00009e38       ??_C@_08OIIPPDDA@moccasin?$AA@ 000000018003ae38     color.obj
 0002:00009e48       ??_C@_0M@OKLAMJCL@navajowhite?$AA@ 000000018003ae48     color.obj
 0002:00009e54       ??_C@_04DCMEIHPF@navy?$AA@ 000000018003ae54     color.obj
 0002:00009e60       ??_C@_07MBCGBJON@oldlace?$AA@ 000000018003ae60     color.obj
 0002:00009e68       ??_C@_05OFIFEKBG@olive?$AA@ 000000018003ae68     color.obj
 0002:00009e70       ??_C@_09CNLBGLAE@olivedrab?$AA@ 000000018003ae70     color.obj
 0002:00009e7c       ??_C@_06HDDOCMMN@orange?$AA@ 000000018003ae7c     color.obj
 0002:00009e88       ??_C@_09OPJMLMBK@orangered?$AA@ 000000018003ae88     color.obj
 0002:00009e94       ??_C@_06DPBADMDK@orchid?$AA@ 000000018003ae94     color.obj
 0002:00009ea0       ??_C@_0O@KONOLMEH@palegoldenrod?$AA@ 000000018003aea0     color.obj
 0002:00009eb0       ??_C@_09NAJHJFNO@palegreen?$AA@ 000000018003aeb0     color.obj
 0002:00009ec0       ??_C@_0O@LCPHEOND@paleturquoise?$AA@ 000000018003aec0     color.obj
 0002:00009ed0       ??_C@_0O@IPAPGMGK@palevioletred?$AA@ 000000018003aed0     color.obj
 0002:00009ee0       ??_C@_0L@NPJMDDDD@papayawhip?$AA@ 000000018003aee0     color.obj
 0002:00009ef0       ??_C@_09GELOGGEC@peachpuff?$AA@ 000000018003aef0     color.obj
 0002:00009efc       ??_C@_04MJMKNOJB@peru?$AA@ 000000018003aefc     color.obj
 0002:00009f04       ??_C@_04ECGBAEOC@pink?$AA@ 000000018003af04     color.obj
 0002:00009f0c       ??_C@_04DDJGBPMH@plum?$AA@ 000000018003af0c     color.obj
 0002:00009f18       ??_C@_0L@MNADNFAH@powderblue?$AA@ 000000018003af18     color.obj
 0002:00009f24       ??_C@_06GEHONCEN@purple?$AA@ 000000018003af24     color.obj
 0002:00009f30       ??_C@_0O@JGOBAAIL@rebeccapurple?$AA@ 000000018003af30     color.obj
 0002:00009f40       ??_C@_03FAAAOPJM@red?$AA@  000000018003af40     color.obj
 0002:00009f48       ??_C@_09DJJHENIF@rosybrown?$AA@ 000000018003af48     color.obj
 0002:00009f58       ??_C@_09FEEJNHFN@royalblue?$AA@ 000000018003af58     color.obj
 0002:00009f68       ??_C@_0M@MOEGEDCP@saddlebrown?$AA@ 000000018003af68     color.obj
 0002:00009f74       ??_C@_06FBMAEJGO@salmon?$AA@ 000000018003af74     color.obj
 0002:00009f80       ??_C@_0L@HLMGLGHH@sandybrown?$AA@ 000000018003af80     color.obj
 0002:00009f90       ??_C@_08EKGLDJFB@seagreen?$AA@ 000000018003af90     color.obj
 0002:00009fa0       ??_C@_08MFJLKPPC@seashell?$AA@ 000000018003afa0     color.obj
 0002:00009fac       ??_C@_06CEGMHAGE@sienna?$AA@ 000000018003afac     color.obj
 0002:00009fb4       ??_C@_06NBGLMDBG@silver?$AA@ 000000018003afb4     color.obj
 0002:00009fc0       ??_C@_07MFCMKLDM@skyblue?$AA@ 000000018003afc0     color.obj
 0002:00009fc8       ??_C@_09DPLBEIJJ@slateblue?$AA@ 000000018003afc8     color.obj
 0002:00009fd8       ??_C@_09LKMPLBLE@slategray?$AA@ 000000018003afd8     color.obj
 0002:00009fe8       ??_C@_09LNMGBJGI@slategrey?$AA@ 000000018003afe8     color.obj
 0002:00009ff4       ??_C@_04HPKDHBOB@snow?$AA@ 000000018003aff4     color.obj
 0002:0000a000       ??_C@_0M@IPKJFOEB@springgreen?$AA@ 000000018003b000     color.obj
 0002:0000a010       ??_C@_09EKEFGALI@steelblue?$AA@ 000000018003b010     color.obj
 0002:0000a01c       ??_C@_03IIINPABG@tan?$AA@  000000018003b01c     color.obj
 0002:0000a020       ??_C@_04LJCKMMGA@teal?$AA@ 000000018003b020     color.obj
 0002:0000a028       ??_C@_07CGANODJO@thistle?$AA@ 000000018003b028     color.obj
 0002:0000a030       ??_C@_06NALDPNEI@tomato?$AA@ 000000018003b030     color.obj
 0002:0000a038       ??_C@_09LFBHPEAP@turquoise?$AA@ 000000018003b038     color.obj
 0002:0000a044       ??_C@_06KNANIGBM@violet?$AA@ 000000018003b044     color.obj
 0002:0000a04c       ??_C@_05PPOGEFHN@wheat?$AA@ 000000018003b04c     color.obj
 0002:0000a054       ??_C@_05PMAELIEO@white?$AA@ 000000018003b054     color.obj
 0002:0000a060       ??_C@_0L@FDFMBGNF@whitesmoke?$AA@ 000000018003b060     color.obj
 0002:0000a06c       ??_C@_06ENJNJKEL@yellow?$AA@ 000000018003b06c     color.obj
 0002:0000a078       ??_C@_0M@GCLLLGON@yellowgreen?$AA@ 000000018003b078     color.obj
 0002:0000a088       ??_C@_0O@CAFKCKKM@?$CD?$CF?42x?$CF?42x?$CF?42x?$AA@ 000000018003b088     color.obj
 0002:0000a098       ??_C@_0BH@IMKFBGII@rgba?$CI?$CFd?0?5?$CFd?0?5?$CFd?0?5?$CF?42f?$CJ?$AA@ 000000018003b098     color.obj
 0002:0000a0b0       ??_C@_04KDAMFBD@rgb?$CI?$AA@ 000000018003b0b0     color.obj
 0002:0000a0b8       ??_C@_05KGKCGJPO@rgba?$CI?$AA@ 000000018003b0b8     color.obj
 0002:0000a0c0       ??_C@_05HBFAAOHC@hsla?$CI?$AA@ 000000018003b0c0     color.obj
 0002:0000a0c8       ??_C@_04PFIFKHPC@hsl?$CI?$AA@ 000000018003b0c8     color.obj
 0002:0000a0d0       ??_C@_04CLILDBFP@rgba?$AA@ 000000018003b0d0     color.obj
 0002:0000a0d8       ??_C@_03FNOJMHE@rgb?$AA@   000000018003b0d8     color.obj
 0002:0000a0dc       ??_C@_04NEDOFDLO@hsla?$AA@ 000000018003b0dc     color.obj
 0002:0000a0e4       ??_C@_03LPNGANKN@hsl?$AA@  000000018003b0e4     color.obj
 0002:0000aa50       ??_C@_00CNPNBAHC@?$AA@     000000018003ba50     Image.obj
 0002:0000aa54       ??_C@_05NBEAGECF@Image?$AA@ 000000018003ba54     Image.obj
 0002:0000aa60       ??_C@_08IPNIAGNA@complete?$AA@ 000000018003ba60     Image.obj
 0002:0000aa6c       ??_C@_06FKJAAAAK@onload?$AA@ 000000018003ba6c     Image.obj
 0002:0000aa78       ??_C@_07MAAHHAB@onerror?$AA@ 000000018003ba78     Image.obj
 0002:0000aa80       ??_C@_08ELMFDEKI@dataMode?$AA@ 000000018003ba80     Image.obj
 0002:0000aa90       ??_C@_0L@ICMMJJAL@MODE_IMAGE?$AA@ 000000018003ba90     Image.obj
 0002:0000aaa0       ??_C@_09IDBFNFDI@MODE_MIME?$AA@ 000000018003baa0     Image.obj
 0002:0000aaac       ??_C@_02JDPG@rb?$AA@       000000018003baac     Image.obj
 0002:0000aab0       ??_7Image@@6B@             000000018003bab0     Image.obj
 0002:0000aac8       ??_7ImageData@@6B@         000000018003bac8     ImageData.obj
 0002:0000aae0       ??_C@_09NIGIGFDC@ImageData?$AA@ 000000018003bae0     ImageData.obj
 0002:0000aaf0       ??_C@_0BK@BFELGOEH@The?5source?5width?5is?5zero?4?$AA@ 000000018003baf0     ImageData.obj
 0002:0000ab10       ??_C@_0BL@EMOEEHOI@The?5source?5height?5is?5zero?4?$AA@ 000000018003bb10     ImageData.obj
 0002:0000ab30       ??_C@_0CH@IEOMAMPI@The?5input?5data?5has?5a?5zero?5byte?5l@ 000000018003bb30     ImageData.obj
 0002:0000ab58       ??_C@_0DD@ECEPEMHG@The?5input?5data?5byte?5length?5is?5no@ 000000018003bb58     ImageData.obj
 0002:0000ab90       ??_C@_0DN@JBNNAEFP@The?5input?5data?5byte?5length?5is?5no@ 000000018003bb90     ImageData.obj
 0002:0000abd0       ??_C@_0EB@FFMBNCCC@The?5input?5data?5byte?5length?5is?5no@ 000000018003bbd0     ImageData.obj
 0002:0000ac20       ??_C@_0EB@JCAHACPK@Expected?5?$CIUint8ClampedArray?0?5wid@ 000000018003bc20     ImageData.obj
 0002:0000ac64       ??_C@_04PJOLNDGD@data?$AA@ 000000018003bc64     ImageData.obj
 0002:0000ac70       ??_C@_0N@OGDOEBIM@cairoVersion?$AA@ 000000018003bc70     init.obj
 0002:0000ac80       ??_C@_0P@PAFBMNKD@?4?4?2src?2init?4cc?$AA@ 000000018003bc80     init.obj
 0002:0000ac90       ??_C@_06DODEBHEI@canvas?$AA@ 000000018003bc90     init.obj
 0002:0000ac98       ??_C@_08HCOMDCCD@iojs?4exe?$AA@ 000000018003bc98     win_delay_load_hook.obj
 0002:0000aca8       ??_C@_08JDDNMFDB@node?4exe?$AA@ 000000018003bca8     win_delay_load_hook.obj
 0002:0000b078       __real@3dcccccd            000000018003c078     color.obj
 0002:0000b07c       __real@3f000000            000000018003c07c     CanvasRenderingContext2d.obj
 0002:0000b080       __real@3f13cd36            000000018003c080     CanvasRenderingContext2d.obj
 0002:0000b084       __real@3f800000            000000018003c084     color.obj
 0002:0000b088       __real@3fe0000000000000    000000018003c088     CanvasRenderingContext2d.obj
 0002:0000b090       __real@3fe5555555555555    000000018003c090     CanvasRenderingContext2d.obj
 0002:0000b098       __real@3ff0000000000000    000000018003c098     CanvasRenderingContext2d.obj
 0002:0000b0a0       __real@3ff6666666666666    000000018003c0a0     CanvasRenderingContext2d.obj
 0002:0000b0a8       __real@40000000            000000018003c0a8     color.obj
 0002:0000b0b0       __real@4000000000000000    000000018003c0b0     Image.obj
 0002:0000b0b8       __real@400921fb54442d18    000000018003c0b8     CanvasRenderingContext2d.obj
 0002:0000b0c0       __real@401921fb54442d18    000000018003c0c0     CanvasRenderingContext2d.obj
 0002:0000b0c8       __real@40400000            000000018003c0c8     color.obj
 0002:0000b0d0       __real@406fe00000000000    000000018003c0d0     color.obj
 0002:0000b0d8       __real@40800000            000000018003c0d8     color.obj
 0002:0000b0dc       __real@40c00000            000000018003c0dc     color.obj
 0002:0000b0e0       __real@41200000            000000018003c0e0     color.obj
 0002:0000b0e4       __real@42c80000            000000018003c0e4     color.obj
 0002:0000b0e8       __real@437f0000            000000018003c0e8     color.obj
 0002:0000b0ec       __real@43b40000            000000018003c0ec     color.obj
 0002:0000b0f0       __real@477fff00            000000018003c0f0     CanvasRenderingContext2d.obj
 0002:0000b0f8       __real@7ff0000000000000    000000018003c0f8     CanvasRenderingContext2d.obj
 0002:0000b100       __real@bff0000000000000    000000018003c100     CanvasRenderingContext2d.obj
 0002:0000b108       __real@c0c00000            000000018003c108     color.obj
 0002:0000b110       __xmm@3ff00000000000000000000000000000 000000018003c110     CanvasRenderingContext2d.obj
 0002:0000b120       __xmm@80000000000000008000000000000000 000000018003c120     CanvasRenderingContext2d.obj
 0002:0000b130       __xmm@80000000800000008000000080000000 000000018003c130     CanvasRenderingContext2d.obj
 0002:0000b7a8       __real@3c91a62633145c07    000000018003c7a8     libucrt:acos.obj
 0002:0000b7b0       __real@3f0951665d321061    000000018003c7b0     libucrt:acos.obj
 0002:0000b7b8       __real@3f51e5f887a62135    000000018003c7b8     libucrt:acos.obj
 0002:0000b7c0       __real@3fac28d390c29690    000000018003c7c0     libucrt:acos.obj
 0002:0000b7c8       __real@3fbb1a422982ce76    000000018003c7c8     libucrt:acos.obj
 0002:0000b7d0       __real@3fcd1e4180029834    000000018003c7d0     libucrt:acos.obj
 0002:0000b7d8       __real@3fd1a2bec1b7ef59    000000018003c7d8     libucrt:acos.obj
 0002:0000b7e0       __real@3fdc7b297e269eac    000000018003c7e0     libucrt:acos.obj
 0002:0000b7e8       __real@3fee324ab418f78d    000000018003c7e8     libucrt:acos.obj
 0002:0000b7f0       __real@3ff5d6b12001f228    000000018003c7f0     libucrt:acos.obj
 0002:0000b7f8       __real@3ff921fb54442d18    000000018003c7f8     libucrt:acos.obj
 0002:0000b800       __real@40062021571dccfc    000000018003c800     libucrt:acos.obj
 0002:0000b808       __real@400a4646f903cdea    000000018003c808     libucrt:acos.obj
 0002:0000b810       ??_C@_05FFFCHCED@acosf?$AA@ 000000018003c810     libucrt:acosf.obj
 0002:0000b818       __real@3b81ce6b            000000018003c818     libucrt:acosf.obj
 0002:0000b81c       __real@3d678bdd            000000018003c81c     libucrt:acosf.obj
 0002:0000b820       __real@3e3c94dc            000000018003c820     libucrt:acosf.obj
 0002:0000b824       __real@3f561f0d            000000018003c824     libucrt:acosf.obj
 0002:0000b828       __real@3f8d6fa5            000000018003c828     libucrt:acosf.obj
 0002:0000b82c       __real@3fc90fdb            000000018003c82c     libucrt:acosf.obj
 0002:0000b830       __real@40490fdb            000000018003c830     libucrt:acosf.obj
 0002:0000b834       __real@bc5b3fe1            000000018003c834     libucrt:acosf.obj
 0002:0000b838       __real@bf800000            000000018003c838     libucrt:acosf.obj
 0002:0000b83c       ??_C@_05OOAOEJGP@fmodf?$AA@ 000000018003c83c     libucrt:fmodf.obj
 0002:0000b844       ??_C@_05KGFAIMPG@sqrtf?$AA@ 000000018003c844     libucrt:sqrtf.obj
 0002:0000bd00       __L_2_by_pi_bits           000000018003cd00     libucrt:l2_by_pi_bits.obj
 0002:0000bdf8       ??_R4exception@std@@6B@    000000018003cdf8     libcpmt:xthrow.obj
 0002:0000be20       ??_R3exception@std@@8      000000018003ce20     libcpmt:xthrow.obj
 0002:0000be38       ??_R2exception@std@@8      000000018003ce38     libcpmt:xthrow.obj
 0002:0000be48       ??_R1A@?0A@EA@exception@std@@8 000000018003ce48     libcpmt:xthrow.obj
 0002:0000be70       ??_R4bad_alloc@std@@6B@    000000018003ce70     libcpmt:xthrow.obj
 0002:0000be98       ??_R3bad_alloc@std@@8      000000018003ce98     libcpmt:xthrow.obj
 0002:0000beb0       ??_R2bad_alloc@std@@8      000000018003ceb0     libcpmt:xthrow.obj
 0002:0000bec8       ??_R1A@?0A@EA@bad_alloc@std@@8 000000018003cec8     libcpmt:xthrow.obj
 0002:0000bef0       ??_R4logic_error@std@@6B@  000000018003cef0     libcpmt:xthrow.obj
 0002:0000bf18       ??_R3logic_error@std@@8    000000018003cf18     libcpmt:xthrow.obj
 0002:0000bf30       ??_R2logic_error@std@@8    000000018003cf30     libcpmt:xthrow.obj
 0002:0000bf48       ??_R1A@?0A@EA@logic_error@std@@8 000000018003cf48     libcpmt:xthrow.obj
 0002:0000bf70       ??_R4length_error@std@@6B@ 000000018003cf70     libcpmt:xthrow.obj
 0002:0000bf98       ??_R3length_error@std@@8   000000018003cf98     libcpmt:xthrow.obj
 0002:0000bfb0       ??_R2length_error@std@@8   000000018003cfb0     libcpmt:xthrow.obj
 0002:0000bfd0       ??_R1A@?0A@EA@length_error@std@@8 000000018003cfd0     libcpmt:xthrow.obj
 0002:0000bff8       ??_R4type_info@@6B@        000000018003cff8     LIBCMT:std_type_info_static.obj
 0002:0000c020       ??_R3type_info@@8          000000018003d020     LIBCMT:std_type_info_static.obj
 0002:0000c038       ??_R2type_info@@8          000000018003d038     LIBCMT:std_type_info_static.obj
 0002:0000c048       ??_R1A@?0A@EA@type_info@@8 000000018003d048     LIBCMT:std_type_info_static.obj
 0002:0000c070       ??_R4bad_array_new_length@std@@6B@ 000000018003d070     LIBCMT:throw_bad_alloc.obj
 0002:0000c098       ??_R3bad_array_new_length@std@@8 000000018003d098     LIBCMT:throw_bad_alloc.obj
 0002:0000c0b0       ??_R2bad_array_new_length@std@@8 000000018003d0b0     LIBCMT:throw_bad_alloc.obj
 0002:0000c0d0       ??_R1A@?0A@EA@bad_array_new_length@std@@8 000000018003d0d0     LIBCMT:throw_bad_alloc.obj
 0002:0000c0f8       ??_R4bad_exception@std@@6B@ 000000018003d0f8     libvcruntime:frame.obj
 0002:0000c120       ??_R3bad_exception@std@@8  000000018003d120     libvcruntime:frame.obj
 0002:0000c138       ??_R2bad_exception@std@@8  000000018003d138     libvcruntime:frame.obj
 0002:0000c150       ??_R1A@?0A@EA@bad_exception@std@@8 000000018003d150     libvcruntime:frame.obj
 0002:0000c178       ?_TraceLoggingMetadata@?1??_TlgWrite@__vcrt_trace_logging_provider@@YAJPEBU_TlgProvider_t@2@PEFBXPEBU_GUID@@2IPEAU_EVENT_DATA_DESCRIPTOR@@@Z@4U_TraceLoggingMetadata_t@2@B 000000018003d178     libvcruntime:telemetry.obj
 0002:0000c22b       ?_TraceLoggingMetadataEnd@?1??_TlgWrite@__vcrt_trace_logging_provider@@YAJPEBU_TlgProvider_t@2@PEFBXPEBU_GUID@@2IPEAU_EVENT_DATA_DESCRIPTOR@@@Z@4EB 000000018003d22b     libvcruntime:telemetry.obj
 0002:0000c6b8       __rtc_iaa                  000000018003d6b8     LIBCMT:_initsect_.obj
 0002:0000c6c0       __rtc_izz                  000000018003d6c0     LIBCMT:_initsect_.obj
 0002:0000c6c8       __rtc_taa                  000000018003d6c8     LIBCMT:_initsect_.obj
 0002:0000c6d0       __rtc_tzz                  000000018003d6d0     LIBCMT:_initsect_.obj
 0002:0000f6e0       _TI2?AVbad_alloc@std@@     00000001800406e0     libcpmt:xthrow.obj
 0002:0000f700       _CTA2?AVbad_alloc@std@@    0000000180040700     libcpmt:xthrow.obj
 0002:0000f718       _CT??_R0?AVbad_alloc@std@@@8??0bad_alloc@std@@QEAA@AEBV01@@Z24 0000000180040718     libcpmt:xthrow.obj
 0002:0000f740       _CT??_R0?AVexception@std@@@8??0exception@std@@QEAA@AEBV01@@Z24 0000000180040740     libcpmt:xthrow.obj
 0002:0000f768       _CT??_R0?AVlogic_error@std@@@8??0logic_error@std@@QEAA@AEBV01@@Z24 0000000180040768     libcpmt:xthrow.obj
 0002:0000f790       _TI3?AVlength_error@std@@  0000000180040790     libcpmt:xthrow.obj
 0002:0000f7b0       _CTA3?AVlength_error@std@@ 00000001800407b0     libcpmt:xthrow.obj
 0002:0000f7d0       _CT??_R0?AVlength_error@std@@@8??0length_error@std@@QEAA@AEBV01@@Z24 00000001800407d0     libcpmt:xthrow.obj
 0002:0000f7f8       _TI3?AVbad_array_new_length@std@@ 00000001800407f8     LIBCMT:throw_bad_alloc.obj
 0002:0000f818       _CTA3?AVbad_array_new_length@std@@ 0000000180040818     LIBCMT:throw_bad_alloc.obj
 0002:0000f838       _CT??_R0?AVbad_array_new_length@std@@@8??0bad_array_new_length@std@@QEAA@AEBV01@@Z24 0000000180040838     LIBCMT:throw_bad_alloc.obj
 0002:0000f860       _TI2?AVbad_exception@std@@ 0000000180040860     libvcruntime:frame.obj
 0002:0000f880       _CTA2?AVbad_exception@std@@ 0000000180040880     libvcruntime:frame.obj
 0002:0000f898       _CT??_R0?AVbad_exception@std@@@8??0bad_exception@std@@QEAA@AEBV01@@Z24 0000000180040898     libvcruntime:frame.obj
 0002:0000f8bc       __DELAY_IMPORT_DESCRIPTOR_node_exe 00000001800408bc     node:node.exe
 0002:0000f8dc       __NULL_DELAY_IMPORT_DESCRIPTOR 00000001800408dc     node:node.exe
 0002:0000fcb8       \177node_NULL_THUNK_DATA_DLN 0000000180040cb8     node:node.exe
 0002:00011c30       \177node_NULL_THUNK_DATA_DLB 0000000180042c30     node:node.exe
 0002:0001673c       __IMPORT_DESCRIPTOR_KERNEL32 000000018004773c     kernel32:KERNEL32.dll
 0002:00016750       __IMPORT_DESCRIPTOR_libcairo-2 0000000180047750     cairo:libcairo-2.dll
 0002:00016764       __IMPORT_DESCRIPTOR_libpng14-14 0000000180047764     libpng:libpng14-14.dll
 0002:00016778       __IMPORT_DESCRIPTOR_ADVAPI32 0000000180047778     advapi32:ADVAPI32.dll
 0002:0001678c       __NULL_IMPORT_DESCRIPTOR   000000018004778c     kernel32:KERNEL32.dll
 0003:00000000       __scrt_native_dllmain_reason 0000000180049000     LIBCMT:utility.obj
 0003:00000008       __security_cookie          0000000180049008     LIBCMT:gs_cookie.obj
 0003:00000010       __security_cookie_complement 0000000180049010     LIBCMT:gs_cookie.obj
 0003:00000018       __isa_available            0000000180049018     LIBCMT:_cpu_disp_.obj
 0003:0000001c       __isa_enabled              000000018004901c     LIBCMT:_cpu_disp_.obj
 0003:00000020       __memcpy_nt_iters          0000000180049020     LIBCMT:_cpu_disp_.obj
 0003:00000090       _iob                       0000000180049090     libucrt:_file.obj
 0003:00000198       __abort_behavior           0000000180049198     libucrt:abort.obj
 0003:000001b0       __badioinfo                00000001800491b0     libucrt:ioinit.obj
 0003:000001f0       __acrt_initial_locale_data 00000001800491f0     libucrt:nlsdata.obj
 0003:00000348       __acrt_initial_locale_pointers 0000000180049348     libucrt:nlsdata.obj
 0003:00000358       __acrt_wide_c_locale_string 0000000180049358     libucrt:nlsdata.obj
 0003:00000360       _lookuptrailbytes          0000000180049360     libucrt:read.obj
 0003:00000460       __acrt_initial_multibyte_data 0000000180049460     libucrt:mbctype.obj
 0003:00000688       __acrt_current_multibyte_data 0000000180049688     libucrt:mbctype.obj
 0003:00000790       _mbctype                   0000000180049790     libucrt:mbctype.obj
 0003:000008a0       _mbcasemap                 00000001800498a0     libucrt:mbctype.obj
 0003:000009a0       _pwctype                   00000001800499a0     libucrt:ctype.obj
 0003:000009ac       __globallocalestatus       00000001800499ac     libucrt:glstatus.obj
 0003:000009b0       __acrt_lconv_c             00000001800499b0     libucrt:localeconv.obj
 0003:00000a48       __acrt_lconv_static_decimal 0000000180049a48     libucrt:localeconv.obj
 0003:00000a4c       __acrt_lconv_static_W_decimal 0000000180049a4c     libucrt:localeconv.obj
 0003:00000a50       __dcrt_lowio_console_output_handle 0000000180049a50     libucrt:initcon.obj
 0003:00000a60       _fltused                   0000000180049a60     LIBCMT:fltused.obj
 0003:00000ab0       __pfnDliNotifyHook2        0000000180049ab0     win_delay_load_hook.obj
 0003:00000ac0       ??_R0?AVbad_alloc@std@@@8  0000000180049ac0     libcpmt:xthrow.obj
 0003:00000ae8       ??_R0?AVexception@std@@@8  0000000180049ae8     libcpmt:xthrow.obj
 0003:00000b10       ??_R0?AVlogic_error@std@@@8 0000000180049b10     libcpmt:xthrow.obj
 0003:00000b38       ??_R0?AVlength_error@std@@@8 0000000180049b38     libcpmt:xthrow.obj
 0003:00000b60       ??_R0?AVtype_info@@@8      0000000180049b60     LIBCMT:std_type_info_static.obj
 0003:00000b80       ??_R0?AVbad_array_new_length@std@@@8 0000000180049b80     LIBCMT:throw_bad_alloc.obj
 0003:00000bb0       ??_R0?AVbad_exception@std@@@8 0000000180049bb0     libvcruntime:frame.obj
 0003:00000bd8       __imp_uv_queue_work        0000000180049bd8     node:node.exe
 0003:00000be0       __imp_?Global@Context@v8@@QEAA?AV?$Local@VObject@v8@@@2@XZ 0000000180049be0     node:node.exe
 0003:00000be8       __imp_?Value@External@v8@@QEBAPEAXXZ 0000000180049be8     node:node.exe
 0003:00000bf0       __imp_?New@External@v8@@SA?AV?$Local@VExternal@v8@@@2@PEAVIsolate@2@PEAX@Z 0000000180049bf0     node:node.exe
 0003:00000bf8       __imp_?NewFromUnsigned@Integer@v8@@SA?AV?$Local@VInteger@v8@@@2@PEAVIsolate@2@I@Z 0000000180049bf8     node:node.exe
 0003:00000c00       __imp_?New@Signature@v8@@SA?AV?$Local@VSignature@v8@@@2@PEAVIsolate@2@V?$Local@VFunctionTemplate@v8@@@2@@Z 0000000180049c00     node:node.exe
 0003:00000c08       __imp_?CollectAllGarbage@Isolate@v8@@AEAAXPEBD@Z 0000000180049c08     node:node.exe
 0003:00000c10       __imp_?VisitHandlesForPartialDependence@Isolate@v8@@QEAAXPEAVPersistentHandleVisitor@2@@Z 0000000180049c10     node:node.exe
 0003:00000c18       __imp_?VisitHandlesWithClassIds@Isolate@v8@@QEAAXPEAVPersistentHandleVisitor@2@@Z 0000000180049c18     node:node.exe
 0003:00000c20       __imp_?VisitExternalResources@Isolate@v8@@QEAAXPEAVExternalResourceVisitor@2@@Z 0000000180049c20     node:node.exe
 0003:00000c28       __imp_?RemoveMemoryAllocationCallback@Isolate@v8@@QEAAXP6AXW4ObjectSpace@2@W4AllocationAction@2@H@Z@Z 0000000180049c28     node:node.exe
 0003:00000c30       __imp_?AddMemoryAllocationCallback@Isolate@v8@@QEAAXP6AXW4ObjectSpace@2@W4AllocationAction@2@H@Z01@Z 0000000180049c30     node:node.exe
 0003:00000c38       __imp_?SetCaptureStackTraceForUncaughtExceptions@Isolate@v8@@QEAAX_NHW4StackTraceOptions@StackTrace@2@@Z 0000000180049c38     node:node.exe
 0003:00000c40       __imp_?SetFailedAccessCheckCallbackFunction@Isolate@v8@@QEAAXP6AXV?$Local@VObject@v8@@@2@W4AccessType@2@V?$Local@VValue@v8@@@2@@Z@Z 0000000180049c40     node:node.exe
 0003:00000c48       __imp_?RemoveMessageListeners@Isolate@v8@@QEAAXP6AXV?$Local@VMessage@v8@@@2@V?$Local@VValue@v8@@@2@@Z@Z 0000000180049c48     node:node.exe
 0003:00000c50       __imp_?AddMessageListener@Isolate@v8@@QEAA_NP6AXV?$Local@VMessage@v8@@@2@V?$Local@VValue@v8@@@2@@Z1@Z 0000000180049c50     node:node.exe
 0003:00000c58       __imp_?IsDead@Isolate@v8@@QEAA_NXZ 0000000180049c58     node:node.exe
 0003:00000c60       __imp_?SetAllowCodeGenerationFromStringsCallback@Isolate@v8@@QEAAXP6A_NV?$Local@VContext@v8@@@2@@Z@Z 0000000180049c60     node:node.exe
 0003:00000c68       __imp_?SetFatalErrorHandler@Isolate@v8@@QEAAXP6AXPEBD0@Z@Z 0000000180049c68     node:node.exe
 0003:00000c70       __imp_?CancelTerminateExecution@Isolate@v8@@QEAAXXZ 0000000180049c70     node:node.exe
 0003:00000c78       __imp_?IsExecutionTerminating@Isolate@v8@@QEAA_NXZ 0000000180049c78     node:node.exe
 0003:00000c80       __imp_?TerminateExecution@Isolate@v8@@QEAAXXZ 0000000180049c80     node:node.exe
 0003:00000c88       __imp_?RemoveGCEpilogueCallback@Isolate@v8@@QEAAXP6AXPEAV12@W4GCType@2@W4GCCallbackFlags@2@@Z@Z 0000000180049c88     node:node.exe
 0003:00000c90       __imp_?RemoveGCPrologueCallback@Isolate@v8@@QEAAXP6AXPEAV12@W4GCType@2@W4GCCallbackFlags@2@@Z@Z 0000000180049c90     node:node.exe
 0003:00000c98       __imp_?ThrowException@Isolate@v8@@QEAA?AV?$Local@VValue@v8@@@2@V32@@Z 0000000180049c98     node:node.exe
 0003:00000ca0       __imp_?GetCurrentContext@Isolate@v8@@QEAA?AV?$Local@VContext@v8@@@2@XZ 0000000180049ca0     node:node.exe
 0003:00000ca8       __imp_?Exit@Isolate@v8@@QEAAXXZ 0000000180049ca8     node:node.exe
 0003:00000cb0       __imp_?Enter@Isolate@v8@@QEAAXXZ 0000000180049cb0     node:node.exe
 0003:00000cb8       __imp_?GetCurrent@Isolate@v8@@SAPEAV12@XZ 0000000180049cb8     node:node.exe
 0003:00000cc0       __imp_?ResetToBookmark@ExternalSourceStream@ScriptCompiler@v8@@UEAAXXZ 0000000180049cc0     node:node.exe
 0003:00000cc8       __imp_?SetBookmark@ExternalSourceStream@ScriptCompiler@v8@@UEAA_NXZ 0000000180049cc8     node:node.exe
 0003:00000cd0       __imp_?CreateHandle@HandleScope@v8@@KAPEAPEAVObject@internal@2@PEAVIsolate@42@PEAV342@@Z 0000000180049cd0     node:node.exe
 0003:00000cd8       __imp_?CreateHandle@HandleScope@v8@@CAPEAPEAVObject@internal@2@PEAVHeapObject@42@PEAV342@@Z 0000000180049cd8     node:node.exe
 0003:00000ce0       __imp_??1HandleScope@v8@@QEAA@XZ 0000000180049ce0     node:node.exe
 0003:00000ce8       __imp_??0HandleScope@v8@@QEAA@PEAVIsolate@1@@Z 0000000180049ce8     node:node.exe
 0003:00000cf0       __imp_?Set@Template@v8@@QEAAXV?$Local@VName@v8@@@2@V?$Local@VData@v8@@@2@W4PropertyAttribute@2@@Z 0000000180049cf0     node:node.exe
 0003:00000cf8       __imp_?Error@Exception@v8@@SA?AV?$Local@VValue@v8@@@2@V?$Local@VString@v8@@@2@@Z 0000000180049cf8     node:node.exe
 0003:00000d00       __imp_?TypeError@Exception@v8@@SA?AV?$Local@VValue@v8@@@2@V?$Local@VString@v8@@@2@@Z 0000000180049d00     node:node.exe
 0003:00000d08       __imp_?RangeError@Exception@v8@@SA?AV?$Local@VValue@v8@@@2@V?$Local@VString@v8@@@2@@Z 0000000180049d08     node:node.exe
 0003:00000d10       __imp_?Initialize@Locker@v8@@AEAAXPEAVIsolate@2@@Z 0000000180049d10     node:node.exe
 0003:00000d18       __imp_?Initialize@Unlocker@v8@@AEAAXPEAVIsolate@2@@Z 0000000180049d18     node:node.exe
 0003:00000d20       __imp_?SetClassName@FunctionTemplate@v8@@QEAAXV?$Local@VString@v8@@@2@@Z 0000000180049d20     node:node.exe
 0003:00000d28       __imp_?PrototypeTemplate@FunctionTemplate@v8@@QEAA?AV?$Local@VObjectTemplate@v8@@@2@XZ 0000000180049d28     node:node.exe
 0003:00000d30       __imp_?InstanceTemplate@FunctionTemplate@v8@@QEAA?AV?$Local@VObjectTemplate@v8@@@2@XZ 0000000180049d30     node:node.exe
 0003:00000d38       __imp_?GetFunction@FunctionTemplate@v8@@QEAA?AV?$Local@VFunction@v8@@@2@XZ 0000000180049d38     node:node.exe
 0003:00000d40       __imp_?GetFunction@FunctionTemplate@v8@@QEAA?AV?$MaybeLocal@VFunction@v8@@@2@V?$Local@VContext@v8@@@2@@Z 0000000180049d40     node:node.exe
 0003:00000d48       __imp_?New@FunctionTemplate@v8@@SA?AV?$Local@VFunctionTemplate@v8@@@2@PEAVIsolate@2@P6AXAEBV?$FunctionCallbackInfo@VValue@v8@@@2@@ZV?$Local@VValue@v8@@@2@V?$Local@VSignature@v8@@@2@H@Z 0000000180049d48     node:node.exe
 0003:00000d50       __imp_?ToLocalEmpty@V8@v8@@CAXXZ 0000000180049d50     node:node.exe
 0003:00000d58       __imp_?ClearWeak@V8@v8@@CAPEAXPEAPEAVObject@internal@2@@Z 0000000180049d58     node:node.exe
 0003:00000d60       __imp_?MakeWeak@V8@v8@@CAXPEAPEAVObject@internal@2@PEAXP6AXAEBV?$WeakCallbackInfo@X@2@@ZW4WeakCallbackType@2@@Z 0000000180049d60     node:node.exe
 0003:00000d68       __imp_?DisposeGlobal@V8@v8@@CAXPEAPEAVObject@internal@2@@Z 0000000180049d68     node:node.exe
 0003:00000d70       __imp_?GlobalizeReference@V8@v8@@CAPEAPEAVObject@internal@2@PEAVIsolate@42@PEAPEAV342@@Z 0000000180049d70     node:node.exe
 0003:00000d78       __imp_?StrictEquals@Value@v8@@QEBA_NV?$Local@VValue@v8@@@2@@Z 0000000180049d78     node:node.exe
 0003:00000d80       __imp_?Uint32Value@Value@v8@@QEBAIXZ 0000000180049d80     node:node.exe
 0003:00000d88       __imp_?ToInt32@Value@v8@@QEBA?AV?$MaybeLocal@VInt32@v8@@@2@V?$Local@VContext@v8@@@2@@Z 0000000180049d88     node:node.exe
 0003:00000d90       __imp_?ToUint32@Value@v8@@QEBA?AV?$MaybeLocal@VUint32@v8@@@2@V?$Local@VContext@v8@@@2@@Z 0000000180049d90     node:node.exe
 0003:00000d98       __imp_?ToInteger@Value@v8@@QEBA?AV?$MaybeLocal@VInteger@v8@@@2@V?$Local@VContext@v8@@@2@@Z 0000000180049d98     node:node.exe
 0003:00000da0       __imp_?ToObject@Value@v8@@QEBA?AV?$MaybeLocal@VObject@v8@@@2@V?$Local@VContext@v8@@@2@@Z 0000000180049da0     node:node.exe
 0003:00000da8       __imp_?ToDetailString@Value@v8@@QEBA?AV?$MaybeLocal@VString@v8@@@2@V?$Local@VContext@v8@@@2@@Z 0000000180049da8     node:node.exe
 0003:00000db0       __imp_?ToString@Value@v8@@QEBA?AV?$MaybeLocal@VString@v8@@@2@V?$Local@VContext@v8@@@2@@Z 0000000180049db0     node:node.exe
 0003:00000db8       __imp_?ToNumber@Value@v8@@QEBA?AV?$MaybeLocal@VNumber@v8@@@2@V?$Local@VContext@v8@@@2@@Z 0000000180049db8     node:node.exe
 0003:00000dc0       __imp_?ToBoolean@Value@v8@@QEBA?AV?$MaybeLocal@VBoolean@v8@@@2@V?$Local@VContext@v8@@@2@@Z 0000000180049dc0     node:node.exe
 0003:00000dc8       __imp_?IsUint32@Value@v8@@QEBA_NXZ 0000000180049dc8     node:node.exe
 0003:00000dd0       __imp_?IsNumber@Value@v8@@QEBA_NXZ 0000000180049dd0     node:node.exe
 0003:00000dd8       __imp_?IsFunction@Value@v8@@QEBA_NXZ 0000000180049dd8     node:node.exe
 0003:00000de0       __imp_?ReThrow@TryCatch@v8@@QEAA?AV?$Local@VValue@v8@@@2@XZ 0000000180049de0     node:node.exe
 0003:00000de8       __imp_?HasCaught@TryCatch@v8@@QEBA_NXZ 0000000180049de8     node:node.exe
 0003:00000df0       __imp_??1TryCatch@v8@@QEAA@XZ 0000000180049df0     node:node.exe
 0003:00000df8       __imp_??0TryCatch@v8@@QEAA@XZ 0000000180049df8     node:node.exe
 0003:00000e00       __imp_?Escape@EscapableHandleScope@v8@@AEAAPEAPEAVObject@internal@2@PEAPEAV342@@Z 0000000180049e00     node:node.exe
 0003:00000e08       __imp_??0EscapableHandleScope@v8@@QEAA@PEAVIsolate@1@@Z 0000000180049e08     node:node.exe
 0003:00000e10       __imp_??1Utf8Value@String@v8@@QEAA@XZ 0000000180049e10     node:node.exe
 0003:00000e18       __imp_??0Utf8Value@String@v8@@QEAA@V?$Local@VValue@v8@@@2@@Z 0000000180049e18     node:node.exe
 0003:00000e20       __imp_?NewFromUtf8@String@v8@@SA?AV?$MaybeLocal@VString@v8@@@2@PEAVIsolate@2@PEBDW4NewStringType@2@H@Z 0000000180049e20     node:node.exe
 0003:00000e28       __imp_?New@Number@v8@@SA?AV?$Local@VNumber@v8@@@2@PEAVIsolate@2@N@Z 0000000180049e28     node:node.exe
 0003:00000e30       __imp_?SlowGetAlignedPointerFromInternalField@Object@v8@@AEAAPEAXH@Z 0000000180049e30     node:node.exe
 0003:00000e38       __imp_?SlowGetInternalField@Object@v8@@AEAA?AV?$Local@VValue@v8@@@2@H@Z 0000000180049e38     node:node.exe
 0003:00000e40       __imp_?New@Object@v8@@SA?AV?$Local@VObject@v8@@@2@PEAVIsolate@2@@Z 0000000180049e40     node:node.exe
 0003:00000e48       __imp_?SetAlignedPointerInInternalField@Object@v8@@QEAAXHPEAX@Z 0000000180049e48     node:node.exe
 0003:00000e50       __imp_?SetInternalField@Object@v8@@QEAAXHV?$Local@VValue@v8@@@2@@Z 0000000180049e50     node:node.exe
 0003:00000e58       __imp_?InternalFieldCount@Object@v8@@QEAAHXZ 0000000180049e58     node:node.exe
 0003:00000e60       __imp_?Get@Object@v8@@QEAA?AV?$Local@VValue@v8@@@2@V32@@Z 0000000180049e60     node:node.exe
 0003:00000e68       __imp_?Get@Object@v8@@QEAA?AV?$Local@VValue@v8@@@2@I@Z 0000000180049e68     node:node.exe
 0003:00000e70       __imp_?Set@Object@v8@@QEAA?AV?$Maybe@_N@2@V?$Local@VContext@v8@@@2@V?$Local@VValue@v8@@@2@1@Z 0000000180049e70     node:node.exe
 0003:00000e78       __imp_?Set@Object@v8@@QEAA?AV?$Maybe@_N@2@V?$Local@VContext@v8@@@2@IV?$Local@VValue@v8@@@2@@Z 0000000180049e78     node:node.exe
 0003:00000e80       __imp_?SetName@Function@v8@@QEAAXV?$Local@VString@v8@@@2@@Z 0000000180049e80     node:node.exe
 0003:00000e88       __imp_?NewInstance@Function@v8@@QEBA?AV?$MaybeLocal@VObject@v8@@@2@V?$Local@VContext@v8@@@2@HQEAV?$Local@VValue@v8@@@2@@Z 0000000180049e88     node:node.exe
 0003:00000e90       __imp_?SetInternalFieldCount@ObjectTemplate@v8@@QEAAXH@Z 0000000180049e90     node:node.exe
 0003:00000e98       __imp_?SetHandler@ObjectTemplate@v8@@QEAAXAEBUIndexedPropertyHandlerConfiguration@2@@Z 0000000180049e98     node:node.exe
 0003:00000ea0       __imp_?SetAccessor@ObjectTemplate@v8@@QEAAXV?$Local@VName@v8@@@2@P6AX0AEBV?$PropertyCallbackInfo@VValue@v8@@@2@@ZP6AX0V?$Local@VValue@v8@@@2@AEBV?$PropertyCallbackInfo@X@2@@Z3W4AccessControl@2@W4PropertyAttribute@2@V?$Local@VAccessorSignature@v8@@@2@@Z 0000000180049ea0     node:node.exe
 0003:00000ea8       __imp_?NewInstance@ObjectTemplate@v8@@QEAA?AV?$MaybeLocal@VObject@v8@@@2@V?$Local@VContext@v8@@@2@@Z 0000000180049ea8     node:node.exe
 0003:00000eb0       __imp_?New@ObjectTemplate@v8@@SA?AV?$Local@VObjectTemplate@v8@@@2@PEAVIsolate@2@V?$Local@VFunctionTemplate@v8@@@2@@Z 0000000180049eb0     node:node.exe
 0003:00000eb8       __imp_?Data@Buffer@node@@YAPEADV?$Local@VObject@v8@@@v8@@@Z 0000000180049eb8     node:node.exe
 0003:00000ec0       __imp_?Copy@Buffer@node@@YA?AV?$MaybeLocal@VObject@v8@@@v8@@PEAVIsolate@4@PEBD_K@Z 0000000180049ec0     node:node.exe
 0003:00000ec8       __imp_?MakeCallback@node@@YA?AV?$Local@VValue@v8@@@v8@@PEAVIsolate@3@V?$Local@VObject@v8@@@3@V?$Local@VFunction@v8@@@3@HPEAV23@@Z 0000000180049ec8     node:node.exe
 0003:00000ed0       __imp_uv_default_loop      0000000180049ed0     node:node.exe
 0003:00000ed8       __imp_?NumberValue@Value@v8@@QEBANXZ 0000000180049ed8     node:node.exe
 0003:00000ee0       __imp_?HasInstance@FunctionTemplate@v8@@QEAA_NV?$Local@VValue@v8@@@2@@Z 0000000180049ee0     node:node.exe
 0003:00000ee8       __imp_?New@Uint8ClampedArray@v8@@SA?AV?$Local@VUint8ClampedArray@v8@@@2@V?$Local@VArrayBuffer@v8@@@2@_K1@Z 0000000180049ee8     node:node.exe
 0003:00000ef0       __imp_?New@Integer@v8@@SA?AV?$Local@VInteger@v8@@@2@PEAVIsolate@2@H@Z 0000000180049ef0     node:node.exe
 0003:00000ef8       __imp_?ByteLength@ArrayBufferView@v8@@QEAA_KXZ 0000000180049ef8     node:node.exe
 0003:00000f00       __imp_?ByteOffset@ArrayBufferView@v8@@QEAA_KXZ 0000000180049f00     node:node.exe
 0003:00000f08       __imp_?Buffer@ArrayBufferView@v8@@QEAA?AV?$Local@VArrayBuffer@v8@@@2@XZ 0000000180049f08     node:node.exe
 0003:00000f10       __imp_?New@Array@v8@@SA?AV?$Local@VArray@v8@@@2@PEAVIsolate@2@H@Z 0000000180049f10     node:node.exe
 0003:00000f18       __imp_?Length@Array@v8@@QEBAIXZ 0000000180049f18     node:node.exe
 0003:00000f20       __imp_?GetContents@ArrayBuffer@v8@@QEAA?AVContents@12@XZ 0000000180049f20     node:node.exe
 0003:00000f28       __imp_?New@ArrayBuffer@v8@@SA?AV?$Local@VArrayBuffer@v8@@@2@PEAVIsolate@2@_K@Z 0000000180049f28     node:node.exe
 0003:00000f30       __imp_?Int32Value@Value@v8@@QEBAHXZ 0000000180049f30     node:node.exe
 0003:00000f38       __imp_?BooleanValue@Value@v8@@QEBA_NXZ 0000000180049f38     node:node.exe
 0003:00000f40       __imp_?IsArrayBufferView@Value@v8@@QEBA_NXZ 0000000180049f40     node:node.exe
 0003:00000f48       __imp_?IsInt32@Value@v8@@QEBA_NXZ 0000000180049f48     node:node.exe
 0003:00000f50       __imp_?IsArray@Value@v8@@QEBA_NXZ 0000000180049f50     node:node.exe
 0003:00000f58       __imp_?Set@Object@v8@@QEAA_NV?$Local@VValue@v8@@@2@0@Z 0000000180049f58     node:node.exe
 0003:00000f60       __imp_?NewInstance@Function@v8@@QEBA?AV?$Local@VObject@v8@@@2@HQEAV?$Local@VValue@v8@@@2@@Z 0000000180049f60     node:node.exe
 0003:00000f68       __imp_?HasInstance@Buffer@node@@YA_NV?$Local@VValue@v8@@@v8@@@Z 0000000180049f68     node:node.exe
 0003:00000f70       __imp_?Length@Buffer@node@@YA_KV?$Local@VObject@v8@@@v8@@@Z 0000000180049f70     node:node.exe
 0003:00000f78       __imp_?Length@TypedArray@v8@@QEAA_KXZ 0000000180049f78     node:node.exe
 0003:00000f80       __imp_?IsUint8ClampedArray@Value@v8@@QEBA_NXZ 0000000180049f80     node:node.exe
 0003:00000f88       __imp_node_module_register 0000000180049f88     node:node.exe
 0003:00000f90       \177node_NULL_THUNK_DATA_DLA 0000000180049f90     node:node.exe
 0003:00000fa0       __hmod__node_exe           0000000180049fa0     node:node.exe
 0003:00000fa8       __scrt_current_native_startup_state 0000000180049fa8     LIBCMT:utility.obj
 0003:00000fb0       __scrt_native_startup_lock 0000000180049fb0     LIBCMT:utility.obj
 0003:00001560       __favor                    000000018004a560     LIBCMT:_cpu_disp_.obj
 0003:00001564       __scrt_debugger_hook_flag  000000018004a564     LIBCMT:utility_desktop.obj
 0003:00001570       ?__type_info_root_node@@3U__type_info_node@@A 000000018004a570     LIBCMT:tncleanup.obj
 0003:00001580       ?_OptionsStorage@?1??__local_stdio_scanf_options@@9@4_KA 000000018004a580     LIBCMT:default_local_stdio_options.obj
 0003:00001588       ?g_OutOfMemoryExceptionCallback@@3P6APEAXXZEA 000000018004a588     libvcruntime:frame.obj
 0003:00001590       __pPurecall                000000018004a590     libvcruntime:purevirt_data.obj
 0003:000016b8       ?pArgList@UnDecorator@@0PEAVReplicator@@EA 000000018004a6b8     libvcruntime:undname.obj
 0003:000016c0       ?pZNameList@UnDecorator@@0PEAVReplicator@@EA 000000018004a6c0     libvcruntime:undname.obj
 0003:000016c8       ?pTemplateArgList@UnDecorator@@0PEAVReplicator@@EA 000000018004a6c8     libvcruntime:undname.obj
 0003:000016d0       ?gName@UnDecorator@@0PEBDEB 000000018004a6d0     libvcruntime:undname.obj
 0003:000016d8       ?name@UnDecorator@@0PEBDEB 000000018004a6d8     libvcruntime:undname.obj
 0003:000016e0       ?outputString@UnDecorator@@0PEADEA 000000018004a6e0     libvcruntime:undname.obj
 0003:000016e8       ?maxStringLength@UnDecorator@@0HA 000000018004a6e8     libvcruntime:undname.obj
 0003:000016ec       ?disableFlags@UnDecorator@@0KA 000000018004a6ec     libvcruntime:undname.obj
 0003:000016f0       ?fExplicitTemplateParams@UnDecorator@@0_NA 000000018004a6f0     libvcruntime:undname.obj
 0003:000016f1       ?fGetTemplateArgumentList@UnDecorator@@0_NA 000000018004a6f1     libvcruntime:undname.obj
 0003:000016f8       ?m_pGetParameter@UnDecorator@@0P6APEADJ@ZEA 000000018004a6f8     libvcruntime:undname.obj
 0003:00001730       _nstream                   000000018004a730     libucrt:_file.obj
 0003:00001738       __piob                     000000018004a738     libucrt:_file.obj
 0003:00001740       _cflush                    000000018004a740     libucrt:_file.obj
 0003:00001768       _environ_table             000000018004a768     libucrt:environment_initialization.obj
 0003:00001770       _wenviron_table            000000018004a770     libucrt:environment_initialization.obj
 0003:00001778       __dcrt_initial_wide_environment 000000018004a778     libucrt:environment_initialization.obj
 0003:00001780       __dcrt_initial_narrow_environment 000000018004a780     libucrt:environment_initialization.obj
 0003:00001788       __acrt_atexit_table        000000018004a788     libucrt:onexit.obj
 0003:000017a0       __acrt_at_quick_exit_table 000000018004a7a0     libucrt:onexit.obj
 0003:00001990       __pioinfo                  000000018004a990     libucrt:ioinit.obj
 0003:00001d90       _nhandle                   000000018004ad90     libucrt:ioinit.obj
 0003:00001da0       __acrt_stdout_buffer       000000018004ada0     libucrt:_sftbuf.obj
 0003:00001da8       __acrt_stderr_buffer       000000018004ada8     libucrt:_sftbuf.obj
 0003:00001db0       __acrt_locale_changed_data 000000018004adb0     libucrt:wsetlocale.obj
 0003:00001db8       __acrt_current_locale_data 000000018004adb8     libucrt:nlsdata.obj
 0003:00001fcc       __mbcodepage               000000018004afcc     libucrt:mbctype.obj
 0003:00001fd0       __ismbcodepage             000000018004afd0     libucrt:mbctype.obj
 0003:00001fd8       __mbulinfo                 000000018004afd8     libucrt:mbctype.obj
 0003:00001fe8       __mblocalename             000000018004afe8     libucrt:mbctype.obj
 0003:00001ff8       __acrt_heap                000000018004aff8     libucrt:heap_handle.obj
 0003:00002000       __argv                     000000018004b000     libucrt:argv_data.obj
 0003:00002008       __wargv                    000000018004b008     libucrt:argv_data.obj
 0003:00002010       _acmdln                    000000018004b010     libucrt:argv_data.obj
 0003:00002018       _wcmdln                    000000018004b018     libucrt:argv_data.obj
 0003:0000202c       __acrt_lconv_static_null   000000018004b02c     libucrt:localeconv.obj
 0003:00002030       __acrt_lconv_static_W_null 000000018004b030     libucrt:localeconv.obj
 0003:00002034       _commode                   000000018004b034     libucrt:ncommode.obj
 0003:00002038       _umaskval                  000000018004b038     libucrt:umask.obj
 0003:0000203c       __fma3_is_available        000000018004b03c     libucrt:fma3_available.obj
 0003:00002040       __use_fma3_lib             000000018004b040     libucrt:fma3_available.obj
 0003:00002044       _fmode                     000000018004b044     libucrt:txtmode.obj
 0003:00002048       ?DloadKernel32@@3PEAUHINSTANCE__@@EA 000000018004b048     DelayImp:delayhlp.obj
 0003:00002050       ?DloadAcquireSRWLockExclusive@@3P6AXPEA_K@ZEA 000000018004b050     DelayImp:delayhlp.obj
 0003:00002058       ?DloadReleaseSRWLockExclusive@@3P6AXPEA_K@ZEA 000000018004b058     DelayImp:delayhlp.obj
 0003:00002060       ?DloadSrwLock@@3_KA        000000018004b060     DelayImp:delayhlp.obj
 0003:00002068       ?DloadSectionLockCount@@3KA 000000018004b068     DelayImp:delayhlp.obj
 0003:0000206c       ?DloadSectionOldProtection@@3KA 000000018004b06c     DelayImp:delayhlp.obj
 0003:00002070       ?DloadSectionCommitPermanent@@3KA 000000018004b070     DelayImp:delayhlp.obj
 0003:00002078       __pfnDliFailureHook2       000000018004b078     DelayImp:delayhk1.obj
 0003:00002080       ?_OptionsStorage@?1??__local_stdio_printf_options@@9@4_KA 000000018004b080     color.obj
 0003:00002088       ?constructor@Canvas@@2V?$Persistent@VFunctionTemplate@v8@@V?$NonCopyablePersistentTraits@VFunctionTemplate@v8@@@2@@Nan@@A 000000018004b088     Canvas.obj
 0003:00002090       ?constructor@Gradient@@2V?$Persistent@VFunctionTemplate@v8@@V?$NonCopyablePersistentTraits@VFunctionTemplate@v8@@@2@@Nan@@A 000000018004b090     CanvasGradient.obj
 0003:00002098       ?constructor@Pattern@@2V?$Persistent@VFunctionTemplate@v8@@V?$NonCopyablePersistentTraits@VFunctionTemplate@v8@@@2@@Nan@@A 000000018004b098     CanvasPattern.obj
 0003:000020a0       ?constructor@Context2d@@2V?$Persistent@VFunctionTemplate@v8@@V?$NonCopyablePersistentTraits@VFunctionTemplate@v8@@@2@@Nan@@A 000000018004b0a0     CanvasRenderingContext2d.obj
 0003:000020a8       ?constructor@Image@@2V?$Persistent@VFunctionTemplate@v8@@V?$NonCopyablePersistentTraits@VFunctionTemplate@v8@@@2@@Nan@@A 000000018004b0a8     Image.obj
 0003:000020b0       ?constructor@ImageData@@2V?$Persistent@VFunctionTemplate@v8@@V?$NonCopyablePersistentTraits@VFunctionTemplate@v8@@@2@@Nan@@A 000000018004b0b0     ImageData.obj
 0003:000020b8       __dyn_tls_init_callback    000000018004b0b8     <common>
 0003:000020c0       __scrt_ucrt_dll_is_in_use  000000018004b0c0     <common>

 entry point at        0001:0001633c

 Static symbols

 0000:fffaf000       .debug$S                   0000000180000000     node:node.exe
 0000:fffaf000       .debug$S                   0000000180000000     canvas.exp
 0000:fffaf000       .debug$S                   0000000180000000     kernel32:KERNEL32.dll
 0000:fffaf000       .debug$S                   0000000180000000     kernel32:KERNEL32.dll
 0000:fffaf000       .debug$S                   0000000180000000     kernel32:KERNEL32.dll
 0000:fffaf000       .debug$S                   0000000180000000     kernel32:KERNEL32.dll
 0000:fffaf000       .debug$S                   0000000180000000     kernel32:KERNEL32.dll
 0000:fffaf000       .debug$S                   0000000180000000     kernel32:KERNEL32.dll
 0000:fffaf000       .debug$S                   0000000180000000     kernel32:KERNEL32.dll
 0000:fffaf000       .debug$S                   0000000180000000     kernel32:KERNEL32.dll
 0000:fffaf000       .debug$S                   0000000180000000     kernel32:KERNEL32.dll
 0000:fffaf000       .debug$S                   0000000180000000     kernel32:KERNEL32.dll
 0000:fffaf000       .debug$S                   0000000180000000     kernel32:KERNEL32.dll
 0000:fffaf000       .debug$S                   0000000180000000     kernel32:KERNEL32.dll
 0000:fffaf000       .debug$S                   0000000180000000     kernel32:KERNEL32.dll
 0000:fffaf000       .debug$S                   0000000180000000     kernel32:KERNEL32.dll
 0000:fffaf000       .debug$S                   0000000180000000     kernel32:KERNEL32.dll
 0000:fffaf000       .debug$S                   0000000180000000     kernel32:KERNEL32.dll
 0000:fffaf000       .debug$S                   0000000180000000     kernel32:KERNEL32.dll
 0000:fffaf000       .debug$S                   0000000180000000     kernel32:KERNEL32.dll
 0000:fffaf000       .debug$S                   0000000180000000     kernel32:KERNEL32.dll
 0000:fffaf000       .debug$S                   0000000180000000     kernel32:KERNEL32.dll
 0000:fffaf000       .debug$S                   0000000180000000     kernel32:KERNEL32.dll
 0000:fffaf000       .debug$S                   0000000180000000     kernel32:KERNEL32.dll
 0000:fffaf000       .debug$S                   0000000180000000     kernel32:KERNEL32.dll
 0000:fffaf000       .debug$S                   0000000180000000     kernel32:KERNEL32.dll
 0000:fffaf000       .debug$S                   0000000180000000     kernel32:KERNEL32.dll
 0000:fffaf000       .debug$S                   0000000180000000     kernel32:KERNEL32.dll
 0000:fffaf000       .debug$S                   0000000180000000     kernel32:KERNEL32.dll
 0000:fffaf000       .debug$S                   0000000180000000     kernel32:KERNEL32.dll
 0000:fffaf000       .debug$S                   0000000180000000     kernel32:KERNEL32.dll
 0000:fffaf000       .debug$S                   0000000180000000     kernel32:KERNEL32.dll
 0000:fffaf000       .debug$S                   0000000180000000     kernel32:KERNEL32.dll
 0000:fffaf000       .debug$S                   0000000180000000     kernel32:KERNEL32.dll
 0000:fffaf000       .debug$S                   0000000180000000     kernel32:KERNEL32.dll
 0000:fffaf000       .debug$S                   0000000180000000     kernel32:KERNEL32.dll
 0000:fffaf000       .debug$S                   0000000180000000     kernel32:KERNEL32.dll
 0000:fffaf000       .debug$S                   0000000180000000     kernel32:KERNEL32.dll
 0000:fffaf000       .debug$S                   0000000180000000     kernel32:KERNEL32.dll
 0000:fffaf000       .debug$S                   0000000180000000     kernel32:KERNEL32.dll
 0000:fffaf000       .debug$S                   0000000180000000     kernel32:KERNEL32.dll
 0000:fffaf000       .debug$S                   0000000180000000     kernel32:KERNEL32.dll
 0000:fffaf000       .debug$S                   0000000180000000     kernel32:KERNEL32.dll
 0000:fffaf000       .debug$S                   0000000180000000     kernel32:KERNEL32.dll
 0000:fffaf000       .debug$S                   0000000180000000     kernel32:KERNEL32.dll
 0000:fffaf000       .debug$S                   0000000180000000     kernel32:KERNEL32.dll
 0000:fffaf000       .debug$S                   0000000180000000     kernel32:KERNEL32.dll
 0000:fffaf000       .debug$S                   0000000180000000     kernel32:KERNEL32.dll
 0000:fffaf000       .debug$S                   0000000180000000     kernel32:KERNEL32.dll
 0000:fffaf000       .debug$S                   0000000180000000     kernel32:KERNEL32.dll
 0000:fffaf000       .debug$S                   0000000180000000     kernel32:KERNEL32.dll
 0000:fffaf000       .debug$S                   0000000180000000     kernel32:KERNEL32.dll
 0000:fffaf000       .debug$S                   0000000180000000     kernel32:KERNEL32.dll
 0000:fffaf000       .debug$S                   0000000180000000     kernel32:KERNEL32.dll
 0000:fffaf000       .debug$S                   0000000180000000     kernel32:KERNEL32.dll
 0000:fffaf000       .debug$S                   0000000180000000     kernel32:KERNEL32.dll
 0000:fffaf000       .debug$S                   0000000180000000     kernel32:KERNEL32.dll
 0000:fffaf000       .debug$S                   0000000180000000     kernel32:KERNEL32.dll
 0000:fffaf000       .debug$S                   0000000180000000     kernel32:KERNEL32.dll
 0000:fffaf000       .debug$S                   0000000180000000     kernel32:KERNEL32.dll
 0000:fffaf000       .debug$S                   0000000180000000     kernel32:KERNEL32.dll
 0000:fffaf000       .debug$S                   0000000180000000     kernel32:KERNEL32.dll
 0000:fffaf000       .debug$S                   0000000180000000     kernel32:KERNEL32.dll
 0000:fffaf000       .debug$S                   0000000180000000     kernel32:KERNEL32.dll
 0000:fffaf000       .debug$S                   0000000180000000     kernel32:KERNEL32.dll
 0000:fffaf000       .debug$S                   0000000180000000     kernel32:KERNEL32.dll
 0000:fffaf000       .debug$S                   0000000180000000     kernel32:KERNEL32.dll
 0000:fffaf000       .debug$S                   0000000180000000     kernel32:KERNEL32.dll
 0000:fffaf000       .debug$S                   0000000180000000     kernel32:KERNEL32.dll
 0000:fffaf000       .debug$S                   0000000180000000     kernel32:KERNEL32.dll
 0000:fffaf000       .debug$S                   0000000180000000     kernel32:KERNEL32.dll
 0000:fffaf000       .debug$S                   0000000180000000     kernel32:KERNEL32.dll
 0000:fffaf000       .debug$S                   0000000180000000     kernel32:KERNEL32.dll
 0000:fffaf000       .debug$S                   0000000180000000     kernel32:KERNEL32.dll
 0000:fffaf000       .debug$S                   0000000180000000     kernel32:KERNEL32.dll
 0000:fffaf000       .debug$S                   0000000180000000     kernel32:KERNEL32.dll
 0000:fffaf000       .debug$S                   0000000180000000     kernel32:KERNEL32.dll
 0000:fffaf000       .debug$S                   0000000180000000     kernel32:KERNEL32.dll
 0000:fffaf000       .debug$S                   0000000180000000     kernel32:KERNEL32.dll
 0000:fffaf000       .debug$S                   0000000180000000     kernel32:KERNEL32.dll
 0000:fffaf000       .debug$S                   0000000180000000     kernel32:KERNEL32.dll
 0000:fffaf000       .debug$S                   0000000180000000     kernel32:KERNEL32.dll
 0000:fffaf000       .debug$S                   0000000180000000     kernel32:KERNEL32.dll
 0000:fffaf000       .debug$S                   0000000180000000     kernel32:KERNEL32.dll
 0000:fffaf000       .debug$S                   0000000180000000     kernel32:KERNEL32.dll
 0000:fffaf000       .debug$S                   0000000180000000     kernel32:KERNEL32.dll
 0000:fffaf000       .debug$S                   0000000180000000     kernel32:KERNEL32.dll
 0000:fffaf000       .debug$S                   0000000180000000     kernel32:KERNEL32.dll
 0000:fffaf000       .debug$S                   0000000180000000     kernel32:KERNEL32.dll
 0000:fffaf000       .debug$S                   0000000180000000     kernel32:KERNEL32.dll
 0000:fffaf000       .debug$S                   0000000180000000     kernel32:KERNEL32.dll
 0000:fffaf000       .debug$S                   0000000180000000     kernel32:KERNEL32.dll
 0000:fffaf000       .debug$S                   0000000180000000     advapi32:ADVAPI32.dll
 0000:fffaf000       .debug$S                   0000000180000000     node:node.exe
 0000:fffaf000       .debug$S                   0000000180000000     node:node.exe
 0000:fffaf000       .debug$S                   0000000180000000     node:node.exe
 0000:fffaf000       .debug$S                   0000000180000000     node:node.exe
 0000:fffaf000       .debug$S                   0000000180000000     node:node.exe
 0000:fffaf000       .debug$S                   0000000180000000     node:node.exe
 0000:fffaf000       .debug$S                   0000000180000000     node:node.exe
 0000:fffaf000       .debug$S                   0000000180000000     node:node.exe
 0000:fffaf000       .debug$S                   0000000180000000     node:node.exe
 0000:fffaf000       .debug$S                   0000000180000000     node:node.exe
 0000:fffaf000       .debug$S                   0000000180000000     node:node.exe
 0000:fffaf000       .debug$S                   0000000180000000     node:node.exe
 0000:fffaf000       .debug$S                   0000000180000000     node:node.exe
 0000:fffaf000       .debug$S                   0000000180000000     node:node.exe
 0000:fffaf000       .debug$S                   0000000180000000     node:node.exe
 0000:fffaf000       .debug$S                   0000000180000000     node:node.exe
 0000:fffaf000       .debug$S                   0000000180000000     node:node.exe
 0000:fffaf000       .debug$S                   0000000180000000     node:node.exe
 0000:fffaf000       .debug$S                   0000000180000000     node:node.exe
 0000:fffaf000       .debug$S                   0000000180000000     node:node.exe
 0000:fffaf000       .debug$S                   0000000180000000     node:node.exe
 0000:fffaf000       .debug$S                   0000000180000000     node:node.exe
 0000:fffaf000       .debug$S                   0000000180000000     node:node.exe
 0000:fffaf000       .debug$S                   0000000180000000     node:node.exe
 0000:fffaf000       .debug$S                   0000000180000000     node:node.exe
 0000:fffaf000       .debug$S                   0000000180000000     node:node.exe
 0000:fffaf000       .debug$S                   0000000180000000     node:node.exe
 0000:fffaf000       .debug$S                   0000000180000000     node:node.exe
 0000:fffaf000       .debug$S                   0000000180000000     node:node.exe
 0000:fffaf000       .debug$S                   0000000180000000     node:node.exe
 0000:fffaf000       .debug$S                   0000000180000000     node:node.exe
 0000:fffaf000       .debug$S                   0000000180000000     node:node.exe
 0000:fffaf000       .debug$S                   0000000180000000     node:node.exe
 0000:fffaf000       .debug$S                   0000000180000000     node:node.exe
 0000:fffaf000       .debug$S                   0000000180000000     node:node.exe
 0000:fffaf000       .debug$S                   0000000180000000     node:node.exe
 0000:fffaf000       .debug$S                   0000000180000000     node:node.exe
 0000:fffaf000       .debug$S                   0000000180000000     node:node.exe
 0000:fffaf000       .debug$S                   0000000180000000     node:node.exe
 0000:fffaf000       .debug$S                   0000000180000000     node:node.exe
 0000:fffaf000       .debug$S                   0000000180000000     node:node.exe
 0000:fffaf000       .debug$S                   0000000180000000     node:node.exe
 0000:fffaf000       .debug$S                   0000000180000000     node:node.exe
 0000:fffaf000       .debug$S                   0000000180000000     node:node.exe
 0000:fffaf000       .debug$S                   0000000180000000     node:node.exe
 0000:fffaf000       .debug$S                   0000000180000000     node:node.exe
 0000:fffaf000       .debug$S                   0000000180000000     node:node.exe
 0000:fffaf000       .debug$S                   0000000180000000     node:node.exe
 0000:fffaf000       .debug$S                   0000000180000000     node:node.exe
 0000:fffaf000       .debug$S                   0000000180000000     node:node.exe
 0000:fffaf000       .debug$S                   0000000180000000     node:node.exe
 0000:fffaf000       .debug$S                   0000000180000000     node:node.exe
 0000:fffaf000       .debug$S                   0000000180000000     node:node.exe
 0000:fffaf000       .debug$S                   0000000180000000     node:node.exe
 0000:fffaf000       .debug$S                   0000000180000000     node:node.exe
 0000:fffaf000       .debug$S                   0000000180000000     node:node.exe
 0000:fffaf000       .debug$S                   0000000180000000     node:node.exe
 0000:fffaf000       .debug$S                   0000000180000000     node:node.exe
 0000:fffaf000       .debug$S                   0000000180000000     node:node.exe
 0000:fffaf000       .debug$S                   0000000180000000     node:node.exe
 0000:fffaf000       .debug$S                   0000000180000000     node:node.exe
 0000:fffaf000       .debug$S                   0000000180000000     node:node.exe
 0000:fffaf000       .debug$S                   0000000180000000     node:node.exe
 0000:fffaf000       .debug$S                   0000000180000000     node:node.exe
 0000:fffaf000       .debug$S                   0000000180000000     node:node.exe
 0000:fffaf000       .debug$S                   0000000180000000     node:node.exe
 0000:fffaf000       .debug$S                   0000000180000000     node:node.exe
 0000:fffaf000       .debug$S                   0000000180000000     node:node.exe
 0000:fffaf000       .debug$S                   0000000180000000     node:node.exe
 0000:fffaf000       .debug$S                   0000000180000000     node:node.exe
 0000:fffaf000       .debug$S                   0000000180000000     node:node.exe
 0000:fffaf000       .debug$S                   0000000180000000     node:node.exe
 0000:fffaf000       .debug$S                   0000000180000000     node:node.exe
 0000:fffaf000       .debug$S                   0000000180000000     node:node.exe
 0000:fffaf000       .debug$S                   0000000180000000     node:node.exe
 0000:fffaf000       .debug$S                   0000000180000000     node:node.exe
 0000:fffaf000       .debug$S                   0000000180000000     node:node.exe
 0000:fffaf000       .debug$S                   0000000180000000     node:node.exe
 0000:fffaf000       .debug$S                   0000000180000000     node:node.exe
 0000:fffaf000       .debug$S                   0000000180000000     node:node.exe
 0000:fffaf000       .debug$S                   0000000180000000     node:node.exe
 0000:fffaf000       .debug$S                   0000000180000000     node:node.exe
 0000:fffaf000       .debug$S                   0000000180000000     node:node.exe
 0000:fffaf000       .debug$S                   0000000180000000     node:node.exe
 0000:fffaf000       .debug$S                   0000000180000000     node:node.exe
 0000:fffaf000       .debug$S                   0000000180000000     node:node.exe
 0000:fffaf000       .debug$S                   0000000180000000     node:node.exe
 0000:fffaf000       .debug$S                   0000000180000000     node:node.exe
 0000:fffaf000       .debug$S                   0000000180000000     node:node.exe
 0000:fffaf000       .debug$S                   0000000180000000     node:node.exe
 0000:fffaf000       .debug$S                   0000000180000000     node:node.exe
 0000:fffaf000       .debug$S                   0000000180000000     node:node.exe
 0000:fffaf000       .debug$S                   0000000180000000     node:node.exe
 0000:fffaf000       .debug$S                   0000000180000000     node:node.exe
 0000:fffaf000       .debug$S                   0000000180000000     node:node.exe
 0000:fffaf000       .debug$S                   0000000180000000     node:node.exe
 0000:fffaf000       .debug$S                   0000000180000000     node:node.exe
 0000:fffaf000       .debug$S                   0000000180000000     node:node.exe
 0000:fffaf000       .debug$S                   0000000180000000     node:node.exe
 0000:fffaf000       .debug$S                   0000000180000000     node:node.exe
 0000:fffaf000       .debug$S                   0000000180000000     node:node.exe
 0000:fffaf000       .debug$S                   0000000180000000     node:node.exe
 0000:fffaf000       .debug$S                   0000000180000000     node:node.exe
 0000:fffaf000       .debug$S                   0000000180000000     node:node.exe
 0000:fffaf000       .debug$S                   0000000180000000     node:node.exe
 0000:fffaf000       .debug$S                   0000000180000000     node:node.exe
 0000:fffaf000       .debug$S                   0000000180000000     node:node.exe
 0000:fffaf000       .debug$S                   0000000180000000     node:node.exe
 0000:fffaf000       .debug$S                   0000000180000000     node:node.exe
 0000:fffaf000       .debug$S                   0000000180000000     node:node.exe
 0000:fffaf000       .debug$S                   0000000180000000     node:node.exe
 0000:fffaf000       .debug$S                   0000000180000000     node:node.exe
 0000:fffaf000       .debug$S                   0000000180000000     node:node.exe
 0000:fffaf000       .debug$S                   0000000180000000     node:node.exe
 0000:fffaf000       .debug$S                   0000000180000000     node:node.exe
 0000:fffaf000       .debug$S                   0000000180000000     node:node.exe
 0000:fffaf000       .debug$S                   0000000180000000     node:node.exe
 0000:fffaf000       .debug$S                   0000000180000000     node:node.exe
 0000:fffaf000       .debug$S                   0000000180000000     cairo:libcairo-2.dll
 0000:fffaf000       .debug$S                   0000000180000000     cairo:libcairo-2.dll
 0000:fffaf000       .debug$S                   0000000180000000     cairo:libcairo-2.dll
 0000:fffaf000       .debug$S                   0000000180000000     cairo:libcairo-2.dll
 0000:fffaf000       .debug$S                   0000000180000000     cairo:libcairo-2.dll
 0000:fffaf000       .debug$S                   0000000180000000     cairo:libcairo-2.dll
 0000:fffaf000       .debug$S                   0000000180000000     libpng:libpng14-14.dll
 0000:fffaf000       .debug$S                   0000000180000000     libpng:libpng14-14.dll
 0000:fffaf000       .debug$S                   0000000180000000     libpng:libpng14-14.dll
 0000:fffaf000       .debug$S                   0000000180000000     libpng:libpng14-14.dll
 0000:fffaf000       .debug$S                   0000000180000000     libpng:libpng14-14.dll
 0000:fffaf000       .debug$S                   0000000180000000     libpng:libpng14-14.dll
 0000:fffaf000       .debug$S                   0000000180000000     libpng:libpng14-14.dll
 0000:fffaf000       .debug$S                   0000000180000000     libpng:libpng14-14.dll
 0000:fffaf000       .debug$S                   0000000180000000     libpng:libpng14-14.dll
 0000:fffaf000       .debug$S                   0000000180000000     libpng:libpng14-14.dll
 0000:fffaf000       .debug$S                   0000000180000000     libpng:libpng14-14.dll
 0000:fffaf000       .debug$S                   0000000180000000     libpng:libpng14-14.dll
 0000:fffaf000       .debug$S                   0000000180000000     libpng:libpng14-14.dll
 0000:fffaf000       .debug$S                   0000000180000000     libpng:libpng14-14.dll
 0000:fffaf000       .debug$S                   0000000180000000     libpng:libpng14-14.dll
 0000:fffaf000       .debug$S                   0000000180000000     libpng:libpng14-14.dll
 0000:fffaf000       .debug$S                   0000000180000000     libpng:libpng14-14.dll
 0000:fffaf000       .debug$S                   0000000180000000     libpng:libpng14-14.dll
 0000:fffaf000       .debug$S                   0000000180000000     cairo:libcairo-2.dll
 0000:fffaf000       .debug$S                   0000000180000000     cairo:libcairo-2.dll
 0000:fffaf000       .debug$S                   0000000180000000     cairo:libcairo-2.dll
 0000:fffaf000       .debug$S                   0000000180000000     cairo:libcairo-2.dll
 0000:fffaf000       .debug$S                   0000000180000000     cairo:libcairo-2.dll
 0000:fffaf000       .debug$S                   0000000180000000     cairo:libcairo-2.dll
 0000:fffaf000       .debug$S                   0000000180000000     cairo:libcairo-2.dll
 0000:fffaf000       .debug$S                   0000000180000000     cairo:libcairo-2.dll
 0000:fffaf000       .debug$S                   0000000180000000     cairo:libcairo-2.dll
 0000:fffaf000       .debug$S                   0000000180000000     cairo:libcairo-2.dll
 0000:fffaf000       .debug$S                   0000000180000000     cairo:libcairo-2.dll
 0000:fffaf000       .debug$S                   0000000180000000     cairo:libcairo-2.dll
 0000:fffaf000       .debug$S                   0000000180000000     cairo:libcairo-2.dll
 0000:fffaf000       .debug$S                   0000000180000000     cairo:libcairo-2.dll
 0000:fffaf000       .debug$S                   0000000180000000     cairo:libcairo-2.dll
 0000:fffaf000       .debug$S                   0000000180000000     cairo:libcairo-2.dll
 0000:fffaf000       .debug$S                   0000000180000000     cairo:libcairo-2.dll
 0000:fffaf000       .debug$S                   0000000180000000     cairo:libcairo-2.dll
 0000:fffaf000       .debug$S                   0000000180000000     cairo:libcairo-2.dll
 0000:fffaf000       .debug$S                   0000000180000000     cairo:libcairo-2.dll
 0000:fffaf000       .debug$S                   0000000180000000     cairo:libcairo-2.dll
 0000:fffaf000       .debug$S                   0000000180000000     cairo:libcairo-2.dll
 0000:fffaf000       .debug$S                   0000000180000000     cairo:libcairo-2.dll
 0000:fffaf000       .debug$S                   0000000180000000     cairo:libcairo-2.dll
 0000:fffaf000       .debug$S                   0000000180000000     cairo:libcairo-2.dll
 0000:fffaf000       .debug$S                   0000000180000000     cairo:libcairo-2.dll
 0000:fffaf000       .debug$S                   0000000180000000     cairo:libcairo-2.dll
 0000:fffaf000       .debug$S                   0000000180000000     cairo:libcairo-2.dll
 0000:fffaf000       .debug$S                   0000000180000000     cairo:libcairo-2.dll
 0000:fffaf000       .debug$S                   0000000180000000     cairo:libcairo-2.dll
 0000:fffaf000       .debug$S                   0000000180000000     cairo:libcairo-2.dll
 0000:fffaf000       .debug$S                   0000000180000000     cairo:libcairo-2.dll
 0000:fffaf000       .debug$S                   0000000180000000     cairo:libcairo-2.dll
 0000:fffaf000       .debug$S                   0000000180000000     cairo:libcairo-2.dll
 0000:fffaf000       .debug$S                   0000000180000000     cairo:libcairo-2.dll
 0000:fffaf000       .debug$S                   0000000180000000     cairo:libcairo-2.dll
 0000:fffaf000       .debug$S                   0000000180000000     cairo:libcairo-2.dll
 0000:fffaf000       .debug$S                   0000000180000000     cairo:libcairo-2.dll
 0000:fffaf000       .debug$S                   0000000180000000     cairo:libcairo-2.dll
 0000:fffaf000       .debug$S                   0000000180000000     cairo:libcairo-2.dll
 0000:fffaf000       .debug$S                   0000000180000000     cairo:libcairo-2.dll
 0000:fffaf000       .debug$S                   0000000180000000     cairo:libcairo-2.dll
 0000:fffaf000       .debug$S                   0000000180000000     cairo:libcairo-2.dll
 0000:fffaf000       .debug$S                   0000000180000000     cairo:libcairo-2.dll
 0000:fffaf000       .debug$S                   0000000180000000     cairo:libcairo-2.dll
 0000:fffaf000       .debug$S                   0000000180000000     cairo:libcairo-2.dll
 0000:fffaf000       .debug$S                   0000000180000000     cairo:libcairo-2.dll
 0000:fffaf000       .debug$S                   0000000180000000     cairo:libcairo-2.dll
 0000:fffaf000       .debug$S                   0000000180000000     cairo:libcairo-2.dll
 0000:fffaf000       .debug$S                   0000000180000000     cairo:libcairo-2.dll
 0000:fffaf000       .debug$S                   0000000180000000     cairo:libcairo-2.dll
 0000:fffaf000       .debug$S                   0000000180000000     cairo:libcairo-2.dll
 0000:fffaf000       .debug$S                   0000000180000000     cairo:libcairo-2.dll
 0000:fffaf000       .debug$S                   0000000180000000     cairo:libcairo-2.dll
 0000:fffaf000       .debug$S                   0000000180000000     cairo:libcairo-2.dll
 0000:fffaf000       .debug$S                   0000000180000000     cairo:libcairo-2.dll
 0000:fffaf000       .debug$S                   0000000180000000     cairo:libcairo-2.dll
 0000:fffaf000       .debug$S                   0000000180000000     cairo:libcairo-2.dll
 0000:fffaf000       .debug$S                   0000000180000000     cairo:libcairo-2.dll
 0000:fffaf000       .debug$S                   0000000180000000     cairo:libcairo-2.dll
 0000:fffaf000       .debug$S                   0000000180000000     cairo:libcairo-2.dll
 0000:fffaf000       .debug$S                   0000000180000000     cairo:libcairo-2.dll
 0000:fffaf000       .debug$S                   0000000180000000     cairo:libcairo-2.dll
 0000:fffaf000       .debug$S                   0000000180000000     cairo:libcairo-2.dll
 0000:fffaf000       .debug$S                   0000000180000000     cairo:libcairo-2.dll
 0000:fffaf000       .debug$S                   0000000180000000     cairo:libcairo-2.dll
 0000:fffaf000       .debug$S                   0000000180000000     cairo:libcairo-2.dll
 0000:fffaf000       .debug$S                   0000000180000000     cairo:libcairo-2.dll
 0000:fffaf000       .debug$S                   0000000180000000     cairo:libcairo-2.dll
 0000:fffaf000       .debug$S                   0000000180000000     cairo:libcairo-2.dll
 0000:fffaf000       .debug$S                   0000000180000000     cairo:libcairo-2.dll
 0000:fffaf000       .debug$S                   0000000180000000     cairo:libcairo-2.dll
 0000:fffaf000       .debug$S                   0000000180000000     cairo:libcairo-2.dll
 0000:fffaf000       .debug$S                   0000000180000000     cairo:libcairo-2.dll
 0000:fffaf000       .debug$S                   0000000180000000     cairo:libcairo-2.dll
 0000:fffaf000       .debug$S                   0000000180000000     cairo:libcairo-2.dll
 0000:fffaf000       .debug$S                   0000000180000000     cairo:libcairo-2.dll
 0000:fffaf000       .debug$S                   0000000180000000     cairo:libcairo-2.dll
 0000:fffaf000       .debug$S                   0000000180000000     cairo:libcairo-2.dll
 0000:fffaf000       .debug$S                   0000000180000000     cairo:libcairo-2.dll
 0000:fffaf000       .debug$S                   0000000180000000     cairo:libcairo-2.dll
 0000:fffaf000       .debug$S                   0000000180000000     cairo:libcairo-2.dll
 0000:fffaf000       .debug$S                   0000000180000000     cairo:libcairo-2.dll
 0000:fffaf000       .debug$S                   0000000180000000     cairo:libcairo-2.dll
 0000:fffaf000       .debug$S                   0000000180000000     cairo:libcairo-2.dll
 0000:fffaf000       .debug$S                   0000000180000000     cairo:libcairo-2.dll
 0001:000001e0       ??__E?constructor@Canvas@@2V?$Persistent@VFunctionTemplate@v8@@V?$NonCopyablePersistentTraits@VFunctionTemplate@v8@@@2@@Nan@@A@@YAXXZ 00000001800011e0 f   Canvas.obj
 0001:00000200       ??__E?constructor@Gradient@@2V?$Persistent@VFunctionTemplate@v8@@V?$NonCopyablePersistentTraits@VFunctionTemplate@v8@@@2@@Nan@@A@@YAXXZ 0000000180001200 f   CanvasGradient.obj
 0001:00000220       ??__E?constructor@Pattern@@2V?$Persistent@VFunctionTemplate@v8@@V?$NonCopyablePersistentTraits@VFunctionTemplate@v8@@@2@@Nan@@A@@YAXXZ 0000000180001220 f   CanvasPattern.obj
 0001:00000240       ??__E?constructor@Context2d@@2V?$Persistent@VFunctionTemplate@v8@@V?$NonCopyablePersistentTraits@VFunctionTemplate@v8@@@2@@Nan@@A@@YAXXZ 0000000180001240 f   CanvasRenderingContext2d.obj
 0001:00000260       ??__E?constructor@Image@@2V?$Persistent@VFunctionTemplate@v8@@V?$NonCopyablePersistentTraits@VFunctionTemplate@v8@@@2@@Nan@@A@@YAXXZ 0000000180001260 f   Image.obj
 0001:00000280       ??__E?constructor@ImageData@@2V?$Persistent@VFunctionTemplate@v8@@V?$NonCopyablePersistentTraits@VFunctionTemplate@v8@@@2@@Nan@@A@@YAXXZ 0000000180001280 f   ImageData.obj
 0001:00000a30       ?canvas_png_flush@@YAXPEAUpng_struct_def@@@Z 0000000180001a30 f i Canvas.obj
 0001:00001470       ?FunctionCallbackWrapper@imp@Nan@@YAXAEBV?$FunctionCallbackInfo@VValue@v8@@@v8@@@Z 0000000180002470 f   Canvas.obj
 0001:00001520       ?GetterCallbackWrapper@imp@Nan@@YAXV?$Local@VName@v8@@@v8@@AEBV?$PropertyCallbackInfo@VValue@v8@@@4@@Z 0000000180002520 f   Canvas.obj
 0001:000015d0       ?SetterCallbackWrapper@imp@Nan@@YAXV?$Local@VName@v8@@@v8@@V?$Local@VValue@v8@@@4@AEBV?$PropertyCallbackInfo@X@4@@Z 00000001800025d0 f   Canvas.obj
 0001:00002020       ?canvas_convert_data_to_bytes@@YAXPEAUpng_struct_def@@PEAUpng_row_info_struct@@PEAE@Z 0000000180003020 f   Canvas.obj
 0001:00002060       ?canvas_unpremultiply_data@@YAXPEAUpng_struct_def@@PEAUpng_row_info_struct@@PEAE@Z 0000000180003060 f   Canvas.obj
 0001:00002110       ?canvas_write_png@@YA?AW4_cairo_status@@PEAU_cairo_surface@@P6AXPEAUpng_struct_def@@PEAE_K@ZPEAX@Z 0000000180003110 f   Canvas.obj
 0001:00002450       ?canvas_stream_write_func@@YAXPEAUpng_struct_def@@PEAE_K@Z 0000000180003450 f   Canvas.obj
 0001:00003360       ?toBuffer@@YA?AW4_cairo_status@@PEAXPEBEI@Z 0000000180004360 f   Canvas.obj
 0001:00003f70       ?streamPNG@@YA?AW4_cairo_status@@PEAXPEBEI@Z 0000000180004f70 f   Canvas.obj
 0001:0000b8bc       $LN100                     000000018000c8bc     CanvasRenderingContext2d.obj
 0001:00012250       ?h@@YAHD@Z                 0000000180013250 f   color.obj
 0001:0001228c       $LN9                       000000018001328c     color.obj
 0001:0001229c       $LN8                       000000018001329c     color.obj
 0001:000122e0       ?rgba_from_hsla@@YAHMMMM@Z 00000001800132e0 f   color.obj
 0001:00012590       ?rgba_from_rgb_string@@YAHPEBDPEAF@Z 0000000180013590 f   color.obj
 0001:000127b0       ?rgba_from_rgba_string@@YAHPEBDPEAF@Z 00000001800137b0 f   color.obj
 0001:00012a50       ?rgba_from_hsla_string@@YAHPEBDPEAF@Z 0000000180013a50 f   color.obj
 0001:00012c90       ?rgba_from_hsl_string@@YAHPEBDPEAF@Z 0000000180013c90 f   color.obj
 0001:00012e50       ?rgba_from_hex_string@@YAHPEBDPEAF@Z 0000000180013e50 f   color.obj
 0001:00012f60       ?rgba_from_name_string@@YAHPEBDPEAF@Z 0000000180013f60 f   color.obj
 0001:000130c0       ??$parse_integer@H@@YA_NPEAPEBDPEAH@Z 00000001800140c0 f   color.obj
 0001:00013140       ??$parse_css_number@M@@YA_NPEAPEBDPEAM@Z 0000000180014140 f   color.obj
 0001:00015290       _register_canvas           0000000180016290 f   init.obj
 0001:000152a0       load_exe_hook              00000001800162a0 f   win_delay_load_hook.obj
 0001:00015ac0       $$000000                   0000000180016ac0     LIBCMT:_amdsecgs_.obj
 0001:00015fe0       ?dllmain_crt_dispatch@@YAHQEAUHINSTANCE__@@KQEAX@Z 0000000180016fe0 f   LIBCMT:dll_dllmain.obj
 0001:00016030       ?dllmain_crt_process_attach@@YAHQEAUHINSTANCE__@@QEAX@Z 0000000180017030 f   LIBCMT:dll_dllmain.obj
 0001:0001615c       ?dllmain_crt_process_detach@@YAH_N@Z 000000018001715c f   LIBCMT:dll_dllmain.obj
 0001:000161e0       ?dllmain_dispatch@@YAHQEAUHINSTANCE__@@KQEAX@Z 00000001800171e0 f   LIBCMT:dll_dllmain.obj
 0001:000162e8       ?dllmain_raw@@YAHQEAUHINSTANCE__@@KQEAX@Z 00000001800172e8 f   LIBCMT:dll_dllmain.obj
 0001:000164b0       capture_previous_context   00000001800174b0 f   LIBCMT:gs_report.obj
 0001:00016c10       ?CatchIt@@YAXPEAUEHExceptionRecord@@PEA_KPEAU_CONTEXT@@PEAU_xDISPATCHER_CONTEXT@@PEBU_s_FuncInfo@@PEBU_s_HandlerType@@PEBU_s_CatchableType@@PEBU_s_TryBlockMapEntry@@H1EE@Z 0000000180017c10 f   libvcruntime:frame.obj
 0001:00016cd4       ?ExFilterRethrow@@YAHPEAU_EXCEPTION_POINTERS@@PEAUEHExceptionRecord@@PEAH@Z 0000000180017cd4 f   libvcruntime:frame.obj
 0001:00016d5c       ?FindHandler@@YAXPEAUEHExceptionRecord@@PEA_KPEAU_CONTEXT@@PEAU_xDISPATCHER_CONTEXT@@PEBU_s_FuncInfo@@EH1@Z 0000000180017d5c f   libvcruntime:frame.obj
 0001:0001720c       ?FindHandlerForForeignException@@YAXPEAUEHExceptionRecord@@PEA_KPEAU_CONTEXT@@PEAU_xDISPATCHER_CONTEXT@@PEBU_s_FuncInfo@@HH1@Z 000000018001820c f   libvcruntime:frame.obj
 0001:00017464       ?IsInExceptionSpec@@YAEPEAUEHExceptionRecord@@PEBU_s_ESTypeList@@@Z 0000000180018464 f   libvcruntime:frame.obj
 0001:00018594       _TlgDefineProvider_annotation__Tlg_Microsoft_CRTProviderProv 0000000180019594 f   libvcruntime:telemetry.obj
 0001:00018800       $$000000                   0000000180019800     libvcruntime:memset.obj
 0001:000188ec       MsetTab                    00000001800198ec     libvcruntime:memset.obj
 0001:00018a40       $$000000                   0000000180019a40     libvcruntime:memcpy.obj
 0001:00018ae7       MoveSmall                  0000000180019ae7     libvcruntime:memcpy.obj
 0001:00019130       $$000000                   000000018001a130     libvcruntime:handlers.obj
 0001:000197c0       $$000000                   000000018001a7c0     libvcruntime:_jmpuwind_.obj
 0001:000198b4       ?try_get_function@@YAPEAXW4function_id@?A0xece66f1d@@QEBDQEBW4module_id@2@2@Z 000000018001a8b4 f   libvcruntime:winapi_downlevel.obj
 0001:00019ed4       ??$common_assert_to_message_box@_W@@YAXQEB_W0IQEAX@Z 000000018001aed4 f   libucrt:assert.obj
 0001:00019f98       ??$common_assert_to_message_box_build_string@_W@@YAXQEA_W_KQEB_W2IQEAX@Z 000000018001af98 f   libucrt:assert.obj
 0001:0001a76c       ??$common_assert_to_stderr@_W@@YAXQEB_W0I@Z 000000018001b76c f   libucrt:assert.obj
 0001:0001a8dc       ?get_assert_format@@YAPEB_W_W@Z 000000018001b8dc f   libucrt:assert.obj
 0001:0001b42c       ??R<lambda_dd75445284c072d0bd3768540cc698fa>@@QEBAHXZ 000000018001c42c f   libucrt:output.obj
 0001:0001e030       ??$common_fsopen@D@@YAPEAU_iobuf@@QEBD0H@Z 000000018001f030 f   libucrt:fopen.obj
 0001:0001e1fc       ?common_fseek@@YAHV__crt_stdio_stream@@_JH@Z 000000018001f1fc f   libucrt:fseek.obj
 0001:0001e268       ?common_fseek_binary_mode_read_only_fast_track_nolock@@YA_NV__crt_stdio_stream@@_JH@Z 000000018001f268 f   libucrt:fseek.obj
 0001:0001e378       ?common_fseek_nolock@@YAHV__crt_stdio_stream@@_JH@Z 000000018001f378 f   libucrt:fseek.obj
 0001:0001eb40       ?atexit_exception_filter@@YAHK@Z 000000018001fb40 f   libucrt:exit.obj
 0001:0001eb4c       ?common_exit@@YAXHW4_crt_exit_cleanup_mode@@W4_crt_exit_return_mode@@@Z 000000018001fb4c f   libucrt:exit.obj
 0001:0001ecb8       ?exit_or_terminate_process@@YAXI@Z 000000018001fcb8 f   libucrt:exit.obj
 0001:0001ed04       ?try_cor_exit_process@@YAXI@Z 000000018001fd04 f   libucrt:exit.obj
 0001:0001ed9c       ??$common_initialize_environment_nolock@D@@YAHXZ 000000018001fd9c f   libucrt:environment_initialization.obj
 0001:0001ee08       ??$create_environment@D@@YAQEAPEADQEAD@Z 000000018001fe08 f   libucrt:environment_initialization.obj
 0001:0001ef04       ??$free_environment@_W@@YAXQEAPEA_W@Z 000000018001ff04 f   libucrt:environment_initialization.obj
 0001:0001ef04       ??$free_environment@D@@YAXQEAPEAD@Z 000000018001ff04 f   libucrt:environment_initialization.obj
 0001:0001ef48       ??$uninitialize_environment_internal@D@@YAXAEAPEAPEAD@Z 000000018001ff48 f   libucrt:environment_initialization.obj
 0001:0001ef64       ??$uninitialize_environment_internal@_W@@YAXAEAPEAPEA_W@Z 000000018001ff64 f   libucrt:environment_initialization.obj
 0001:0001f19c       ??R<lambda_4e60a939b0d047cfe11ddc22648dfba9>@@QEBAHXZ 000000018002019c f   libucrt:onexit.obj
 0001:0001f44c       initialize_global_variables 000000018002044c f   libucrt:initialization.obj
 0001:0001f460       initialize_c               0000000180020460 f   libucrt:initialization.obj
 0001:0001f484       report_memory_leaks        0000000180020484 f   libucrt:initialization.obj
 0001:0001f484       initialize_global_state_isolation 0000000180020484 f   libucrt:initialization.obj
 0001:0001f484       uninitialize_global_state_isolation 0000000180020484 f   libucrt:initialization.obj
 0001:0001f484       uninitialize_c             0000000180020484 f   libucrt:initialization.obj
 0001:0001f484       initialize_environment     0000000180020484 f   libucrt:initialization.obj
 0001:0001f488       uninitialize_environment   0000000180020488 f   libucrt:initialization.obj
 0001:0001f498       initialize_pointers        0000000180020498 f   libucrt:initialization.obj
 0001:0001f4ec       uninitialize_vcruntime     00000001800204ec f   libucrt:initialization.obj
 0001:0001f4f4       uninitialize_allocated_memory 00000001800204f4 f   libucrt:initialization.obj
 0001:00020464       ??$common_xtox@K_W@@YAHKQEA_W_KI_N@Z 0000000180021464 f   libucrt:xtoa.obj
 0001:00020510       ??$common_xtox_s@K_W@@YAHKQEA_W_KI_N@Z 0000000180021510 f   libucrt:xtoa.obj
 0001:000207d4       ??$message_box_wait_thread@_W@@YAKQEAX@Z 00000001800217d4 f   libucrt:crtmbox.obj
 0001:000209e8       common_flush_all           00000001800219e8 f   libucrt:fflush.obj
 0001:00020b50       ??R<lambda_b721fa326cdb32351d23dfa67958c160>@@QEBAHXZ 0000000180021b50 f   libucrt:setvbuf.obj
 0001:00021014       _call_matherr              0000000180022014 f   libucrt:libm_error.obj
 0001:0002107c       _exception_enabled         000000018002207c f   libucrt:libm_error.obj
 0001:000214e8       ?construct_ptd_array@@YAXQEAU__acrt_ptd@@@Z 00000001800224e8 f   libucrt:per_thread_data.obj
 0001:000215b8       ?destroy_fls@@YAXPEAX@Z    00000001800225b8 f   libucrt:per_thread_data.obj
 0001:000215d8       ?destroy_ptd_array@@YAXQEAU__acrt_ptd@@@Z 00000001800225d8 f   libucrt:per_thread_data.obj
 0001:000216d0       ?replace_current_thread_locale_nolock@@YAXQEAU__acrt_ptd@@QEAU__crt_locale_data@@@Z 00000001800226d0 f   libucrt:per_thread_data.obj
 0001:00021910       ?try_get_function@@YAPEAXW4function_id@?A0x1dd686d3@@QEBDQEBW4module_id@2@2@Z 0000000180022910 f   libucrt:winapi_thunks.obj
 0001:0002227c       ?initialize_inherited_file_handles_nolock@@YAXXZ 000000018002327c f   libucrt:ioinit.obj
 0001:00022368       ?initialize_stdio_handles_nolock@@YAXXZ 0000000180023368 f   libucrt:ioinit.obj
 0001:00022554       ?internal_isupper_l@@YA_NHQEAU__crt_locale_pointers@@@Z 0000000180023554 f   libucrt:tolower_toupper.obj
 0001:00022e88       ?fp_format_a@@YAHQEBNPEAD_KQEAD2H_NIQEAU__crt_locale_pointers@@@Z 0000000180023e88 f   libucrt:cvt.obj
 0001:000231e8       ?fp_format_e@@YAHQEBNQEAD_K12H_NIQEAU__crt_locale_pointers@@@Z 00000001800241e8 f   libucrt:cvt.obj
 0001:000232b8       ?fp_format_e_internal@@YAHQEAD_KH_NIQEAU_strflt@@2QEAU__crt_locale_pointers@@@Z 00000001800242b8 f   libucrt:cvt.obj
 0001:00023494       ?fp_format_f_internal@@YAHQEAD_KHQEAU_strflt@@_NQEAU__crt_locale_pointers@@@Z 0000000180024494 f   libucrt:cvt.obj
 0001:000235dc       ?fp_format_g@@YAHQEBNQEAD_K12H_NIQEAU__crt_locale_pointers@@@Z 00000001800245dc f   libucrt:cvt.obj
 0001:00023714       ?fp_format_nan_or_infinity@@YAHW4__acrt_fp_class@@_NPEAD_K1@Z 0000000180024714 f   libucrt:cvt.obj
 0001:00023e70       ?find_or_allocate_unused_stream_nolock@@YA?AV__crt_stdio_stream@@XZ 0000000180024e70 f   libucrt:stream.obj
 0001:00024468       ??$common_ftell_nolock@_J@@YA_JV__crt_stdio_stream@@@Z 0000000180025468 f   libucrt:ftell.obj
 0001:000245e0       ?common_ftell_read_mode_nolock@@YA_JV__crt_stdio_stream@@_J1@Z 00000001800255e0 f   libucrt:ftell.obj
 0001:00024758       ?common_ftell_translated_utf8_nolock@@YA_JV__crt_stdio_stream@@_J@Z 0000000180025758 f   libucrt:ftell.obj
 0001:000248d8       ??$common_lseek@_J@@YA_JH_JH@Z 00000001800258d8 f   libucrt:lseek.obj
 0001:000249c8       ??$common_lseek_nolock@_J@@YA_JH_JH@Z 00000001800259c8 f   libucrt:lseek.obj
 0001:00024a74       ??$translate_text_mode_nolock@_W@@YAHHQEA_W_K@Z 0000000180025a74 f   libucrt:read.obj
 0001:00024ca4       ?translate_ansi_or_utf8_nolock@@YAHHQEAD_KQEA_W1@Z 0000000180025ca4 f   libucrt:read.obj
 0001:00025524       ??$common_refill_and_read_nolock@D@@YAHV__crt_stdio_stream@@@Z 0000000180026524 f   libucrt:_filbuf.obj
 0001:000257c4       ??R<lambda_ad1ced32f4ac17aa236e5ef05d6b3b7c>@@QEBAXXZ 00000001800267c4 f   libucrt:mbctype.obj
 0001:000259dc       ?getSystemCP@@YAHH@Z       00000001800269dc f   libucrt:mbctype.obj
 0001:00025a5c       ?setSBCS@@YAXPEAU__crt_multibyte_data@@@Z 0000000180026a5c f   libucrt:mbctype.obj
 0001:00025aec       ?setSBUpLow@@YAXPEAU__crt_multibyte_data@@@Z 0000000180026aec f   libucrt:mbctype.obj
 0001:00025cd0       ?setmbcp_internal@@YAHH_N@Z 0000000180026cd0 f   libucrt:mbctype.obj
 0001:00026838       ?write_double_translated_ansi_nolock@@YA?AUwrite_result@?A0x4392dfaa@@HQEBDI@Z 0000000180027838 f   libucrt:write.obj
 0001:00026a40       ?write_text_ansi_nolock@@YA?AUwrite_result@?A0x4392dfaa@@HQEBDI@Z 0000000180027a40 f   libucrt:write.obj
 0001:00026b48       ?write_text_utf16le_nolock@@YA?AUwrite_result@?A0x4392dfaa@@HQEBDI@Z 0000000180027b48 f   libucrt:write.obj
 0001:00026c64       ?write_text_utf8_nolock@@YA?AUwrite_result@?A0x4392dfaa@@HQEBDI@Z 0000000180027c64 f   libucrt:write.obj
 0001:00027a10       ?GetTableIndexFromLocaleName@@YAHPEB_W@Z 0000000180028a10 f   libucrt:lcidtoname_downlevel.obj
 0001:00028058       ?__acrt_LCMapStringA_stat@@YAHPEAU__crt_locale_pointers@@PEB_WKPEBDHPEADHHH@Z 0000000180029058 f   libucrt:lcmapstringa.obj
 0001:00029d4c       memcpy_s                   000000018002ad4c f   libucrt:cfout.obj
 0001:00029dd4       ??$write_buffer_nolock@D@@YA_NDV__crt_stdio_stream@@@Z 000000018002add4 f   libucrt:_flsbuf.obj
 0001:00029ed8       ??$write_buffer_nolock@_W@@YA_N_WV__crt_stdio_stream@@@Z 000000018002aed8 f   libucrt:_flsbuf.obj
 0001:0002a390       ?free_crt_array_internal@@YAXQEAPEBX_K@Z 000000018002b390 f   libucrt:inittime.obj
 0001:0002a6b0       $$000000                   000000018002b6b0     libucrt:strncmp.obj
 0001:0002a8b4       ??$common_sopen_dispatch@D@@YAHQEBDHHHQEAHH@Z 000000018002b8b4 f   libucrt:open.obj
 0001:0002a994       ?configure_text_mode@@YAHHUfile_options@?A0xc3dee958@@HAEAW4__crt_lowio_text_mode@@@Z 000000018002b994 f   libucrt:open.obj
 0001:0002ac28       ?decode_options@@YA?AUfile_options@?A0xc3dee958@@HHH@Z 000000018002bc28 f   libucrt:open.obj
 0001:0002ae34       ?truncate_ctrl_z_if_present@@YAHH@Z 000000018002be34 f   libucrt:open.obj
 0001:0002b410       ?initialize_multibyte@@YAHXZ 000000018002c410 f   libucrt:multibyte_initializer.obj
 0001:0002b4c0       $$000000                   000000018002c4c0     libucrt:fpsr.obj
 0001:0002b6c0       $$000000                   000000018002c6c0     libucrt:log10.obj
 0001:0002c17c       common_control87           000000018002d17c f   libucrt:ieee.obj
 0001:0002c4b0       _log_special_common        000000018002d4b0 f   libucrt:log_special.obj
 0001:0002cd70       $$000000                   000000018002dd70     LIBCMT:_chkstk_.obj
 0001:0002cf20       $$000000                   000000018002df20     libvcruntime:memcmp.obj
 0001:0002d960       $$000000                   000000018002e960     libucrt:strcmp.obj
 0001:0002d9e0       $$000000                   000000018002e9e0     libucrt:tan.obj
 0001:0002dfa0       _tan_piby4                 000000018002efa0 f   libucrt:tan.obj
 0001:0002e178       _sincos_special            000000018002f178 f   libucrt:sincos_special.obj
 0001:0002e230       $$000000                   000000018002f230     libucrt:remainder_piby2_forfma3.obj
 0001:0002e4a0       $$000000                   000000018002f4a0     libucrt:remainder_piby2_forasm.obj
 0001:0002e7f0       $$000000                   000000018002f7f0     LIBCMT:_guard_dispatch_.obj
 0001:0002e810       $$000000                   000000018002f810     libvcruntime:_longjmp_.obj
 0001:0002e910       $$000000                   000000018002f910     libvcruntime:_setjmp_.obj
 0001:0002e9d0       ?dtor$0@?0??New@?$Factory@VFunctionTemplate@v8@@@imp@Nan@@SA?AV?$Local@VFunctionTemplate@v8@@@v8@@P6AXAEBV?$FunctionCallbackInfo@VValue@v8@@@3@@ZV?$Local@VValue@v8@@@5@V?$Local@VSignature@v8@@@5@@Z@4HA 000000018002f9d0 f   Canvas.obj
 0001:0002e9d0       ?dtor$0@?0??streamPNG@@YA?AW4_cairo_status@@PEAXPEBEI@Z@4HA 000000018002f9d0 f   Canvas.obj
 0001:0002e9e0       ?dtor$0@?0???0Callback@Nan@@QEAA@AEBV?$Local@VFunction@v8@@@v8@@@Z@4HA 000000018002f9e0 f   Canvas.obj
 0001:0002e9ec       ?dtor$1@?0???0Callback@Nan@@QEAA@AEBV?$Local@VFunction@v8@@@v8@@@Z@4HA 000000018002f9ec f   Canvas.obj
 0001:0002e9f8       ?dtor$3@?0???0Callback@Nan@@QEAA@AEBV?$Local@VFunction@v8@@@v8@@@Z@4HA 000000018002f9f8 f   Canvas.obj
 0001:0002ea10       ?dtor$0@?0??loaded@Image@@QEAAXXZ@4HA 000000018002fa10 f   Image.obj
 0001:0002ea10       ?dtor$1@?0??New@Context2d@@SAXAEBV?$FunctionCallbackInfo@VValue@v8@@@Nan@@@Z@4HA 000000018002fa10 f   CanvasRenderingContext2d.obj
 0001:0002ea10       ?dtor$0@?0??SetStrokePattern@Context2d@@SAXAEBV?$FunctionCallbackInfo@VValue@v8@@@Nan@@@Z@4HA 000000018002fa10 f   CanvasRenderingContext2d.obj
 0001:0002ea10       ?dtor$0@?0??AddPage@Context2d@@SAXAEBV?$FunctionCallbackInfo@VValue@v8@@@Nan@@@Z@4HA 000000018002fa10 f   CanvasRenderingContext2d.obj
 0001:0002ea10       ?dtor$0@?0??Call_@Callback@Nan@@AEBA?AV?$Local@VValue@v8@@@v8@@PEAVIsolate@4@V?$Local@VObject@v8@@@4@HQEAV34@@Z@4HA 000000018002fa10 f   Canvas.obj
 0001:0002ea10       ?dtor$0@?0??SetFillPattern@Context2d@@SAXAEBV?$FunctionCallbackInfo@VValue@v8@@@Nan@@@Z@4HA 000000018002fa10 f   CanvasRenderingContext2d.obj
 0001:0002ea20       ?dtor$0@?0???1?$Persistent@VObject@v8@@V?$NonCopyablePersistentTraits@VObject@v8@@@2@@Nan@@QEAA@XZ@4HA 000000018002fa20 f   Canvas.obj
 0001:0002ea30       ?dtor$0@?0???_GCallback@Nan@@QEAAPEAXI@Z@4HA 000000018002fa30 f   Canvas.obj
 0001:0002ea35       ?dtor$1@?0???_GCallback@Nan@@QEAAPEAXI@Z@4HA 000000018002fa35 f   Canvas.obj
 0001:0002ea3a       ?dtor$2@?0???_GCallback@Nan@@QEAAPEAXI@Z@4HA 000000018002fa3a f   Canvas.obj
 0001:0002ea40       ?dtor$0@?0??Initialize@ImageData@@SAXV?$Local@VObject@v8@@@v8@@@Z@4HA 000000018002fa40 f   ImageData.obj
 0001:0002ea40       ?dtor$0@?0??Initialize@Image@@SAXV?$Local@VObject@v8@@@v8@@@Z@4HA 000000018002fa40 f   Image.obj
 0001:0002ea40       ?dtor$0@?0??SetAccessor@Nan@@YAXV?$Local@VObjectTemplate@v8@@@v8@@V?$Local@VString@v8@@@3@P6AX1AEBV?$PropertyCallbackInfo@VValue@v8@@@1@@ZP6AX1V?$Local@VValue@v8@@@3@AEBV?$PropertyCallbackInfo@X@1@@Z4W4AccessControl@3@W4PropertyAttribute@3@V?$Local@VAccessorSignature@v8@@@3@@Z@4HA 000000018002fa40 f   Canvas.obj
 0001:0002ea50       ?dtor$0@?0???__F?constructor@Context2d@@2V?$Persistent@VFunctionTemplate@v8@@V?$NonCopyablePersistentTraits@VFunctionTemplate@v8@@@2@@Nan@@A@@YAXXZ@4HA 000000018002fa50 f   CanvasRenderingContext2d.obj
 0001:0002ea50       ?dtor$0@?0???1ObjectWrap@Nan@@UEAA@XZ@4HA 000000018002fa50 f   Canvas.obj
 0001:0002ea50       ?dtor$0@?0???__F?constructor@Pattern@@2V?$Persistent@VFunctionTemplate@v8@@V?$NonCopyablePersistentTraits@VFunctionTemplate@v8@@@2@@Nan@@A@@YAXXZ@4HA 000000018002fa50 f   CanvasPattern.obj
 0001:0002ea50       ?dtor$0@?0???__F?constructor@Canvas@@2V?$Persistent@VFunctionTemplate@v8@@V?$NonCopyablePersistentTraits@VFunctionTemplate@v8@@@2@@Nan@@A@@YAXXZ@4HA 000000018002fa50 f   Canvas.obj
 0001:0002ea50       ?dtor$0@?0???__F?constructor@Image@@2V?$Persistent@VFunctionTemplate@v8@@V?$NonCopyablePersistentTraits@VFunctionTemplate@v8@@@2@@Nan@@A@@YAXXZ@4HA 000000018002fa50 f   Image.obj
 0001:0002ea50       ?dtor$0@?0???__F?constructor@ImageData@@2V?$Persistent@VFunctionTemplate@v8@@V?$NonCopyablePersistentTraits@VFunctionTemplate@v8@@@2@@Nan@@A@@YAXXZ@4HA 000000018002fa50 f   ImageData.obj
 0001:0002ea50       ?dtor$0@?0???__F?constructor@Gradient@@2V?$Persistent@VFunctionTemplate@v8@@V?$NonCopyablePersistentTraits@VFunctionTemplate@v8@@@2@@Nan@@A@@YAXXZ@4HA 000000018002fa50 f   CanvasGradient.obj
 0001:0002ea55       ?dtor$1@?0???__F?constructor@Context2d@@2V?$Persistent@VFunctionTemplate@v8@@V?$NonCopyablePersistentTraits@VFunctionTemplate@v8@@@2@@Nan@@A@@YAXXZ@4HA 000000018002fa55 f   CanvasRenderingContext2d.obj
 0001:0002ea55       ?dtor$1@?0???__F?constructor@Gradient@@2V?$Persistent@VFunctionTemplate@v8@@V?$NonCopyablePersistentTraits@VFunctionTemplate@v8@@@2@@Nan@@A@@YAXXZ@4HA 000000018002fa55 f   CanvasGradient.obj
 0001:0002ea55       ?dtor$1@?0???__F?constructor@Pattern@@2V?$Persistent@VFunctionTemplate@v8@@V?$NonCopyablePersistentTraits@VFunctionTemplate@v8@@@2@@Nan@@A@@YAXXZ@4HA 000000018002fa55 f   CanvasPattern.obj
 0001:0002ea55       ?dtor$1@?0???__F?constructor@Canvas@@2V?$Persistent@VFunctionTemplate@v8@@V?$NonCopyablePersistentTraits@VFunctionTemplate@v8@@@2@@Nan@@A@@YAXXZ@4HA 000000018002fa55 f   Canvas.obj
 0001:0002ea55       ?dtor$1@?0???__F?constructor@Image@@2V?$Persistent@VFunctionTemplate@v8@@V?$NonCopyablePersistentTraits@VFunctionTemplate@v8@@@2@@Nan@@A@@YAXXZ@4HA 000000018002fa55 f   Image.obj
 0001:0002ea55       ?dtor$1@?0???1ObjectWrap@Nan@@UEAA@XZ@4HA 000000018002fa55 f   Canvas.obj
 0001:0002ea55       ?dtor$1@?0???__F?constructor@ImageData@@2V?$Persistent@VFunctionTemplate@v8@@V?$NonCopyablePersistentTraits@VFunctionTemplate@v8@@@2@@Nan@@A@@YAXXZ@4HA 000000018002fa55 f   ImageData.obj
 0001:0002ea60       ?dtor$0@?0??Initialize@Canvas@@SAXV?$Local@VObject@v8@@@v8@@@Z@4HA 000000018002fa60 f   Canvas.obj
 0001:0002ea6c       ?dtor$2@?0??Initialize@Canvas@@SAXV?$Local@VObject@v8@@@v8@@@Z@4HA 000000018002fa6c f   Canvas.obj
 0001:0002ea78       ?dtor$5@?0??Initialize@Canvas@@SAXV?$Local@VObject@v8@@@v8@@@Z@4HA 000000018002fa78 f   Canvas.obj
 0001:0002ea90       ?dtor$0@?0??New@Canvas@@SAXAEBV?$FunctionCallbackInfo@VValue@v8@@@Nan@@@Z@4HA 000000018002fa90 f   Canvas.obj
 0001:0002ea9e       ?dtor$2@?0??New@Canvas@@SAXAEBV?$FunctionCallbackInfo@VValue@v8@@@Nan@@@Z@4HA 000000018002fa9e f   Canvas.obj
 0001:0002eac0       ?dtor$0@?0??ToBufferAsyncAfter@Canvas@@SAXPEAUuv_work_s@@@Z@4HA 000000018002fac0 f   Canvas.obj
 0001:0002eacc       ?dtor$4@?0??ToBufferAsyncAfter@Canvas@@SAXPEAUuv_work_s@@@Z@4HA 000000018002facc f   Canvas.obj
 0001:0002ead1       ?dtor$5@?0??ToBufferAsyncAfter@Canvas@@SAXPEAUuv_work_s@@@Z@4HA 000000018002fad1 f   Canvas.obj
 0001:0002ead6       ?dtor$6@?0??ToBufferAsyncAfter@Canvas@@SAXPEAUuv_work_s@@@Z@4HA 000000018002fad6 f   Canvas.obj
 0001:0002eadb       ?dtor$7@?0??ToBufferAsyncAfter@Canvas@@SAXPEAUuv_work_s@@@Z@4HA 000000018002fadb f   Canvas.obj
 0001:0002eae0       ?dtor$2@?0??ToBuffer@Canvas@@SAXAEBV?$FunctionCallbackInfo@VValue@v8@@@Nan@@@Z@4HA 000000018002fae0 f   Canvas.obj
 0001:0002eaec       ?dtor$5@?0??ToBuffer@Canvas@@SAXAEBV?$FunctionCallbackInfo@VValue@v8@@@Nan@@@Z@4HA 000000018002faec f   Canvas.obj
 0001:0002eaf8       ?dtor$8@?0??ToBuffer@Canvas@@SAXAEBV?$FunctionCallbackInfo@VValue@v8@@@Nan@@@Z@4HA 000000018002faf8 f   Canvas.obj
 0001:0002eb04       ?dtor$0@?0??ToBuffer@Canvas@@SAXAEBV?$FunctionCallbackInfo@VValue@v8@@@Nan@@@Z@4HA 000000018002fb04 f   Canvas.obj
 0001:0002eb24       ?dtor$1@?0??ToBuffer@Canvas@@SAXAEBV?$FunctionCallbackInfo@VValue@v8@@@Nan@@@Z@4HA 000000018002fb24 f   Canvas.obj
 0001:0002eb40       ?dtor$1@?0??StreamPNGSync@Canvas@@SAXAEBV?$FunctionCallbackInfo@VValue@v8@@@Nan@@@Z@4HA 000000018002fb40 f   Canvas.obj
 0001:0002eb4c       ?dtor$4@?0??StreamPNGSync@Canvas@@SAXAEBV?$FunctionCallbackInfo@VValue@v8@@@Nan@@@Z@4HA 000000018002fb4c f   Canvas.obj
 0001:0002eb58       ?dtor$7@?0??StreamPNGSync@Canvas@@SAXAEBV?$FunctionCallbackInfo@VValue@v8@@@Nan@@@Z@4HA 000000018002fb58 f   Canvas.obj
 0001:0002eb64       ?dtor$10@?0??StreamPNGSync@Canvas@@SAXAEBV?$FunctionCallbackInfo@VValue@v8@@@Nan@@@Z@4HA 000000018002fb64 f   Canvas.obj
 0001:0002eb70       ?dtor$0@?0??StreamPNGSync@Canvas@@SAXAEBV?$FunctionCallbackInfo@VValue@v8@@@Nan@@@Z@4HA 000000018002fb70 f   Canvas.obj
 0001:0002eb80       ?dtor$0@?0???0Canvas@@QEAA@HHW4canvas_type_t@@@Z@4HA 000000018002fb80 f   Canvas.obj
 0001:0002eb90       ?dtor$0@?0??resurface@Canvas@@QEAAXV?$Local@VObject@v8@@@v8@@@Z@4HA 000000018002fb90 f   Canvas.obj
 0001:0002eb90       ?dtor$0@?0??error@Image@@QEAAXV?$Local@VValue@v8@@@v8@@@Z@4HA 000000018002fb90 f   Image.obj
 0001:0002eba0       ?dtor$0@?0??Initialize@Gradient@@SAXV?$Local@VObject@v8@@@v8@@@Z@4HA 000000018002fba0 f   CanvasGradient.obj
 0001:0002ebac       ?dtor$2@?0??Initialize@Gradient@@SAXV?$Local@VObject@v8@@@v8@@@Z@4HA 000000018002fbac f   CanvasGradient.obj
 0001:0002ebc0       ?dtor$0@?0??New@Gradient@@SAXAEBV?$FunctionCallbackInfo@VValue@v8@@@Nan@@@Z@4HA 000000018002fbc0 f   CanvasGradient.obj
 0001:0002ebe0       ?dtor$1@?0??New@Gradient@@SAXAEBV?$FunctionCallbackInfo@VValue@v8@@@Nan@@@Z@4HA 000000018002fbe0 f   CanvasGradient.obj
 0001:0002ec00       ?dtor$2@?0??New@Gradient@@SAXAEBV?$FunctionCallbackInfo@VValue@v8@@@Nan@@@Z@4HA 000000018002fc00 f   CanvasGradient.obj
 0001:0002ec10       ?dtor$1@?0??AddColorStop@Gradient@@SAXAEBV?$FunctionCallbackInfo@VValue@v8@@@Nan@@@Z@4HA 000000018002fc10 f   CanvasGradient.obj
 0001:0002ec1c       ?dtor$4@?0??AddColorStop@Gradient@@SAXAEBV?$FunctionCallbackInfo@VValue@v8@@@Nan@@@Z@4HA 000000018002fc1c f   CanvasGradient.obj
 0001:0002ec28       ?dtor$0@?0??AddColorStop@Gradient@@SAXAEBV?$FunctionCallbackInfo@VValue@v8@@@Nan@@@Z@4HA 000000018002fc28 f   CanvasGradient.obj
 0001:0002ec36       ?dtor$7@?0??AddColorStop@Gradient@@SAXAEBV?$FunctionCallbackInfo@VValue@v8@@@Nan@@@Z@4HA 000000018002fc36 f   CanvasGradient.obj
 0001:0002ec50       ?dtor$0@?0??Initialize@Pattern@@SAXV?$Local@VObject@v8@@@v8@@@Z@4HA 000000018002fc50 f   CanvasPattern.obj
 0001:0002ec60       ?dtor$0@?0??LineTo@Context2d@@SAXAEBV?$FunctionCallbackInfo@VValue@v8@@@Nan@@@Z@4HA 000000018002fc60 f   CanvasRenderingContext2d.obj
 0001:0002ec60       ?dtor$0@?0??MoveTo@Context2d@@SAXAEBV?$FunctionCallbackInfo@VValue@v8@@@Nan@@@Z@4HA 000000018002fc60 f   CanvasRenderingContext2d.obj
 0001:0002ec60       ?dtor$0@?0??PutImageData@Context2d@@SAXAEBV?$FunctionCallbackInfo@VValue@v8@@@Nan@@@Z@4HA 000000018002fc60 f   CanvasRenderingContext2d.obj
 0001:0002ec60       ?dtor$1@?0??New@Pattern@@SAXAEBV?$FunctionCallbackInfo@VValue@v8@@@Nan@@@Z@4HA 000000018002fc60 f   CanvasPattern.obj
 0001:0002ec6c       ?dtor$3@?0??LineTo@Context2d@@SAXAEBV?$FunctionCallbackInfo@VValue@v8@@@Nan@@@Z@4HA 000000018002fc6c f   CanvasRenderingContext2d.obj
 0001:0002ec6c       ?dtor$3@?0??MoveTo@Context2d@@SAXAEBV?$FunctionCallbackInfo@VValue@v8@@@Nan@@@Z@4HA 000000018002fc6c f   CanvasRenderingContext2d.obj
 0001:0002ec6c       ?dtor$4@?0??New@Pattern@@SAXAEBV?$FunctionCallbackInfo@VValue@v8@@@Nan@@@Z@4HA 000000018002fc6c f   CanvasPattern.obj
 0001:0002ec6c       ?dtor$3@?0??PutImageData@Context2d@@SAXAEBV?$FunctionCallbackInfo@VValue@v8@@@Nan@@@Z@4HA 000000018002fc6c f   CanvasRenderingContext2d.obj
 0001:0002ec80       ?dtor$0@?0??Initialize@Context2d@@SAXV?$Local@VObject@v8@@@v8@@@Z@4HA 000000018002fc80 f   CanvasRenderingContext2d.obj
 0001:0002ec8c       ?dtor$2@?0??Initialize@Context2d@@SAXV?$Local@VObject@v8@@@v8@@@Z@4HA 000000018002fc8c f   CanvasRenderingContext2d.obj
 0001:0002ec98       ?dtor$5@?0??Initialize@Context2d@@SAXV?$Local@VObject@v8@@@v8@@@Z@4HA 000000018002fc98 f   CanvasRenderingContext2d.obj
 0001:0002eca4       ?dtor$8@?0??Initialize@Context2d@@SAXV?$Local@VObject@v8@@@v8@@@Z@4HA 000000018002fca4 f   CanvasRenderingContext2d.obj
 0001:0002ecb0       ?dtor$11@?0??Initialize@Context2d@@SAXV?$Local@VObject@v8@@@v8@@@Z@4HA 000000018002fcb0 f   CanvasRenderingContext2d.obj
 0001:0002ecbc       ?dtor$14@?0??Initialize@Context2d@@SAXV?$Local@VObject@v8@@@v8@@@Z@4HA 000000018002fcbc f   CanvasRenderingContext2d.obj
 0001:0002ecc8       ?dtor$17@?0??Initialize@Context2d@@SAXV?$Local@VObject@v8@@@v8@@@Z@4HA 000000018002fcc8 f   CanvasRenderingContext2d.obj
 0001:0002ecd4       ?dtor$20@?0??Initialize@Context2d@@SAXV?$Local@VObject@v8@@@v8@@@Z@4HA 000000018002fcd4 f   CanvasRenderingContext2d.obj
 0001:0002ece0       ?dtor$23@?0??Initialize@Context2d@@SAXV?$Local@VObject@v8@@@v8@@@Z@4HA 000000018002fce0 f   CanvasRenderingContext2d.obj
 0001:0002ecec       ?dtor$26@?0??Initialize@Context2d@@SAXV?$Local@VObject@v8@@@v8@@@Z@4HA 000000018002fcec f   CanvasRenderingContext2d.obj
 0001:0002ecf8       ?dtor$29@?0??Initialize@Context2d@@SAXV?$Local@VObject@v8@@@v8@@@Z@4HA 000000018002fcf8 f   CanvasRenderingContext2d.obj
 0001:0002ed04       ?dtor$32@?0??Initialize@Context2d@@SAXV?$Local@VObject@v8@@@v8@@@Z@4HA 000000018002fd04 f   CanvasRenderingContext2d.obj
 0001:0002ed10       ?dtor$35@?0??Initialize@Context2d@@SAXV?$Local@VObject@v8@@@v8@@@Z@4HA 000000018002fd10 f   CanvasRenderingContext2d.obj
 0001:0002ed1c       ?dtor$38@?0??Initialize@Context2d@@SAXV?$Local@VObject@v8@@@v8@@@Z@4HA 000000018002fd1c f   CanvasRenderingContext2d.obj
 0001:0002ed28       ?dtor$41@?0??Initialize@Context2d@@SAXV?$Local@VObject@v8@@@v8@@@Z@4HA 000000018002fd28 f   CanvasRenderingContext2d.obj
 0001:0002ed34       ?dtor$44@?0??Initialize@Context2d@@SAXV?$Local@VObject@v8@@@v8@@@Z@4HA 000000018002fd34 f   CanvasRenderingContext2d.obj
 0001:0002ed40       ?dtor$47@?0??Initialize@Context2d@@SAXV?$Local@VObject@v8@@@v8@@@Z@4HA 000000018002fd40 f   CanvasRenderingContext2d.obj
 0001:0002ed4c       ?dtor$50@?0??Initialize@Context2d@@SAXV?$Local@VObject@v8@@@v8@@@Z@4HA 000000018002fd4c f   CanvasRenderingContext2d.obj
 0001:0002ed58       ?dtor$53@?0??Initialize@Context2d@@SAXV?$Local@VObject@v8@@@v8@@@Z@4HA 000000018002fd58 f   CanvasRenderingContext2d.obj
 0001:0002ed64       ?dtor$56@?0??Initialize@Context2d@@SAXV?$Local@VObject@v8@@@v8@@@Z@4HA 000000018002fd64 f   CanvasRenderingContext2d.obj
 0001:0002ed70       ?dtor$59@?0??Initialize@Context2d@@SAXV?$Local@VObject@v8@@@v8@@@Z@4HA 000000018002fd70 f   CanvasRenderingContext2d.obj
 0001:0002ed7c       ?dtor$62@?0??Initialize@Context2d@@SAXV?$Local@VObject@v8@@@v8@@@Z@4HA 000000018002fd7c f   CanvasRenderingContext2d.obj
 0001:0002ed88       ?dtor$65@?0??Initialize@Context2d@@SAXV?$Local@VObject@v8@@@v8@@@Z@4HA 000000018002fd88 f   CanvasRenderingContext2d.obj
 0001:0002ed94       ?dtor$68@?0??Initialize@Context2d@@SAXV?$Local@VObject@v8@@@v8@@@Z@4HA 000000018002fd94 f   CanvasRenderingContext2d.obj
 0001:0002eda0       ?dtor$71@?0??Initialize@Context2d@@SAXV?$Local@VObject@v8@@@v8@@@Z@4HA 000000018002fda0 f   CanvasRenderingContext2d.obj
 0001:0002edac       ?dtor$74@?0??Initialize@Context2d@@SAXV?$Local@VObject@v8@@@v8@@@Z@4HA 000000018002fdac f   CanvasRenderingContext2d.obj
 0001:0002edb8       ?dtor$77@?0??Initialize@Context2d@@SAXV?$Local@VObject@v8@@@v8@@@Z@4HA 000000018002fdb8 f   CanvasRenderingContext2d.obj
 0001:0002edc4       ?dtor$80@?0??Initialize@Context2d@@SAXV?$Local@VObject@v8@@@v8@@@Z@4HA 000000018002fdc4 f   CanvasRenderingContext2d.obj
 0001:0002edd0       ?dtor$83@?0??Initialize@Context2d@@SAXV?$Local@VObject@v8@@@v8@@@Z@4HA 000000018002fdd0 f   CanvasRenderingContext2d.obj
 0001:0002eddc       ?dtor$86@?0??Initialize@Context2d@@SAXV?$Local@VObject@v8@@@v8@@@Z@4HA 000000018002fddc f   CanvasRenderingContext2d.obj
 0001:0002ede8       ?dtor$89@?0??Initialize@Context2d@@SAXV?$Local@VObject@v8@@@v8@@@Z@4HA 000000018002fde8 f   CanvasRenderingContext2d.obj
 0001:0002edf4       ?dtor$92@?0??Initialize@Context2d@@SAXV?$Local@VObject@v8@@@v8@@@Z@4HA 000000018002fdf4 f   CanvasRenderingContext2d.obj
 0001:0002ee00       ?dtor$95@?0??Initialize@Context2d@@SAXV?$Local@VObject@v8@@@v8@@@Z@4HA 000000018002fe00 f   CanvasRenderingContext2d.obj
 0001:0002ee0c       ?dtor$98@?0??Initialize@Context2d@@SAXV?$Local@VObject@v8@@@v8@@@Z@4HA 000000018002fe0c f   CanvasRenderingContext2d.obj
 0001:0002ee18       ?dtor$101@?0??Initialize@Context2d@@SAXV?$Local@VObject@v8@@@v8@@@Z@4HA 000000018002fe18 f   CanvasRenderingContext2d.obj
 0001:0002ee24       ?dtor$104@?0??Initialize@Context2d@@SAXV?$Local@VObject@v8@@@v8@@@Z@4HA 000000018002fe24 f   CanvasRenderingContext2d.obj
 0001:0002ee30       ?dtor$107@?0??Initialize@Context2d@@SAXV?$Local@VObject@v8@@@v8@@@Z@4HA 000000018002fe30 f   CanvasRenderingContext2d.obj
 0001:0002ee3c       ?dtor$110@?0??Initialize@Context2d@@SAXV?$Local@VObject@v8@@@v8@@@Z@4HA 000000018002fe3c f   CanvasRenderingContext2d.obj
 0001:0002ee48       ?dtor$113@?0??Initialize@Context2d@@SAXV?$Local@VObject@v8@@@v8@@@Z@4HA 000000018002fe48 f   CanvasRenderingContext2d.obj
 0001:0002ee54       ?dtor$116@?0??Initialize@Context2d@@SAXV?$Local@VObject@v8@@@v8@@@Z@4HA 000000018002fe54 f   CanvasRenderingContext2d.obj
 0001:0002ee60       ?dtor$0@?0??GetImageData@Context2d@@SAXAEBV?$FunctionCallbackInfo@VValue@v8@@@Nan@@@Z@4HA 000000018002fe60 f   CanvasRenderingContext2d.obj
 0001:0002ee6c       ?dtor$3@?0??GetImageData@Context2d@@SAXAEBV?$FunctionCallbackInfo@VValue@v8@@@Nan@@@Z@4HA 000000018002fe6c f   CanvasRenderingContext2d.obj
 0001:0002ee80       ?dtor$0@?0??DrawImage@Context2d@@SAXAEBV?$FunctionCallbackInfo@VValue@v8@@@Nan@@@Z@4HA 000000018002fe80 f   CanvasRenderingContext2d.obj
 0001:0002ee8c       ?dtor$3@?0??DrawImage@Context2d@@SAXAEBV?$FunctionCallbackInfo@VValue@v8@@@Nan@@@Z@4HA 000000018002fe8c f   CanvasRenderingContext2d.obj
 0001:0002ee98       ?dtor$6@?0??DrawImage@Context2d@@SAXAEBV?$FunctionCallbackInfo@VValue@v8@@@Nan@@@Z@4HA 000000018002fe98 f   CanvasRenderingContext2d.obj
 0001:0002eea4       ?dtor$9@?0??DrawImage@Context2d@@SAXAEBV?$FunctionCallbackInfo@VValue@v8@@@Nan@@@Z@4HA 000000018002fea4 f   CanvasRenderingContext2d.obj
 0001:0002eeb0       ?dtor$0@?0??SetFilter@Context2d@@SAXV?$Local@VString@v8@@@v8@@V?$Local@VValue@v8@@@3@AEBV?$PropertyCallbackInfo@X@Nan@@@Z@4HA 000000018002feb0 f   CanvasRenderingContext2d.obj
 0001:0002eeb0       ?dtor$0@?0??SetAntiAlias@Context2d@@SAXV?$Local@VString@v8@@@v8@@V?$Local@VValue@v8@@@3@AEBV?$PropertyCallbackInfo@X@Nan@@@Z@4HA 000000018002feb0 f   CanvasRenderingContext2d.obj
 0001:0002eeb0       ?dtor$0@?0??SetFillColor@Context2d@@SAXAEBV?$FunctionCallbackInfo@VValue@v8@@@Nan@@@Z@4HA 000000018002feb0 f   CanvasRenderingContext2d.obj
 0001:0002eeb0       ?dtor$0@?0??SetShadowColor@Context2d@@SAXV?$Local@VString@v8@@@v8@@V?$Local@VValue@v8@@@3@AEBV?$PropertyCallbackInfo@X@Nan@@@Z@4HA 000000018002feb0 f   CanvasRenderingContext2d.obj
 0001:0002eeb0       ?dtor$0@?0??SetStrokeColor@Context2d@@SAXAEBV?$FunctionCallbackInfo@VValue@v8@@@Nan@@@Z@4HA 000000018002feb0 f   CanvasRenderingContext2d.obj
 0001:0002eeb0       ?dtor$0@?0??StrokeText@Context2d@@SAXAEBV?$FunctionCallbackInfo@VValue@v8@@@Nan@@@Z@4HA 000000018002feb0 f   CanvasRenderingContext2d.obj
 0001:0002eeb0       ?dtor$0@?0??SetTextDrawingMode@Context2d@@SAXV?$Local@VString@v8@@@v8@@V?$Local@VValue@v8@@@3@AEBV?$PropertyCallbackInfo@X@Nan@@@Z@4HA 000000018002feb0 f   CanvasRenderingContext2d.obj
 0001:0002eeb0       ?dtor$0@?0??FillText@Context2d@@SAXAEBV?$FunctionCallbackInfo@VValue@v8@@@Nan@@@Z@4HA 000000018002feb0 f   CanvasRenderingContext2d.obj
 0001:0002eec0       ?dtor$0@?0??SetFont@Context2d@@SAXAEBV?$FunctionCallbackInfo@VValue@v8@@@Nan@@@Z@4HA 000000018002fec0 f   CanvasRenderingContext2d.obj
 0001:0002eece       ?dtor$1@?0??SetFont@Context2d@@SAXAEBV?$FunctionCallbackInfo@VValue@v8@@@Nan@@@Z@4HA 000000018002fece f   CanvasRenderingContext2d.obj
 0001:0002eedc       ?dtor$2@?0??SetFont@Context2d@@SAXAEBV?$FunctionCallbackInfo@VValue@v8@@@Nan@@@Z@4HA 000000018002fedc f   CanvasRenderingContext2d.obj
 0001:0002eeea       ?dtor$3@?0??SetFont@Context2d@@SAXAEBV?$FunctionCallbackInfo@VValue@v8@@@Nan@@@Z@4HA 000000018002feea f   CanvasRenderingContext2d.obj
 0001:0002ef00       ?dtor$0@?0??MeasureText@Context2d@@SAXAEBV?$FunctionCallbackInfo@VValue@v8@@@Nan@@@Z@4HA 000000018002ff00 f   CanvasRenderingContext2d.obj
 0001:0002ef10       ?dtor$0@?0??GetLineDash@Context2d@@SAXAEBV?$FunctionCallbackInfo@VValue@v8@@@Nan@@@Z@4HA 000000018002ff10 f   CanvasRenderingContext2d.obj
 0001:0002ef10       ?dtor$0@?0??SetLineDash@Context2d@@SAXAEBV?$FunctionCallbackInfo@VValue@v8@@@Nan@@@Z@4HA 000000018002ff10 f   CanvasRenderingContext2d.obj
 0001:0002ef20       ?dtor$0@?0??GetFunction@Callback@Nan@@QEBA?AV?$Local@VFunction@v8@@@v8@@XZ@4HA 000000018002ff20 f   Image.obj
 0001:0002ef30       ?dtor$0@?0??SetOnload@Image@@SAXV?$Local@VString@v8@@@v8@@V?$Local@VValue@v8@@@3@AEBV?$PropertyCallbackInfo@X@Nan@@@Z@4HA 000000018002ff30 f   Image.obj
 0001:0002ef30       ?dtor$0@?0??SetOnerror@Image@@SAXV?$Local@VString@v8@@@v8@@V?$Local@VValue@v8@@@3@AEBV?$PropertyCallbackInfo@X@Nan@@@Z@4HA 000000018002ff30 f   Image.obj
 0001:0002ef50       ?dtor$0@?0???1Image@@EEAA@XZ@4HA 000000018002ff50 f   Image.obj
 0001:0002ef55       ?dtor$1@?0???1Image@@EEAA@XZ@4HA 000000018002ff55 f   Image.obj
 0001:0002ef5a       ?dtor$2@?0???1Image@@EEAA@XZ@4HA 000000018002ff5a f   Image.obj
 0001:0002ef5f       ?dtor$3@?0???1Image@@EEAA@XZ@4HA 000000018002ff5f f   Image.obj
 0001:0002ef64       ?dtor$4@?0???1Image@@EEAA@XZ@4HA 000000018002ff64 f   Image.obj
 0001:0002ef69       ?dtor$5@?0???1Image@@EEAA@XZ@4HA 000000018002ff69 f   Image.obj
 0001:0002ef6e       ?dtor$6@?0???1Image@@EEAA@XZ@4HA 000000018002ff6e f   Image.obj
 0001:0002ef73       ?dtor$7@?0???1Image@@EEAA@XZ@4HA 000000018002ff73 f   Image.obj
 0001:0002ef78       ?dtor$8@?0???1Image@@EEAA@XZ@4HA 000000018002ff78 f   Image.obj
 0001:0002ef7d       ?dtor$9@?0???1Image@@EEAA@XZ@4HA 000000018002ff7d f   Image.obj
 0001:0002ef82       ?dtor$10@?0???1Image@@EEAA@XZ@4HA 000000018002ff82 f   Image.obj
 0001:0002ef90       ?dtor$1@?0??New@ImageData@@SAXAEBV?$FunctionCallbackInfo@VValue@v8@@@Nan@@@Z@4HA 000000018002ff90 f   ImageData.obj
 0001:0002ef9c       ?dtor$4@?0??New@ImageData@@SAXAEBV?$FunctionCallbackInfo@VValue@v8@@@Nan@@@Z@4HA 000000018002ff9c f   ImageData.obj
 0001:0002efa8       ?dtor$7@?0??New@ImageData@@SAXAEBV?$FunctionCallbackInfo@VValue@v8@@@Nan@@@Z@4HA 000000018002ffa8 f   ImageData.obj
 0001:0002efb4       ?dtor$10@?0??New@ImageData@@SAXAEBV?$FunctionCallbackInfo@VValue@v8@@@Nan@@@Z@4HA 000000018002ffb4 f   ImageData.obj
 0001:0002efc0       ?dtor$13@?0??New@ImageData@@SAXAEBV?$FunctionCallbackInfo@VValue@v8@@@Nan@@@Z@4HA 000000018002ffc0 f   ImageData.obj
 0001:0002efcc       ?dtor$16@?0??New@ImageData@@SAXAEBV?$FunctionCallbackInfo@VValue@v8@@@Nan@@@Z@4HA 000000018002ffcc f   ImageData.obj
 0001:0002efd8       ?dtor$19@?0??New@ImageData@@SAXAEBV?$FunctionCallbackInfo@VValue@v8@@@Nan@@@Z@4HA 000000018002ffd8 f   ImageData.obj
 0001:0002efe4       ?dtor$22@?0??New@ImageData@@SAXAEBV?$FunctionCallbackInfo@VValue@v8@@@Nan@@@Z@4HA 000000018002ffe4 f   ImageData.obj
 0001:0002eff0       ?fin$0@?0???_M@YAXPEAX_K1P6AX0@Z@Z@4HA 000000018002fff0 f   LIBCMT:ehvecdtr.obj
 0001:0002f01c       ?filt$0@?0??__ArrayUnwind@@YAXPEAX_K1P6AX0@Z@Z@4HA 000000018003001c f   LIBCMT:ehvecdtr.obj
 0001:0002f05d       __scrt_is_nonwritable_in_current_image$filt$0 000000018003005d f   LIBCMT:utility.obj
 0001:0002f075       ?fin$0@?0??dllmain_crt_process_attach@@YAHQEAUHINSTANCE__@@QEAX@Z@4HA 0000000180030075 f   LIBCMT:dll_dllmain.obj
 0001:0002f08c       ?fin$0@?0??dllmain_crt_process_detach@@YAH_N@Z@4HA 000000018003008c f   LIBCMT:dll_dllmain.obj
 0001:0002f0a8       ?filt$0@?0??dllmain_dispatch@@YAHQEAUHINSTANCE__@@KQEAX@Z@4HA 00000001800300a8 f   LIBCMT:dll_dllmain.obj
 0001:0002f0de       __CxxCallCatchBlock$filt$0 00000001800300de f   libvcruntime:frame.obj
 0001:0002f103       __CxxCallCatchBlock$fin$1  0000000180030103 f   libvcruntime:frame.obj
 0001:0002f17b       __DestructExceptionObject$filt$0 000000018003017b f   libvcruntime:frame.obj
 0001:0002f193       __FrameUnwindToState$filt$0 0000000180030193 f   libvcruntime:frame.obj
 0001:0002f1a9       __FrameUnwindToState$fin$1 00000001800301a9 f   libvcruntime:frame.obj
 0001:0002f1cc       _CallSETranslator$filt$0   00000001800301cc f   libvcruntime:trnsctrl.obj
 0001:0002f218       ?fin$0@?0???$?RV<lambda_7b91131dde12e1c3dfc74ff76b3f2eac>@@AEAV<lambda_dd75445284c072d0bd3768540cc698fa>@@V<lambda_16bc4ecb55b4718497c16bceaea2ceaf>@@@?$__crt_seh_guarded_call@H@@QEAAH$$QEAV<lambda_7b91131dde12e1c3dfc74ff76b3f2eac>@@AEAV<lambda_dd75445284c072d0bd3768540cc698fa>@@$$QEAV<lambda_16bc4ecb55b4718497c16bceaea2ceaf>@@@Z@4HA 0000000180030218 f   libucrt:output.obj
 0001:0002f218       ?fin$0@?0???$?RV<lambda_7a5ef57ff966f610505f1d28a3d40618>@@AEAV<lambda_b721fa326cdb32351d23dfa67958c160>@@V<lambda_5e0fb27672408a07956fe59e48ccb2aa>@@@?$__crt_seh_guarded_call@H@@QEAAH$$QEAV<lambda_7a5ef57ff966f610505f1d28a3d40618>@@AEAV<lambda_b721fa326cdb32351d23dfa67958c160>@@$$QEAV<lambda_5e0fb27672408a07956fe59e48ccb2aa>@@@Z@4HA 0000000180030218 f   libucrt:setvbuf.obj
 0001:0002f233       ?fin$0@?0???$common_fsopen@D@@YAPEAU_iobuf@@QEBD0H@Z@4HA 0000000180030233 f   libucrt:fopen.obj
 0001:0002f25e       ?fin$0@?0??common_fseek@@YAHV__crt_stdio_stream@@_JH@Z@4HA 000000018003025e f   libucrt:fseek.obj
 0001:0002f278       fread_s$fin$0              0000000180030278 f   libucrt:fread.obj
 0001:0002f290       _query_new_handler$fin$0   0000000180030290 f   libucrt:new_handler.obj
 0001:0002f2a6       ?filt$0@?0??common_exit@@YAXHW4_crt_exit_cleanup_mode@@W4_crt_exit_return_mode@@@Z@4HA 00000001800302a6 f   libucrt:exit.obj
 0001:0002f2c1       ?fin$1@?0??common_exit@@YAXHW4_crt_exit_cleanup_mode@@W4_crt_exit_return_mode@@@Z@4HA 00000001800302c1 f   libucrt:exit.obj
 0001:0002f2da       ?fin$0@?0???$?RV<lambda_e24bbb7b643b32fcea6fa61b31d4c984>@@AEAV<lambda_275893d493268fdec8709772e3fcec0e>@@V<lambda_9d71df4d7cf3f480f8d633942495c3b0>@@@?$__crt_seh_guarded_call@H@@QEAAH$$QEAV<lambda_e24bbb7b643b32fcea6fa61b31d4c984>@@AEAV<lambda_275893d493268fdec8709772e3fcec0e>@@$$QEAV<lambda_9d71df4d7cf3f480f8d633942495c3b0>@@@Z@4HA 00000001800302da f   libucrt:onexit.obj
 0001:0002f2f7       common_flush_all$fin$0     00000001800302f7 f   libucrt:fflush.obj
 0001:0002f311       common_flush_all$fin$1     0000000180030311 f   libucrt:fflush.obj
 0001:0002f32a       fclose$fin$0               000000018003032a f   libucrt:fclose.obj
 0001:0002f32a       fflush$fin$0               000000018003032a f   libucrt:fflush.obj
 0001:0002f342       ?fin$0@?0???$?RV<lambda_72d1df2b273a38828b1ce30cbf4cdab5>@@AEAV<lambda_876a65b173b8412d3a47c70a915b0cf4>@@V<lambda_41932305e351933ebe8f8be3ed8bb5dc>@@@?$__crt_seh_guarded_call@X@@QEAAX$$QEAV<lambda_72d1df2b273a38828b1ce30cbf4cdab5>@@AEAV<lambda_876a65b173b8412d3a47c70a915b0cf4>@@$$QEAV<lambda_41932305e351933ebe8f8be3ed8bb5dc>@@@Z@4HA 0000000180030342 f   libucrt:per_thread_data.obj
 0001:0002f342       ?fin$0@?0???$?RV<lambda_5e887d1dcbef67a5eb4283622ba103bf>@@AEAV<lambda_4466841279450cc726390878d4a41900>@@V<lambda_341c25c0346d94847f1f3c463c57e077>@@@?$__crt_seh_guarded_call@X@@QEAAX$$QEAV<lambda_5e887d1dcbef67a5eb4283622ba103bf>@@AEAV<lambda_4466841279450cc726390878d4a41900>@@$$QEAV<lambda_341c25c0346d94847f1f3c463c57e077>@@@Z@4HA 0000000180030342 f   libucrt:per_thread_data.obj
 0001:0002f342       ?fin$0@?0???$?RV<lambda_46352004c1216016012b18bd6f87e700>@@AEAV<lambda_3bd07e1a1191394380780325891bf33f>@@V<lambda_334532d3f185bcaa59b5be82d7d22bff>@@@?$__crt_seh_guarded_call@X@@QEAAX$$QEAV<lambda_46352004c1216016012b18bd6f87e700>@@AEAV<lambda_3bd07e1a1191394380780325891bf33f>@@$$QEAV<lambda_334532d3f185bcaa59b5be82d7d22bff>@@@Z@4HA 0000000180030342 f   libucrt:per_thread_data.obj
 0001:0002f342       ?fin$0@?0???$?RV<lambda_fb3a7dec4e47f37f22dae91bb15c9095>@@AEAV<lambda_698284760c8add0bfb0756c19673e34b>@@V<lambda_dfb8eca1e75fef3034a8fb18dd509707>@@@?$__crt_seh_guarded_call@X@@QEAAX$$QEAV<lambda_fb3a7dec4e47f37f22dae91bb15c9095>@@AEAV<lambda_698284760c8add0bfb0756c19673e34b>@@$$QEAV<lambda_dfb8eca1e75fef3034a8fb18dd509707>@@@Z@4HA 0000000180030342 f   libucrt:per_thread_data.obj
 0001:0002f342       ?fin$0@?0???$?RV<lambda_c36588078e9f5dfd39652860aa6b3aaf>@@AEAV<lambda_ec61778202f4f5fc7e7711acc23c3bca>@@V<lambda_dc9d2797ccde5d239b4a0efae8ebd7db>@@@?$__crt_seh_guarded_call@P6AXH@Z@@QEAAP6AXH@Z$$QEAV<lambda_c36588078e9f5dfd39652860aa6b3aaf>@@AEAV<lambda_ec61778202f4f5fc7e7711acc23c3bca>@@$$QEAV<lambda_dc9d2797ccde5d239b4a0efae8ebd7db>@@@Z@4HA 0000000180030342 f   libucrt:signal.obj
 0001:0002f342       ?fin$0@?0???$?RV<lambda_b8c45f8f788dd370798f47cfe8ac3a86>@@AEAV<lambda_4e60a939b0d047cfe11ddc22648dfba9>@@V<lambda_332c3edc96d0294ec56c57d38c1cdfd5>@@@?$__crt_seh_guarded_call@H@@QEAAH$$QEAV<lambda_b8c45f8f788dd370798f47cfe8ac3a86>@@AEAV<lambda_4e60a939b0d047cfe11ddc22648dfba9>@@$$QEAV<lambda_332c3edc96d0294ec56c57d38c1cdfd5>@@@Z@4HA 0000000180030342 f   libucrt:onexit.obj
 0001:0002f342       ?fin$0@?0???$?RV<lambda_99476a1ad63dd22509b5d3e65b0ffc95>@@AEAV<lambda_ad1ced32f4ac17aa236e5ef05d6b3b7c>@@V<lambda_f7424dd8d45958661754dc4f2697e9c3>@@@?$__crt_seh_guarded_call@X@@QEAAX$$QEAV<lambda_99476a1ad63dd22509b5d3e65b0ffc95>@@AEAV<lambda_ad1ced32f4ac17aa236e5ef05d6b3b7c>@@$$QEAV<lambda_f7424dd8d45958661754dc4f2697e9c3>@@@Z@4HA 0000000180030342 f   libucrt:mbctype.obj
 0001:0002f35c       raise$fin$0                000000018003035c f   libucrt:signal.obj
 0001:0002f380       ?fin$0@?0??__acrt_stdio_allocate_stream@@YA?AV__crt_stdio_stream@@XZ@4HA 0000000180030380 f   libucrt:stream.obj
 0001:0002f380       _fcloseall$fin$0           0000000180030380 f   libucrt:closeall.obj
 0001:0002f399       _write$fin$0               0000000180030399 f   libucrt:write.obj
 0001:0002f399       _read$fin$0                0000000180030399 f   libucrt:read.obj
 0001:0002f399       ?fin$0@?0???$common_lseek@_J@@YA_JH_JH@Z@4HA 0000000180030399 f   libucrt:lseek.obj
 0001:0002f3b0       __acrt_update_thread_multibyte_data$fin$0 00000001800303b0 f   libucrt:mbctype.obj
 0001:0002f3c9       ?fin$0@?0???$?RV<lambda_bfedae4ebbf01fab1bb6dcc6a9e276e0>@@AEAV<lambda_2fe9b910cf3cbf4a0ab98a02ba45b3ec>@@V<lambda_237c231691f317818eb88cc1d5d642d6>@@@?$__crt_seh_guarded_call@H@@QEAAH$$QEAV<lambda_bfedae4ebbf01fab1bb6dcc6a9e276e0>@@AEAV<lambda_2fe9b910cf3cbf4a0ab98a02ba45b3ec>@@$$QEAV<lambda_237c231691f317818eb88cc1d5d642d6>@@@Z@4HA 00000001800303c9 f   libucrt:close.obj
 0001:0002f3c9       ?fin$0@?0???$?RV<lambda_b521505b218e5242e90febf6bfebc422>@@AEAV<lambda_6978c1fb23f02e42e1d9e99668cc68aa>@@V<lambda_314360699dd331753a4119843814e9a7>@@@?$__crt_seh_guarded_call@H@@QEAAH$$QEAV<lambda_b521505b218e5242e90febf6bfebc422>@@AEAV<lambda_6978c1fb23f02e42e1d9e99668cc68aa>@@$$QEAV<lambda_314360699dd331753a4119843814e9a7>@@@Z@4HA 00000001800303c9 f   libucrt:commit.obj
 0001:0002f3e3       __acrt_update_thread_locale_data$fin$0 00000001800303e3 f   libucrt:locale_refcounting.obj
 0001:0002f3e3       __acrt_uninitialize_locale$fin$0 00000001800303e3 f   libucrt:wsetlocale.obj
 0001:0002f3fc       __acrt_lowio_ensure_fh_exists$fin$0 00000001800303fc f   libucrt:osfinfo.obj
 0001:0002f3fc       __acrt_initialize_lowio$fin$0 00000001800303fc f   libucrt:ioinit.obj
 0001:0002f3fc       _alloc_osfhnd$fin$0        00000001800303fc f   libucrt:osfinfo.obj
 0001:0002f415       ?fin$0@?0???$common_sopen_dispatch@D@@YAHQEBDHHHQEAHH@Z@4HA 0000000180030415 f   libucrt:open.obj
 0001:0002f468       _ctrlfp$filt$0             0000000180030468 f   libucrt:fpctrl.obj
 0001:0002f468       common_control87$filt$0    0000000180030468 f   libucrt:ieee.obj
 0001:0002f4a0       _IsNonwritableInCurrentImage$filt$0 00000001800304a0 f   LIBCMT:pesect.obj
 0001:0002f4c0       ??__F?constructor@Canvas@@2V?$Persistent@VFunctionTemplate@v8@@V?$NonCopyablePersistentTraits@VFunctionTemplate@v8@@@2@@Nan@@A@@YAXXZ 00000001800304c0 f   Canvas.obj
 0001:0002f4e0       ??__F?constructor@Gradient@@2V?$Persistent@VFunctionTemplate@v8@@V?$NonCopyablePersistentTraits@VFunctionTemplate@v8@@@2@@Nan@@A@@YAXXZ 00000001800304e0 f   CanvasGradient.obj
 0001:0002f500       ??__F?constructor@Pattern@@2V?$Persistent@VFunctionTemplate@v8@@V?$NonCopyablePersistentTraits@VFunctionTemplate@v8@@@2@@Nan@@A@@YAXXZ 0000000180030500 f   CanvasPattern.obj
 0001:0002f520       ??__F?constructor@Context2d@@2V?$Persistent@VFunctionTemplate@v8@@V?$NonCopyablePersistentTraits@VFunctionTemplate@v8@@@2@@Nan@@A@@YAXXZ 0000000180030520 f   CanvasRenderingContext2d.obj
 0001:0002f540       ??__F?constructor@Image@@2V?$Persistent@VFunctionTemplate@v8@@V?$NonCopyablePersistentTraits@VFunctionTemplate@v8@@@2@@Nan@@A@@YAXXZ 0000000180030540 f   Image.obj
 0001:0002f560       ??__F?constructor@ImageData@@2V?$Persistent@VFunctionTemplate@v8@@V?$NonCopyablePersistentTraits@VFunctionTemplate@v8@@@2@@Nan@@A@@YAXXZ 0000000180030560 f   ImageData.obj
 0002:00000610       ??constructor$initializer$@Canvas@@2P6AXXZEA@@3P6AXXZEA 0000000180031610     Canvas.obj
 0002:00000618       ??constructor$initializer$@Gradient@@2P6AXXZEA@@3P6AXXZEA 0000000180031618     CanvasGradient.obj
 0002:00000620       ??constructor$initializer$@Pattern@@2P6AXXZEA@@3P6AXXZEA 0000000180031620     CanvasPattern.obj
 0002:00000628       ??constructor$initializer$@Context2d@@2P6AXXZEA@@3P6AXXZEA 0000000180031628     CanvasRenderingContext2d.obj
 0002:00000630       ??constructor$initializer$@Image@@2P6AXXZEA@@3P6AXXZEA 0000000180031630     Image.obj
 0002:00000638       ??constructor$initializer$@ImageData@@2P6AXXZEA@@3P6AXXZEA 0000000180031638     ImageData.obj
 0002:00000760       GS_ExceptionPointers       0000000180031760     LIBCMT:gs_report.obj
 0002:000007d0       ?ExceptionTemplate@?1??_CxxThrowException@@9@4UEHExceptionRecord@@B 00000001800317d0     libvcruntime:throw.obj
 0002:00000840       ?ExceptionTemplate@?1??_UnwindNestedFrames@@9@4U_EXCEPTION_RECORD@@B 0000000180031840     libvcruntime:trnsctrl.obj
 0002:000008d8       ?module_names@?A0xece66f1d@@3QBQEB_WB 00000001800318d8     libvcruntime:winapi_downlevel.obj
 0002:000009a4       ?candidate_modules@?1??try_get_EventRegister@@YAP6AKPEBU_GUID@@P6AX0KE_K1PEAU_EVENT_FILTER_DESCRIPTOR@@PEAX@Z3PEA_K@ZXZ@4QBW4module_id@?A0xece66f1d@@B 00000001800319a4     libvcruntime:winapi_downlevel.obj
 0002:000009b8       ?candidate_modules@?1??try_get_EventSetInformation@@YAP6AK_KW4_EVENT_INFO_CLASS@@PEAXK@ZXZ@4QBW4module_id@?A0xece66f1d@@B 00000001800319b8     libvcruntime:winapi_downlevel.obj
 0002:000009d4       ?candidate_modules@?1??try_get_EventUnregister@@YAP6AK_K@ZXZ@4QBW4module_id@?A0xece66f1d@@B 00000001800319d4     libvcruntime:winapi_downlevel.obj
 0002:000009e8       ?candidate_modules@?1??try_get_EventWriteTransfer@@YAP6AK_KPEBU_EVENT_DESCRIPTOR@@PEBU_GUID@@2KPEAU_EVENT_DATA_DESCRIPTOR@@@ZXZ@4QBW4module_id@?A0xece66f1d@@B 00000001800319e8     libvcruntime:winapi_downlevel.obj
 0002:00000a08       ?candidate_modules@?1??try_get_FlsAlloc@@YAP6AKP6AXPEAX@Z@ZXZ@4QBW4module_id@?A0xece66f1d@@B 0000000180031a08     libvcruntime:winapi_downlevel.obj
 0002:00000a20       ?candidate_modules@?1??try_get_FlsFree@@YAP6AHK@ZXZ@4QBW4module_id@?A0xece66f1d@@B 0000000180031a20     libvcruntime:winapi_downlevel.obj
 0002:00000a30       ?candidate_modules@?1??try_get_FlsGetValue@@YAP6APEAXK@ZXZ@4QBW4module_id@?A0xece66f1d@@B 0000000180031a30     libvcruntime:winapi_downlevel.obj
 0002:00000a48       ?candidate_modules@?1??try_get_FlsSetValue@@YAP6AHKPEAX@ZXZ@4QBW4module_id@?A0xece66f1d@@B 0000000180031a48     libvcruntime:winapi_downlevel.obj
 0002:00000a60       ?candidate_modules@?1??try_get_InitializeCriticalSectionEx@@YAP6AHPEAU_RTL_CRITICAL_SECTION@@KK@ZXZ@4QBW4module_id@?A0xece66f1d@@B 0000000180031a60     libvcruntime:winapi_downlevel.obj
 0002:00000f30       ?rttiTable@@3QBQEBDB       0000000180031f30     libvcruntime:undname.obj
 0002:00000f60       ?tokenTable@@3QBQEBDB      0000000180031f60     libvcruntime:undname.obj
 0002:00000fd0       ?nameTable@@3QBQEBDB       0000000180031fd0     libvcruntime:undname.obj
 0002:00001870       __acrt_initializers        0000000180032870     libucrt:initialization.obj
 0002:00001960       errtable                   0000000180032960     libucrt:errno.obj
 0002:00001ad0       module_names               0000000180032ad0     libucrt:winapi_thunks.obj
 0002:00002000       ?candidate_modules@?1??try_get_AreFileApisANSI@@YAP6AHXZXZ@4QBW4module_id@?A0x1dd686d3@@B 0000000180033000     libucrt:winapi_thunks.obj
 0002:00002018       ?candidate_modules@?1??try_get_FlsAlloc@@YAP6AKP6AXPEAX@Z@ZXZ@4QBW4module_id@?A0x1dd686d3@@B 0000000180033018     libucrt:winapi_thunks.obj
 0002:00002020       ?candidate_modules@?1??try_get_FlsFree@@YAP6AHK@ZXZ@4QBW4module_id@?A0x1dd686d3@@B 0000000180033020     libucrt:winapi_thunks.obj
 0002:00002028       ?candidate_modules@?1??try_get_FlsGetValue@@YAP6APEAXK@ZXZ@4QBW4module_id@?A0x1dd686d3@@B 0000000180033028     libucrt:winapi_thunks.obj
 0002:00002030       ?candidate_modules@?1??try_get_FlsSetValue@@YAP6AHKPEAX@ZXZ@4QBW4module_id@?A0x1dd686d3@@B 0000000180033030     libucrt:winapi_thunks.obj
 0002:00002038       ?candidate_modules@?1??try_get_GetActiveWindow@@YAP6APEAUHWND__@@XZXZ@4QBW4module_id@?A0x1dd686d3@@B 0000000180033038     libucrt:winapi_thunks.obj
 0002:00002050       ?candidate_modules@?1??try_get_GetCurrentPackageId@@YAP6AJPEAIPEAE@ZXZ@4QBW4module_id@?A0x1dd686d3@@B 0000000180033050     libucrt:winapi_thunks.obj
 0002:00002070       ?candidate_modules@?1??try_get_GetLastActivePopup@@YAP6APEAUHWND__@@PEAU2@@ZXZ@4QBW4module_id@?A0x1dd686d3@@B 0000000180033070     libucrt:winapi_thunks.obj
 0002:00002090       ?candidate_modules@?1??try_get_GetProcessWindowStation@@YAP6APEAUHWINSTA__@@XZXZ@4QBW4module_id@?A0x1dd686d3@@B 0000000180033090     libucrt:winapi_thunks.obj
 0002:000020b0       ?candidate_modules@?1??try_get_GetUserObjectInformationW@@YAP6AHPEAXH0KPEAK@ZXZ@4QBW4module_id@?A0x1dd686d3@@B 00000001800330b0     libucrt:winapi_thunks.obj
 0002:000020d8       ?candidate_modules@?1??try_get_InitializeCriticalSectionEx@@YAP6AHPEAU_RTL_CRITICAL_SECTION@@KK@ZXZ@4QBW4module_id@?A0x1dd686d3@@B 00000001800330d8     libucrt:winapi_thunks.obj
 0002:000020e0       ?candidate_modules@?1??try_get_LCMapStringEx@@YAP6AHPEB_WK0HPEA_WHPEAU_nlsversioninfo@@PEAX_J@ZXZ@4QBW4module_id@?A0x1dd686d3@@B 00000001800330e0     libucrt:winapi_thunks.obj
 0002:000020f8       ?candidate_modules@?1??try_get_LocaleNameToLCID@@YAP6AKPEB_WK@ZXZ@4QBW4module_id@?A0x1dd686d3@@B 00000001800330f8     libucrt:winapi_thunks.obj
 0002:00002118       ?candidate_modules@?1??try_get_MessageBoxA@@YAP6AHPEAUHWND__@@PEBD1I@ZXZ@4QBW4module_id@?A0x1dd686d3@@B 0000000180033118     libucrt:winapi_thunks.obj
 0002:00002130       ?candidate_modules@?1??try_get_MessageBoxW@@YAP6AHPEAUHWND__@@PEB_W1I@ZXZ@4QBW4module_id@?A0x1dd686d3@@B 0000000180033130     libucrt:winapi_thunks.obj
 0002:00002838       _mb_locale_names           0000000180033838     libucrt:mbctype.obj
 0002:000030c0       LcidToLocaleNameTable      00000001800340c0     libucrt:lcidtoname_downlevel.obj
 0002:00004b20       LocaleNameToIndexTable     0000000180035b20     libucrt:lcidtoname_downlevel.obj
 0002:00006db0       __real@433fffffffffffff    0000000180037db0     libucrt:fpsr.obj
 0002:00006db8       __real@c33fffffffffffff    0000000180037db8     libucrt:fpsr.obj
 0002:00006dc0       __real_ninf                0000000180037dc0     libucrt:log10.obj
 0002:00006dd0       __real_inf                 0000000180037dd0     libucrt:log10.obj
 0002:00006de0       __real_neg_qnan            0000000180037de0     libucrt:log10.obj
 0002:00006df0       __real_qnanbit             0000000180037df0     libucrt:log10.obj
 0002:00006e00       __int_1023                 0000000180037e00     libucrt:log10.obj
 0002:00006e10       __mask_001                 0000000180037e10     libucrt:log10.obj
 0002:00006e20       __mask_mant                0000000180037e20     libucrt:log10.obj
 0002:00006e30       __mask_mant_top8           0000000180037e30     libucrt:log10.obj
 0002:00006e40       __mask_mant9               0000000180037e40     libucrt:log10.obj
 0002:00006e50       __real_log10_e             0000000180037e50     libucrt:log10.obj
 0002:00006e60       __real_log10_e_lead        0000000180037e60     libucrt:log10.obj
 0002:00006e70       __real_log10_e_tail        0000000180037e70     libucrt:log10.obj
 0002:00006e80       __real_log10_2_lead        0000000180037e80     libucrt:log10.obj
 0002:00006e90       __real_log10_2_tail        0000000180037e90     libucrt:log10.obj
 0002:00006ea0       __real_two                 0000000180037ea0     libucrt:log10.obj
 0002:00006eb0       __real_one                 0000000180037eb0     libucrt:log10.obj
 0002:00006ec0       __real_half                0000000180037ec0     libucrt:log10.obj
 0002:00006ed0       __mask_100                 0000000180037ed0     libucrt:log10.obj
 0002:00006ee0       __real_1_over_512          0000000180037ee0     libucrt:log10.obj
 0002:00006ef0       __real_1_over_2            0000000180037ef0     libucrt:log10.obj
 0002:00006f00       __real_1_over_3            0000000180037f00     libucrt:log10.obj
 0002:00006f10       __real_1_over_4            0000000180037f10     libucrt:log10.obj
 0002:00006f20       __real_1_over_5            0000000180037f20     libucrt:log10.obj
 0002:00006f30       __real_1_over_6            0000000180037f30     libucrt:log10.obj
 0002:00006f40       __real_neg_1023            0000000180037f40     libucrt:log10.obj
 0002:00006f50       __mask_2045                0000000180037f50     libucrt:log10.obj
 0002:00006f60       __real_threshold           0000000180037f60     libucrt:log10.obj
 0002:00006f70       __real_near_one_lt         0000000180037f70     libucrt:log10.obj
 0002:00006f80       __real_near_one_gt         0000000180037f80     libucrt:log10.obj
 0002:00006f90       __real_min_norm            0000000180037f90     libucrt:log10.obj
 0002:00006fa0       __real_notsign             0000000180037fa0     libucrt:log10.obj
 0002:00006fb0       __real_ca1                 0000000180037fb0     libucrt:log10.obj
 0002:00006fc0       __real_ca2                 0000000180037fc0     libucrt:log10.obj
 0002:00006fd0       __real_ca3                 0000000180037fd0     libucrt:log10.obj
 0002:00006fe0       __real_ca4                 0000000180037fe0     libucrt:log10.obj
 0002:00006ff0       __mask_lower               0000000180037ff0     libucrt:log10.obj
 0002:00007000       __flag_x_zero              0000000180038000     libucrt:log10.obj
 0002:00007004       __flag_x_neg               0000000180038004     libucrt:log10.obj
 0002:00007008       __flag_x_nan               0000000180038008     libucrt:log10.obj
 0002:0000a0f0       ?named_colors@@3PAUnamed_color@@A 000000018003b0f0     color.obj
 0002:0000acb8       $cppxdata$?resurface@Canvas@@QEAAXV?$Local@VObject@v8@@@v8@@@Z 000000018003bcb8     Canvas.obj
 0002:0000ace0       $cppxdata$??1Canvas@@EEAA@XZ 000000018003bce0     Canvas.obj
 0002:0000ad08       $cppxdata$??0Canvas@@QEAA@HHW4canvas_type_t@@@Z 000000018003bd08     Canvas.obj
 0002:0000ad30       $cppxdata$?StreamPNGSync@Canvas@@SAXAEBV?$FunctionCallbackInfo@VValue@v8@@@Nan@@@Z 000000018003bd30     Canvas.obj
 0002:0000ad58       $cppxdata$?streamPNG@@YA?AW4_cairo_status@@PEAXPEBEI@Z 000000018003bd58     Canvas.obj
 0002:0000ad80       $cppxdata$?ToBuffer@Canvas@@SAXAEBV?$FunctionCallbackInfo@VValue@v8@@@Nan@@@Z 000000018003bd80     Canvas.obj
 0002:0000ada8       $cppxdata$?ToBufferAsyncAfter@Canvas@@SAXPEAUuv_work_s@@@Z 000000018003bda8     Canvas.obj
 0002:0000add0       $cppxdata$?New@Canvas@@SAXAEBV?$FunctionCallbackInfo@VValue@v8@@@Nan@@@Z 000000018003bdd0     Canvas.obj
 0002:0000adf8       $cppxdata$?Initialize@Canvas@@SAXV?$Local@VObject@v8@@@v8@@@Z 000000018003bdf8     Canvas.obj
 0002:0000ae20       $cppxdata$??__F?constructor@Canvas@@2V?$Persistent@VFunctionTemplate@v8@@V?$NonCopyablePersistentTraits@VFunctionTemplate@v8@@@2@@Nan@@A@@YAXXZ 000000018003be20     Canvas.obj
 0002:0000ae48       $cppxdata$??1ObjectWrap@Nan@@UEAA@XZ 000000018003be48     Canvas.obj
 0002:0000ae70       $cppxdata$?SetAccessor@Nan@@YAXV?$Local@VObjectTemplate@v8@@@v8@@V?$Local@VString@v8@@@3@P6AX1AEBV?$PropertyCallbackInfo@VValue@v8@@@1@@ZP6AX1V?$Local@VValue@v8@@@3@AEBV?$PropertyCallbackInfo@X@1@@Z4W4AccessControl@3@W4PropertyAttribute@3@V?$Local@VAccessorSignature@v8@@@3@@Z 000000018003be70     Canvas.obj
 0002:0000ae98       $cppxdata$??_GCallback@Nan@@QEAAPEAXI@Z 000000018003be98     Canvas.obj
 0002:0000aec0       $cppxdata$??1?$Persistent@VObject@v8@@V?$NonCopyablePersistentTraits@VObject@v8@@@2@@Nan@@QEAA@XZ 000000018003bec0     Canvas.obj
 0002:0000aee8       $cppxdata$?Call_@Callback@Nan@@AEBA?AV?$Local@VValue@v8@@@v8@@PEAVIsolate@4@V?$Local@VObject@v8@@@4@HQEAV34@@Z 000000018003bee8     Canvas.obj
 0002:0000af10       $cppxdata$??0Callback@Nan@@QEAA@AEBV?$Local@VFunction@v8@@@v8@@@Z 000000018003bf10     Canvas.obj
 0002:0000af38       $cppxdata$?New@?$Factory@VFunctionTemplate@v8@@@imp@Nan@@SA?AV?$Local@VFunctionTemplate@v8@@@v8@@P6AXAEBV?$FunctionCallbackInfo@VValue@v8@@@3@@ZV?$Local@VValue@v8@@@5@V?$Local@VSignature@v8@@@5@@Z 000000018003bf38     Canvas.obj
 0002:0000af60       $cppxdata$??1Scope@Isolate@v8@@QEAA@XZ 000000018003bf60     Canvas.obj
 0002:0000af88       $cppxdata$??_EPersistentHandleVisitor@v8@@UEAAPEAXI@Z 000000018003bf88     Canvas.obj
 0002:0000af88       $cppxdata$??_EExternalResourceVisitor@v8@@UEAAPEAXI@Z 000000018003bf88     Canvas.obj
 0002:0000afb0       $cppxdata$??_EExtension@v8@@UEAAPEAXI@Z 000000018003bfb0     Canvas.obj
 0002:0000afd8       $cppxdata$??_EExternalOneByteStringResourceImpl@v8@@UEAAPEAXI@Z 000000018003bfd8     Canvas.obj
 0002:0000b000       $cppxdata$??_EAllocator@ArrayBuffer@v8@@UEAAPEAXI@Z 000000018003c000     Canvas.obj
 0002:0000b028       $cppxdata$??_EExternalOneByteStringResource@String@v8@@UEAAPEAXI@Z 000000018003c028     Canvas.obj
 0002:0000b028       $cppxdata$??_EExternalStringResourceBase@String@v8@@UEAAPEAXI@Z 000000018003c028     Canvas.obj
 0002:0000b028       $cppxdata$??_EExternalStringResource@String@v8@@UEAAPEAXI@Z 000000018003c028     Canvas.obj
 0002:0000b050       $cppxdata$??_EExternalSourceStream@ScriptCompiler@v8@@UEAAPEAXI@Z 000000018003c050     Canvas.obj
 0002:0000b140       $cppxdata$?AddColorStop@Gradient@@SAXAEBV?$FunctionCallbackInfo@VValue@v8@@@Nan@@@Z 000000018003c140     CanvasGradient.obj
 0002:0000b168       $cppxdata$?New@Gradient@@SAXAEBV?$FunctionCallbackInfo@VValue@v8@@@Nan@@@Z 000000018003c168     CanvasGradient.obj
 0002:0000b190       $cppxdata$?Initialize@Gradient@@SAXV?$Local@VObject@v8@@@v8@@@Z 000000018003c190     CanvasGradient.obj
 0002:0000b1b8       $cppxdata$??__F?constructor@Gradient@@2V?$Persistent@VFunctionTemplate@v8@@V?$NonCopyablePersistentTraits@VFunctionTemplate@v8@@@2@@Nan@@A@@YAXXZ 000000018003c1b8     CanvasGradient.obj
 0002:0000b1e0       $cppxdata$?New@Pattern@@SAXAEBV?$FunctionCallbackInfo@VValue@v8@@@Nan@@@Z 000000018003c1e0     CanvasPattern.obj
 0002:0000b208       $cppxdata$?Initialize@Pattern@@SAXV?$Local@VObject@v8@@@v8@@@Z 000000018003c208     CanvasPattern.obj
 0002:0000b230       $cppxdata$??__F?constructor@Pattern@@2V?$Persistent@VFunctionTemplate@v8@@V?$NonCopyablePersistentTraits@VFunctionTemplate@v8@@@2@@Nan@@A@@YAXXZ 000000018003c230     CanvasPattern.obj
 0002:0000b258       $cppxdata$?GetLineDash@Context2d@@SAXAEBV?$FunctionCallbackInfo@VValue@v8@@@Nan@@@Z 000000018003c258     CanvasRenderingContext2d.obj
 0002:0000b280       $cppxdata$?SetLineDash@Context2d@@SAXAEBV?$FunctionCallbackInfo@VValue@v8@@@Nan@@@Z 000000018003c280     CanvasRenderingContext2d.obj
 0002:0000b2a8       $cppxdata$?MeasureText@Context2d@@SAXAEBV?$FunctionCallbackInfo@VValue@v8@@@Nan@@@Z 000000018003c2a8     CanvasRenderingContext2d.obj
 0002:0000b2d0       $cppxdata$?SetFont@Context2d@@SAXAEBV?$FunctionCallbackInfo@VValue@v8@@@Nan@@@Z 000000018003c2d0     CanvasRenderingContext2d.obj
 0002:0000b2f8       $cppxdata$?MoveTo@Context2d@@SAXAEBV?$FunctionCallbackInfo@VValue@v8@@@Nan@@@Z 000000018003c2f8     CanvasRenderingContext2d.obj
 0002:0000b320       $cppxdata$?LineTo@Context2d@@SAXAEBV?$FunctionCallbackInfo@VValue@v8@@@Nan@@@Z 000000018003c320     CanvasRenderingContext2d.obj
 0002:0000b348       $cppxdata$?StrokeText@Context2d@@SAXAEBV?$FunctionCallbackInfo@VValue@v8@@@Nan@@@Z 000000018003c348     CanvasRenderingContext2d.obj
 0002:0000b370       $cppxdata$?FillText@Context2d@@SAXAEBV?$FunctionCallbackInfo@VValue@v8@@@Nan@@@Z 000000018003c370     CanvasRenderingContext2d.obj
 0002:0000b398       $cppxdata$?SetStrokeColor@Context2d@@SAXAEBV?$FunctionCallbackInfo@VValue@v8@@@Nan@@@Z 000000018003c398     CanvasRenderingContext2d.obj
 0002:0000b3c0       $cppxdata$?SetFillColor@Context2d@@SAXAEBV?$FunctionCallbackInfo@VValue@v8@@@Nan@@@Z 000000018003c3c0     CanvasRenderingContext2d.obj
 0002:0000b3e8       $cppxdata$?SetShadowColor@Context2d@@SAXV?$Local@VString@v8@@@v8@@V?$Local@VValue@v8@@@3@AEBV?$PropertyCallbackInfo@X@Nan@@@Z 000000018003c3e8     CanvasRenderingContext2d.obj
 0002:0000b410       $cppxdata$?SetStrokePattern@Context2d@@SAXAEBV?$FunctionCallbackInfo@VValue@v8@@@Nan@@@Z 000000018003c410     CanvasRenderingContext2d.obj
 0002:0000b438       $cppxdata$?SetFillPattern@Context2d@@SAXAEBV?$FunctionCallbackInfo@VValue@v8@@@Nan@@@Z 000000018003c438     CanvasRenderingContext2d.obj
 0002:0000b460       $cppxdata$?SetFilter@Context2d@@SAXV?$Local@VString@v8@@@v8@@V?$Local@VValue@v8@@@3@AEBV?$PropertyCallbackInfo@X@Nan@@@Z 000000018003c460     CanvasRenderingContext2d.obj
 0002:0000b488       $cppxdata$?SetTextDrawingMode@Context2d@@SAXV?$Local@VString@v8@@@v8@@V?$Local@VValue@v8@@@3@AEBV?$PropertyCallbackInfo@X@Nan@@@Z 000000018003c488     CanvasRenderingContext2d.obj
 0002:0000b4b0       $cppxdata$?SetAntiAlias@Context2d@@SAXV?$Local@VString@v8@@@v8@@V?$Local@VValue@v8@@@3@AEBV?$PropertyCallbackInfo@X@Nan@@@Z 000000018003c4b0     CanvasRenderingContext2d.obj
 0002:0000b4d8       $cppxdata$?DrawImage@Context2d@@SAXAEBV?$FunctionCallbackInfo@VValue@v8@@@Nan@@@Z 000000018003c4d8     CanvasRenderingContext2d.obj
 0002:0000b500       $cppxdata$?GetImageData@Context2d@@SAXAEBV?$FunctionCallbackInfo@VValue@v8@@@Nan@@@Z 000000018003c500     CanvasRenderingContext2d.obj
 0002:0000b528       $cppxdata$?PutImageData@Context2d@@SAXAEBV?$FunctionCallbackInfo@VValue@v8@@@Nan@@@Z 000000018003c528     CanvasRenderingContext2d.obj
 0002:0000b550       $cppxdata$?AddPage@Context2d@@SAXAEBV?$FunctionCallbackInfo@VValue@v8@@@Nan@@@Z 000000018003c550     CanvasRenderingContext2d.obj
 0002:0000b578       $cppxdata$?New@Context2d@@SAXAEBV?$FunctionCallbackInfo@VValue@v8@@@Nan@@@Z 000000018003c578     CanvasRenderingContext2d.obj
 0002:0000b5a0       $cppxdata$?Initialize@Context2d@@SAXV?$Local@VObject@v8@@@v8@@@Z 000000018003c5a0     CanvasRenderingContext2d.obj
 0002:0000b5c8       $cppxdata$??__F?constructor@Context2d@@2V?$Persistent@VFunctionTemplate@v8@@V?$NonCopyablePersistentTraits@VFunctionTemplate@v8@@@2@@Nan@@A@@YAXXZ 000000018003c5c8     CanvasRenderingContext2d.obj
 0002:0000b5f0       $cppxdata$?error@Image@@QEAAXV?$Local@VValue@v8@@@v8@@@Z 000000018003c5f0     Image.obj
 0002:0000b618       $cppxdata$?loaded@Image@@QEAAXXZ 000000018003c618     Image.obj
 0002:0000b640       $cppxdata$??1Image@@EEAA@XZ 000000018003c640     Image.obj
 0002:0000b668       $cppxdata$?SetOnerror@Image@@SAXV?$Local@VString@v8@@@v8@@V?$Local@VValue@v8@@@3@AEBV?$PropertyCallbackInfo@X@Nan@@@Z 000000018003c668     Image.obj
 0002:0000b690       $cppxdata$?SetOnload@Image@@SAXV?$Local@VString@v8@@@v8@@V?$Local@VValue@v8@@@3@AEBV?$PropertyCallbackInfo@X@Nan@@@Z 000000018003c690     Image.obj
 0002:0000b6b8       $cppxdata$?Initialize@Image@@SAXV?$Local@VObject@v8@@@v8@@@Z 000000018003c6b8     Image.obj
 0002:0000b6e0       $cppxdata$??__F?constructor@Image@@2V?$Persistent@VFunctionTemplate@v8@@V?$NonCopyablePersistentTraits@VFunctionTemplate@v8@@@2@@Nan@@A@@YAXXZ 000000018003c6e0     Image.obj
 0002:0000b708       $cppxdata$?GetFunction@Callback@Nan@@QEBA?AV?$Local@VFunction@v8@@@v8@@XZ 000000018003c708     Image.obj
 0002:0000b730       $cppxdata$?New@ImageData@@SAXAEBV?$FunctionCallbackInfo@VValue@v8@@@Nan@@@Z 000000018003c730     ImageData.obj
 0002:0000b758       $cppxdata$?Initialize@ImageData@@SAXV?$Local@VObject@v8@@@v8@@@Z 000000018003c758     ImageData.obj
 0002:0000b780       $cppxdata$??__F?constructor@ImageData@@2V?$Persistent@VFunctionTemplate@v8@@V?$NonCopyablePersistentTraits@VFunctionTemplate@v8@@@2@@Nan@@A@@YAXXZ 000000018003c780     ImageData.obj
 0002:0000b850       L_signbit                  000000018003c850     libucrt:tan.obj
 0002:0000b860       L_sign_mask                000000018003c860     libucrt:tan.obj
 0002:0000b870       L_int_one                  000000018003c870     libucrt:tan.obj
 0002:0000b880       L_twobypi                  000000018003c880     libucrt:tan.obj
 0002:0000b890       L_point_333                000000018003c890     libucrt:tan.obj
 0002:0000b8a0       L_tan_p0                   000000018003c8a0     libucrt:tan.obj
 0002:0000b8b0       L_tan_p2                   000000018003c8b0     libucrt:tan.obj
 0002:0000b8c0       L_tan_p4                   000000018003c8c0     libucrt:tan.obj
 0002:0000b8d0       L_tan_q0                   000000018003c8d0     libucrt:tan.obj
 0002:0000b8e0       L_tan_q2                   000000018003c8e0     libucrt:tan.obj
 0002:0000b8f0       L_tan_q4                   000000018003c8f0     libucrt:tan.obj
 0002:0000b900       L_tan_q6                   000000018003c900     libucrt:tan.obj
 0002:0000b910       L_half_mask                000000018003c910     libucrt:tan.obj
 0002:0000b920       L_piby4_lead               000000018003c920     libucrt:tan.obj
 0002:0000b930       L_piby4_tail               000000018003c930     libucrt:tan.obj
 0002:0000b940       L_piby2_1                  000000018003c940     libucrt:tan.obj
 0002:0000b948       L_piby2_1tail              000000018003c948     libucrt:tan.obj
 0002:0000b950       L_piby2_2                  000000018003c950     libucrt:tan.obj
 0002:0000b958       L_piby2_2tail              000000018003c958     libucrt:tan.obj
 0002:0000b960       L_piby2_3                  000000018003c960     libucrt:tan.obj
 0002:0000b968       L_piby2_3tail              000000018003c968     libucrt:tan.obj
 0002:0000b970       L_two_to_neg_27            000000018003c970     libucrt:tan.obj
 0002:0000b978       L_two_to_neg_13            000000018003c978     libucrt:tan.obj
 0002:0000b980       L_inf_mask_64              000000018003c980     libucrt:tan.obj
 0002:0000b988       L_point_five               000000018003c988     libucrt:tan.obj
 0002:0000b990       L_point_68                 000000018003c990     libucrt:tan.obj
 0002:0000b998       L_n_point_68               000000018003c998     libucrt:tan.obj
 0002:0000b9a0       L_zero                     000000018003c9a0     libucrt:tan.obj
 0002:0000b9a8       L_one                      000000018003c9a8     libucrt:tan.obj
 0002:0000b9b0       L_n_one                    000000018003c9b0     libucrt:tan.obj
 0002:0000b9b8       L_two                      000000018003c9b8     libucrt:tan.obj
 0002:0000b9c0       L_near_one                 000000018003c9c0     libucrt:tan.obj
 0002:0000b9c8       L_moderate_arg_cw          000000018003c9c8     libucrt:tan.obj
 0002:0000b9d0       L_moderate_arg_bdl         000000018003c9d0     libucrt:tan.obj
 0002:0000b9e0       L_piby2_lead               000000018003c9e0     libucrt:remainder_piby2_forfma3.obj
 0002:0000b9f0       L_fff800                   000000018003c9f0     libucrt:remainder_piby2_forfma3.obj
 0002:0000ba00       L_piby2_part1              000000018003ca00     libucrt:remainder_piby2_forfma3.obj
 0002:0000ba10       L_piby2_part2              000000018003ca10     libucrt:remainder_piby2_forfma3.obj
 0002:0000ba20       L_piby2_part3              000000018003ca20     libucrt:remainder_piby2_forfma3.obj
 0002:0000ba30       L_piby2_1                  000000018003ca30     libucrt:remainder_piby2_forfma3.obj
 0002:0000ba40       L_piby2_2                  000000018003ca40     libucrt:remainder_piby2_forfma3.obj
 0002:0000ba50       L_piby2_3                  000000018003ca50     libucrt:remainder_piby2_forfma3.obj
 0002:0000ba60       L_piby2_1tail              000000018003ca60     libucrt:remainder_piby2_forfma3.obj
 0002:0000ba70       L_piby2_2tail              000000018003ca70     libucrt:remainder_piby2_forfma3.obj
 0002:0000ba80       L_piby2_3tail              000000018003ca80     libucrt:remainder_piby2_forfma3.obj
 0002:0000ba90       L_sign_mask                000000018003ca90     libucrt:remainder_piby2_forfma3.obj
 0002:0000baa0       L_twobypi                  000000018003caa0     libucrt:remainder_piby2_forfma3.obj
 0002:0000bab0       L_point_five               000000018003cab0     libucrt:remainder_piby2_forfma3.obj
 0002:0000bac0       L_int_three                000000018003cac0     libucrt:remainder_piby2_forfma3.obj
 0002:0000bad0       L_inf_mask_64              000000018003cad0     libucrt:remainder_piby2_forfma3.obj
 0002:0000bae0       L_signbit                  000000018003cae0     libucrt:remainder_piby2_forfma3.obj
 0002:0000baf0       L_r                        000000018003caf0     libucrt:remainder_piby2_forfma3.obj
 0002:0000bb00       L_xc1                      000000018003cb00     libucrt:remainder_piby2_forfma3.obj
 0002:0000bb10       L_xc2                      000000018003cb10     libucrt:remainder_piby2_forfma3.obj
 0002:0000bb20       L_xc3                      000000018003cb20     libucrt:remainder_piby2_forfma3.obj
 0002:0000bb30       L_sigma                    000000018003cb30     libucrt:remainder_piby2_forfma3.obj
 0002:0000bb40       L__piby2_part3_piby2_lead  000000018003cb40     libucrt:remainder_piby2_forasm.obj
 0002:0000bb50       L__piby2_part1             000000018003cb50     libucrt:remainder_piby2_forasm.obj
 0002:0000bb60       L__piby2_part2             000000018003cb60     libucrt:remainder_piby2_forasm.obj
 0002:0000bb70       L_piby2_1                  000000018003cb70     libucrt:remainder_piby2_forasm.obj
 0002:0000bb80       L_piby2_2                  000000018003cb80     libucrt:remainder_piby2_forasm.obj
 0002:0000bb90       L_piby2_3                  000000018003cb90     libucrt:remainder_piby2_forasm.obj
 0002:0000bba0       L_piby2_1tail              000000018003cba0     libucrt:remainder_piby2_forasm.obj
 0002:0000bbb0       L_piby2_2tail              000000018003cbb0     libucrt:remainder_piby2_forasm.obj
 0002:0000bbc0       L_piby2_3tail              000000018003cbc0     libucrt:remainder_piby2_forasm.obj
 0002:0000bbd0       L_twobypi                  000000018003cbd0     libucrt:remainder_piby2_forasm.obj
 0002:0000bbe0       L_point_five               000000018003cbe0     libucrt:remainder_piby2_forasm.obj
 0002:0000bbf0       L_int_three                000000018003cbf0     libucrt:remainder_piby2_forasm.obj
 0002:0000bc00       L_inf_mask_64              000000018003cc00     libucrt:remainder_piby2_forasm.obj
 0002:0000bc10       L_signbit                  000000018003cc10     libucrt:remainder_piby2_forasm.obj
 0002:0000bc20       L_int_1                    000000018003cc20     libucrt:remainder_piby2_forasm.obj
 0002:0000bc30       L_int_15                   000000018003cc30     libucrt:remainder_piby2_forasm.obj
 0002:0000bc38       L_int_48                   000000018003cc38     libucrt:remainder_piby2_forasm.obj
 0002:0000bc40       L_3pio4                    000000018003cc40     libucrt:remainder_piby2_forasm.obj
 0002:0000bc48       L_5pio4                    000000018003cc48     libucrt:remainder_piby2_forasm.obj
 0002:0000bc50       L_7pio4                    000000018003cc50     libucrt:remainder_piby2_forasm.obj
 0002:0000bc58       L_9pio4                    000000018003cc58     libucrt:remainder_piby2_forasm.obj
 0002:0000bc60       L__2_by_pi_bits            000000018003cc60     libucrt:remainder_piby2_forasm.obj
 0002:0000c188       ?_TlgEvent@?3??__telemetry_main_invoke_trigger@@9@4U<unnamed-type-_TlgEvent>@?3??1@9@B 000000018003d188     libvcruntime:telemetry.obj
 0002:0000c1c4       ?_TlgEvent@?3??__telemetry_main_return_trigger@@9@4U<unnamed-type-_TlgEvent>@?3??1@9@B 000000018003d1c4     libvcruntime:telemetry.obj
 0002:0000c1ff       ?_Tlg_Microsoft_CRTProviderProv_Meta@@3U<unnamed-type-_Tlg_Microsoft_CRTProviderProv_Meta>@@B 000000018003d1ff     libvcruntime:telemetry.obj
 0002:0000c6e0       $unwind$??_EExternalSourceStream@ScriptCompiler@v8@@UEAAPEAXI@Z 000000018003d6e0     Canvas.obj
 0002:0000c6f8       $ip2state$??_EExternalSourceStream@ScriptCompiler@v8@@UEAAPEAXI@Z 000000018003d6f8     Canvas.obj
 0002:0000c700       $unwind$??_EExternalStringResourceBase@String@v8@@UEAAPEAXI@Z 000000018003d700     Canvas.obj
 0002:0000c700       $unwind$??_EExternalStringResource@String@v8@@UEAAPEAXI@Z 000000018003d700     Canvas.obj
 0002:0000c700       $unwind$??_EExternalOneByteStringResource@String@v8@@UEAAPEAXI@Z 000000018003d700     Canvas.obj
 0002:0000c718       $ip2state$??_EExternalStringResourceBase@String@v8@@UEAAPEAXI@Z 000000018003d718     Canvas.obj
 0002:0000c718       $ip2state$??_EExternalOneByteStringResource@String@v8@@UEAAPEAXI@Z 000000018003d718     Canvas.obj
 0002:0000c718       $ip2state$??_EExternalStringResource@String@v8@@UEAAPEAXI@Z 000000018003d718     Canvas.obj
 0002:0000c720       $unwind$??$common_xtox_s@K_W@@YAHKQEA_W_KI_N@Z 000000018003d720     libucrt:xtoa.obj
 0002:0000c720       $unwind$wcstol             000000018003d720     libucrt:strtox.obj
 0002:0000c720       $unwind$strtol             000000018003d720     libucrt:strtox.obj
 0002:0000c720       $unwind$??0length_error@std@@QEAA@PEBD@Z 000000018003d720     libcpmt:xthrow.obj
 0002:0000c720       $unwind$?NewInstance@Function@v8@@QEBA?AV?$MaybeLocal@VObject@v8@@@2@V?$Local@VContext@v8@@@2@@Z 000000018003d720     Canvas.obj
 0002:0000c728       $unwind$??_EAllocator@ArrayBuffer@v8@@UEAAPEAXI@Z 000000018003d728     Canvas.obj
 0002:0000c740       $ip2state$??_EAllocator@ArrayBuffer@v8@@UEAAPEAXI@Z 000000018003d740     Canvas.obj
 0002:0000c748       $unwind$?SetIndexedPropertyHandler@ObjectTemplate@v8@@QEAAXP6AXIAEBV?$PropertyCallbackInfo@VValue@v8@@@2@@ZP6AXIV?$Local@VValue@v8@@@2@0@ZP6AXIAEBV?$PropertyCallbackInfo@VInteger@v8@@@2@@ZP6AXIAEBV?$PropertyCallbackInfo@VBoolean@v8@@@2@@ZP6AXAEBV?$PropertyCallbackInfo@VArray@v8@@@2@@Z2@Z 000000018003d748     Canvas.obj
 0002:0000c750       $unwind$??_EExternalOneByteStringResourceImpl@v8@@UEAAPEAXI@Z 000000018003d750     Canvas.obj
 0002:0000c768       $ip2state$??_EExternalOneByteStringResourceImpl@v8@@UEAAPEAXI@Z 000000018003d768     Canvas.obj
 0002:0000c770       $unwind$??_EExtension@v8@@UEAAPEAXI@Z 000000018003d770     Canvas.obj
 0002:0000c788       $ip2state$??_EExtension@v8@@UEAAPEAXI@Z 000000018003d788     Canvas.obj
 0002:0000c790       $unwind$??_EPersistentHandleVisitor@v8@@UEAAPEAXI@Z 000000018003d790     Canvas.obj
 0002:0000c790       $unwind$??_EExternalResourceVisitor@v8@@UEAAPEAXI@Z 000000018003d790     Canvas.obj
 0002:0000c7a8       $ip2state$??_EPersistentHandleVisitor@v8@@UEAAPEAXI@Z 000000018003d7a8     Canvas.obj
 0002:0000c7a8       $ip2state$??_EExternalResourceVisitor@v8@@UEAAPEAXI@Z 000000018003d7a8     Canvas.obj
 0002:0000c7b0       $unwind$?SetTextAlignment@Context2d@@SAXAEBV?$FunctionCallbackInfo@VValue@v8@@@Nan@@@Z 000000018003d7b0     CanvasRenderingContext2d.obj
 0002:0000c7b0       $unwind$??0length_error@std@@QEAA@AEBV01@@Z 000000018003d7b0     libcpmt:xthrow.obj
 0002:0000c7b0       $unwind$?SetTextBaseline@Context2d@@SAXAEBV?$FunctionCallbackInfo@VValue@v8@@@Nan@@@Z 000000018003d7b0     CanvasRenderingContext2d.obj
 0002:0000c7b0       $unwind$?RemoveMemoryAllocationCallback@V8@v8@@SAXP6AXW4ObjectSpace@2@W4AllocationAction@2@H@Z@Z 000000018003d7b0     Canvas.obj
 0002:0000c7b0       $unwind$uninitialize_allocated_memory 000000018003d7b0     libucrt:initialization.obj
 0002:0000c7b0       $unwind$__acrt_update_locale_info 000000018003d7b0     libucrt:locale_update.obj
 0002:0000c7b0       $unwind$??0logic_error@std@@QEAA@AEBV01@@Z 000000018003d7b0     libcpmt:xthrow.obj
 0002:0000c7b0       $unwind$__raise_securityfailure 000000018003d7b0     LIBCMT:gs_report.obj
 0002:0000c7b0       $unwind$fegetenv           000000018003d7b0     libucrt:fegetenv.obj
 0002:0000c7b0       $unwind$wcscpy_s           000000018003d7b0     libucrt:wcscpy_s.obj
 0002:0000c7b0       $unwind$?type_case_integer@?$output_processor@_WV?$string_output_adapter@_W@__crt_stdio_output@@V?$standard_base@_WV?$string_output_adapter@_W@__crt_stdio_output@@@2@@__crt_stdio_output@@AEAA_NI_N@Z 000000018003d7b0     libucrt:output.obj
 0002:0000c7b0       $unwind$??_Gtype_info@@UEAAPEAXI@Z 000000018003d7b0     LIBCMT:std_type_info_static.obj
 0002:0000c7b0       $unwind$??2@YAPEAX_K@Z     000000018003d7b0     LIBCMT:new_scalar.obj
 0002:0000c7b0       $unwind$_calloc_base       000000018003d7b0     libucrt:calloc_base.obj
 0002:0000c7b0       $unwind$??0Unlocker@v8@@QEAA@PEAVIsolate@1@@Z 000000018003d7b0     Canvas.obj
 0002:0000c7b0       $unwind$??0bad_array_new_length@std@@QEAA@AEBV01@@Z 000000018003d7b0     LIBCMT:throw_bad_alloc.obj
 0002:0000c7b0       $unwind$initialize_pointers 000000018003d7b0     libucrt:initialization.obj
 0002:0000c7b0       $unwind$wcscat_s           000000018003d7b0     libucrt:wcscat_s.obj
 0002:0000c7b0       $unwind$?rgba_from_hex_string@@YAHPEBDPEAF@Z 000000018003d7b0     color.obj
 0002:0000c7b0       $unwind$__acrt_fp_strflt_to_string 000000018003d7b0     libucrt:_fptostr.obj
 0002:0000c7b0       $unwind$_malloc_base       000000018003d7b0     libucrt:malloc_base.obj
 0002:0000c7b0       $unwind$??0Locker@v8@@QEAA@PEAVIsolate@1@@Z 000000018003d7b0     Canvas.obj
 0002:0000c7b0       $unwind$?VisitExternalResources@V8@v8@@SAXPEAVExternalResourceVisitor@2@@Z 000000018003d7b0     Canvas.obj
 0002:0000c7b0       $unwind$?GetInternalField@Object@v8@@QEAA?AV?$Local@VValue@v8@@@2@H@Z 000000018003d7b0     Canvas.obj
 0002:0000c7b0       $unwind$__acrt_update_multibyte_info 000000018003d7b0     libucrt:locale_update.obj
 0002:0000c7b0       $unwind$?Ref@ObjectWrap@Nan@@MEAAXXZ 000000018003d7b0     Canvas.obj
 0002:0000c7b0       $unwind$??0Scope@Isolate@v8@@QEAA@PEAV12@@Z 000000018003d7b0     Canvas.obj
 0002:0000c7b0       $unwind$?GetEmbedderData@Context@v8@@QEAA?AV?$Local@VValue@v8@@@2@H@Z 000000018003d7b0     Canvas.obj
 0002:0000c7b0       $unwind$?Fill@Context2d@@SAXAEBV?$FunctionCallbackInfo@VValue@v8@@@Nan@@@Z 000000018003d7b0     CanvasRenderingContext2d.obj
 0002:0000c7b0       $unwind$_onexit            000000018003d7b0     LIBCMT:utility.obj
 0002:0000c7b0       $unwind$__acrt_uninitialize_locks 000000018003d7b0     libucrt:locks.obj
 0002:0000c7b0       $unwind$??0bad_alloc@std@@QEAA@AEBV01@@Z 000000018003d7b0     libcpmt:xthrow.obj
 0002:0000c7b0       $unwind$?SetAllowCodeGenerationFromStringsCallback@V8@v8@@SAXP6A_NV?$Local@VContext@v8@@@2@@Z@Z 000000018003d7b0     Canvas.obj
 0002:0000c7b0       $unwind$__acrt_initialize_locks 000000018003d7b0     libucrt:locks.obj
 0002:0000c7b0       $unwind$??0exception@std@@QEAA@AEBV01@@Z 000000018003d7b0     libcpmt:xthrow.obj
 0002:0000c7b0       $unwind$load_exe_hook      000000018003d7b0     win_delay_load_hook.obj
 0002:0000c7b0       $unwind$__scrt_release_startup_lock 000000018003d7b0     LIBCMT:utility.obj
 0002:0000c7b0       $unwind$?Clip@Context2d@@SAXAEBV?$FunctionCallbackInfo@VValue@v8@@@Nan@@@Z 000000018003d7b0     CanvasRenderingContext2d.obj
 0002:0000c7b0       $unwind$?New@Image@@SAXAEBV?$FunctionCallbackInfo@VValue@v8@@@Nan@@@Z 000000018003d7b0     Image.obj
 0002:0000c7b0       $unwind$__acrt_can_show_message_box 000000018003d7b0     libucrt:winapi_thunks.obj
 0002:0000c7b0       $unwind$__acrt_AreFileApisANSI 000000018003d7b0     libucrt:winapi_thunks.obj
 0002:0000c7b0       $unwind$?RemoveGCPrologueCallback@V8@v8@@SAXP6AXW4GCType@2@W4GCCallbackFlags@2@@Z@Z 000000018003d7b0     Canvas.obj
 0002:0000c7b0       $unwind$?ResetTransform@Context2d@@SAXAEBV?$FunctionCallbackInfo@VValue@v8@@@Nan@@@Z 000000018003d7b0     CanvasRenderingContext2d.obj
 0002:0000c7b0       $unwind$?savePath@Context2d@@QEAAXXZ 000000018003d7b0     CanvasRenderingContext2d.obj
 0002:0000c7b0       $unwind$__acrt_uninitialize_winapi_thunks 000000018003d7b0     libucrt:winapi_thunks.obj
 0002:0000c7b0       $unwind$?restorePath@Context2d@@QEAAXXZ 000000018003d7b0     CanvasRenderingContext2d.obj
 0002:0000c7b0       $unwind$?ClosePath@Context2d@@SAXAEBV?$FunctionCallbackInfo@VValue@v8@@@Nan@@@Z 000000018003d7b0     CanvasRenderingContext2d.obj
 0002:0000c7b0       $unwind$?BeginPath@Context2d@@SAXAEBV?$FunctionCallbackInfo@VValue@v8@@@Nan@@@Z 000000018003d7b0     CanvasRenderingContext2d.obj
 0002:0000c7b0       $unwind$strcpy_s           000000018003d7b0     libucrt:strcpy_s.obj
 0002:0000c7b0       $unwind$?Save@Context2d@@SAXAEBV?$FunctionCallbackInfo@VValue@v8@@@Nan@@@Z 000000018003d7b0     CanvasRenderingContext2d.obj
 0002:0000c7b0       $unwind$?WeakCallback@ObjectWrap@Nan@@CAXAEBV?$WeakCallbackInfo@VObjectWrap@Nan@@@v8@@@Z 000000018003d7b0     Canvas.obj
 0002:0000c7b0       $unwind$?RemoveMessageListeners@V8@v8@@SAXP6AXV?$Local@VMessage@v8@@@2@V?$Local@VValue@v8@@@2@@Z@Z 000000018003d7b0     Canvas.obj
 0002:0000c7b0       $unwind$?SetFatalErrorHandler@V8@v8@@SAXP6AXPEBD0@Z@Z 000000018003d7b0     Canvas.obj
 0002:0000c7b0       $unwind$__acrt_freeptd     000000018003d7b0     libucrt:per_thread_data.obj
 0002:0000c7b0       $unwind$__acrt_uninitialize_stdio 000000018003d7b0     libucrt:_file.obj
 0002:0000c7b0       $unwind$?_Tidy@?$vector@NV?$allocator@N@std@@@std@@IEAAXXZ 000000018003d7b0     CanvasRenderingContext2d.obj
 0002:0000c7b0       $unwind$??0?$output_processor@DV?$string_output_adapter@D@__crt_stdio_output@@V?$standard_base@DV?$string_output_adapter@D@__crt_stdio_output@@@2@@__crt_stdio_output@@QEAA@AEBV?$string_output_adapter@D@1@_KQEBDQEAU__crt_locale_pointers@@QEAD@Z 000000018003d7b0     libucrt:output.obj
 0002:0000c7b0       $unwind$__scrt_initialize_crt 000000018003d7b0     LIBCMT:utility.obj
 0002:0000c7b0       $unwind$__scrt_uninitialize_crt 000000018003d7b0     LIBCMT:utility.obj
 0002:0000c7b0       $unwind$_fflush_nolock     000000018003d7b0     libucrt:fflush.obj
 0002:0000c7b0       $unwind$??0?$output_processor@_WV?$string_output_adapter@_W@__crt_stdio_output@@V?$standard_base@_WV?$string_output_adapter@_W@__crt_stdio_output@@@2@@__crt_stdio_output@@QEAA@AEBV?$string_output_adapter@_W@1@_KQEB_WQEAU__crt_locale_pointers@@QEAD@Z 000000018003d7b0     libucrt:output.obj
 0002:0000c7b0       $unwind$_setfpstatusword   000000018003d7b0     libucrt:_fenvutils.obj
 0002:0000c7b0       $unwind$feholdexcept       000000018003d7b0     libucrt:feholdexcept.obj
 0002:0000c7b0       $unwind$?DloadReleaseSectionWriteAccess@@YAXXZ 000000018003d7b0     DelayImp:delayhlp.obj
 0002:0000c7b0       $unwind$??0bad_exception@std@@QEAA@AEBV01@@Z 000000018003d7b0     libvcruntime:frame.obj
 0002:0000c7b0       $unwind$__std_exception_destroy 000000018003d7b0     libvcruntime:std_exception.obj
 0002:0000c7b0       $unwind$?Unref@ObjectWrap@Nan@@MEAAXXZ 000000018003d7b0     Canvas.obj
 0002:0000c7b0       $unwind$__std_type_info_destroy_list 000000018003d7b0     libvcruntime:std_type_info.obj
 0002:0000c7b0       $unwind$__vcrt_uninitialize 000000018003d7b0     libvcruntime:initialization.obj
 0002:0000c7b0       $unwind$__vcrt_initialize_locks 000000018003d7b0     libvcruntime:locks.obj
 0002:0000c7b0       $unwind$__vcrt_uninitialize_locks 000000018003d7b0     libvcruntime:locks.obj
 0002:0000c7b0       $unwind$__vcrt_freeptd     000000018003d7b0     libvcruntime:per_thread_data.obj
 0002:0000c7b0       $unwind$??$message_box_wait_thread@_W@@YAKQEAX@Z 000000018003d7b0     libucrt:crtmbox.obj
 0002:0000c7b0       $unwind$?type_case_integer@?$output_processor@_WV?$stream_output_adapter@_W@__crt_stdio_output@@V?$standard_base@_WV?$stream_output_adapter@_W@__crt_stdio_output@@@2@@__crt_stdio_output@@AEAA_NI_N@Z 000000018003d7b0     libucrt:output.obj
 0002:0000c7b0       $unwind$?type_case_integer@?$output_processor@DV?$string_output_adapter@D@__crt_stdio_output@@V?$standard_base@DV?$string_output_adapter@D@__crt_stdio_output@@@2@@__crt_stdio_output@@AEAA_NI_N@Z 000000018003d7b0     libucrt:output.obj
 0002:0000c7b0       $unwind$__acrt_stdio_allocate_buffer_nolock 000000018003d7b0     libucrt:_getbuf.obj
 0002:0000c7b0       $unwind$?state_case_normal@?$output_processor@DV?$string_output_adapter@D@__crt_stdio_output@@V?$standard_base@DV?$string_output_adapter@D@__crt_stdio_output@@@2@@__crt_stdio_output@@AEAA_NXZ 000000018003d7b0     libucrt:output.obj
 0002:0000c7b0       $unwind$??0?$output_processor@_WV?$stream_output_adapter@_W@__crt_stdio_output@@V?$standard_base@_WV?$stream_output_adapter@_W@__crt_stdio_output@@@2@@__crt_stdio_output@@QEAA@AEBV?$stream_output_adapter@_W@1@_KQEB_WQEAU__crt_locale_pointers@@QEAD@Z 000000018003d7b0     libucrt:output.obj
 0002:0000c7b0       $unwind$_purecall          000000018003d7b0     libvcruntime:purevirt.obj
 0002:0000c7b0       $unwind$?VisitHandlesWithClassIds@V8@v8@@SAXPEAVPersistentHandleVisitor@2@@Z 000000018003d7b0     Canvas.obj
 0002:0000c7b0       $unwind$?SetFailedAccessCheckCallbackFunction@V8@v8@@SAXP6AXV?$Local@VObject@v8@@@2@W4AccessType@2@V?$Local@VValue@v8@@@2@@Z@Z 000000018003d7b0     Canvas.obj
 0002:0000c7b0       $unwind$?Stroke@Context2d@@SAXAEBV?$FunctionCallbackInfo@VValue@v8@@@Nan@@@Z 000000018003d7b0     CanvasRenderingContext2d.obj
 0002:0000c7b0       $unwind$?RemoveGCEpilogueCallback@V8@v8@@SAXP6AXW4GCType@2@W4GCCallbackFlags@2@@Z@Z 000000018003d7b0     Canvas.obj
 0002:0000c7b0       $unwind$?closure_destroy@@YAXPEAUclosure_t@@@Z 000000018003d7b0     Canvas.obj
 0002:0000c7b0       $unwind$fesetenv           000000018003d7b0     libucrt:fesetenv.obj
 0002:0000c7b0       $unwind$?__GetUnwindTryBlock@@YAHPEA_KPEAU_xDISPATCHER_CONTEXT@@PEBU_s_FuncInfo@@@Z 000000018003d7b0     libvcruntime:ehstate.obj
 0002:0000c7b0       $unwind$?__StateFromIp@@YAHPEBU_s_FuncInfo@@PEAU_xDISPATCHER_CONTEXT@@_J@Z 000000018003d7b0     libvcruntime:ehstate.obj
 0002:0000c7b0       $unwind$_SetImageBase      000000018003d7b0     libvcruntime:trnsctrl.obj
 0002:0000c7b0       $unwind$?exit_or_terminate_process@@YAXI@Z 000000018003d7b0     libucrt:exit.obj
 0002:0000c7b0       $unwind$_set_statfp        000000018003d7b0     libucrt:fpctrl.obj
 0002:0000c7b0       $unwind$_SetThrowImageBase 000000018003d7b0     libvcruntime:trnsctrl.obj
 0002:0000c7b0       $unwind$_CreateFrameInfo   000000018003d7b0     libvcruntime:trnsctrl.obj
 0002:0000c7b0       $unwind$_IsExceptionObjectToBeDestroyed 000000018003d7b0     libvcruntime:trnsctrl.obj
 0002:0000c7b0       $unwind$__acrt_stdio_free_buffer_nolock 000000018003d7b0     libucrt:_freebuf.obj
 0002:0000c7b0       $unwind$_clrfp             000000018003d7b0     libucrt:fpctrl.obj
 0002:0000c7b0       $unwind$_clearfp           000000018003d7b0     libucrt:ieee.obj
 0002:0000c7b8       $unwind$??1Scope@Isolate@v8@@QEAA@XZ 000000018003d7b8     Canvas.obj
 0002:0000c7c8       $ip2state$??1Scope@Isolate@v8@@QEAA@XZ 000000018003d7c8     Canvas.obj
 0002:0000c7d0       $unwind$?Set@Template@v8@@QEAAXPEAVIsolate@2@PEBDV?$Local@VData@v8@@@2@@Z 000000018003d7d0     Canvas.obj
 0002:0000c7dc       $unwind$?ToUint32@Value@v8@@QEBA?AV?$Local@VUint32@v8@@@2@XZ 000000018003d7dc     Canvas.obj
 0002:0000c7dc       $unwind$?ToInt32@Value@v8@@QEBA?AV?$Local@VInt32@v8@@@2@XZ 000000018003d7dc     Canvas.obj
 0002:0000c7dc       $unwind$_updatetlocinfoEx_nolock 000000018003d7dc     libucrt:locale_refcounting.obj
 0002:0000c7dc       $unwind$??_GImageData@@UEAAPEAXI@Z 000000018003d7dc     ImageData.obj
 0002:0000c7dc       $unwind$?AdjustAmountOfExternalAllocatedMemory@Isolate@v8@@QEAA_J_J@Z 000000018003d7dc     Canvas.obj
 0002:0000c7dc       $unwind$?internal_isupper_l@@YA_NHQEAU__crt_locale_pointers@@@Z 000000018003d7dc     libucrt:tolower_toupper.obj
 0002:0000c7dc       $unwind$_FindAndUnlinkFrame 000000018003d7dc     libvcruntime:trnsctrl.obj
 0002:0000c7dc       $unwind$??_GCanvas@@EEAAPEAXI@Z 000000018003d7dc     Canvas.obj
 0002:0000c7dc       $unwind$??_GPattern@@EEAAPEAXI@Z 000000018003d7dc     CanvasPattern.obj
 0002:0000c7dc       $unwind$?readPNG@Image@@SA?AW4_cairo_status@@PEAXPEAEI@Z 000000018003d7dc     Image.obj
 0002:0000c7dc       $unwind$_fclose_nolock     000000018003d7dc     libucrt:fclose.obj
 0002:0000c7dc       $unwind$?ToInteger@Value@v8@@QEBA?AV?$Local@VInteger@v8@@@2@XZ 000000018003d7dc     Canvas.obj
 0002:0000c7dc       $unwind$?GetOnload@Image@@SAXV?$Local@VString@v8@@@v8@@AEBV?$PropertyCallbackInfo@VValue@v8@@@Nan@@@Z 000000018003d7dc     Image.obj
 0002:0000c7dc       $unwind$?try_cor_exit_process@@YAXI@Z 000000018003d7dc     libucrt:exit.obj
 0002:0000c7dc       $unwind$?ToObject@Value@v8@@QEBA?AV?$Local@VObject@v8@@@2@XZ 000000018003d7dc     Canvas.obj
 0002:0000c7dc       $unwind$?Rotate@Context2d@@SAXAEBV?$FunctionCallbackInfo@VValue@v8@@@Nan@@@Z 000000018003d7dc     CanvasRenderingContext2d.obj
 0002:0000c7dc       $unwind$?GetOnerror@Image@@SAXV?$Local@VString@v8@@@v8@@AEBV?$PropertyCallbackInfo@VValue@v8@@@Nan@@@Z 000000018003d7dc     Image.obj
 0002:0000c7dc       $unwind$__acrt_stdio_begin_temporary_buffering_nolock 000000018003d7dc     libucrt:_sftbuf.obj
 0002:0000c7dc       $unwind$??_Glogic_error@std@@UEAAPEAXI@Z 000000018003d7dc     libcpmt:xthrow.obj
 0002:0000c7dc       $unwind$?rgba_from_string@@YAHPEBDPEAF@Z 000000018003d7dc     color.obj
 0002:0000c7dc       $unwind$__acrt_uninitialize_lowio 000000018003d7dc     libucrt:ioinit.obj
 0002:0000c7dc       $unwind$?__SetUnwindTryBlock@@YAXPEA_KPEAU_xDISPATCHER_CONTEXT@@PEBU_s_FuncInfo@@H@Z 000000018003d7dc     libvcruntime:ehstate.obj
 0002:0000c7dc       $unwind$?ToBoolean@Value@v8@@QEBA?AV?$Local@VBoolean@v8@@@2@XZ 000000018003d7dc     Canvas.obj
 0002:0000c7dc       $unwind$??0_LocaleUpdate@@QEAA@QEAU__crt_locale_pointers@@@Z 000000018003d7dc     libucrt:output.obj
 0002:0000c7dc       $unwind$?SetShadowBlur@Context2d@@SAXV?$Local@VString@v8@@@v8@@V?$Local@VValue@v8@@@3@AEBV?$PropertyCallbackInfo@X@Nan@@@Z 000000018003d7dc     CanvasRenderingContext2d.obj
 0002:0000c7dc       $unwind$__acrt_FlsAlloc    000000018003d7dc     libucrt:winapi_thunks.obj
 0002:0000c7dc       $unwind$longjmp            000000018003d7dc     libvcruntime:longjmpc.obj
 0002:0000c7dc       $unwind$__acrt_getptd      000000018003d7dc     libucrt:per_thread_data.obj
 0002:0000c7dc       $unwind$??_Gbad_alloc@std@@UEAAPEAXI@Z 000000018003d7dc     libcpmt:xthrow.obj
 0002:0000c7dc       $unwind$?type_case_c_tchar@?$output_processor@DV?$string_output_adapter@D@__crt_stdio_output@@V?$standard_base@DV?$string_output_adapter@D@__crt_stdio_output@@@2@@__crt_stdio_output@@AEAA_ND@Z 000000018003d7dc     libucrt:output.obj
 0002:0000c7dc       $unwind$??_Glength_error@std@@UEAAPEAXI@Z 000000018003d7dc     libcpmt:xthrow.obj
 0002:0000c7dc       $unwind$_callnewh          000000018003d7dc     libucrt:new_handler.obj
 0002:0000c7dc       $unwind$??_GImage@@EEAAPEAXI@Z 000000018003d7dc     Image.obj
 0002:0000c7dc       $unwind$??_Gexception@std@@UEAAPEAXI@Z 000000018003d7dc     libcpmt:xthrow.obj
 0002:0000c7dc       $unwind$__acrt_get_parent_window 000000018003d7dc     libucrt:winapi_thunks.obj
 0002:0000c7dc       $unwind$?DloadAcquireSectionWriteAccess@@YAXXZ 000000018003d7dc     DelayImp:delayhlp.obj
 0002:0000c7dc       $unwind$?force_decimal_point@__crt_stdio_output@@YAXPEADQEAU__crt_locale_pointers@@@Z 000000018003d7dc     libucrt:output.obj
 0002:0000c7dc       $unwind$?ToDetailString@Value@v8@@QEBA?AV?$Local@VString@v8@@@2@XZ 000000018003d7dc     Canvas.obj
 0002:0000c7dc       $unwind$?ToString@Value@v8@@QEBA?AV?$Local@VString@v8@@@2@XZ 000000018003d7dc     Canvas.obj
 0002:0000c7dc       $unwind$?ToNumber@Value@v8@@QEBA?AV?$Local@VNumber@v8@@@2@XZ 000000018003d7dc     Canvas.obj
 0002:0000c7dc       $unwind$??0Context2d@@QEAA@PEAVCanvas@@@Z 000000018003d7dc     CanvasRenderingContext2d.obj
 0002:0000c7dc       $unwind$??_Gbad_exception@std@@UEAAPEAXI@Z 000000018003d7dc     libvcruntime:frame.obj
 0002:0000c7dc       $unwind$_realloc_base      000000018003d7dc     libucrt:realloc_base.obj
 0002:0000c7dc       $unwind$??_GObjectWrap@Nan@@UEAAPEAXI@Z 000000018003d7dc     Canvas.obj
 0002:0000c7dc       $unwind$?GetComplete@Image@@SAXV?$Local@VString@v8@@@v8@@AEBV?$PropertyCallbackInfo@VValue@v8@@@Nan@@@Z 000000018003d7dc     Image.obj
 0002:0000c7dc       $unwind$??_GContext2d@@EEAAPEAXI@Z 000000018003d7dc     CanvasRenderingContext2d.obj
 0002:0000c7dc       $unwind$?Restore@Context2d@@SAXAEBV?$FunctionCallbackInfo@VValue@v8@@@Nan@@@Z 000000018003d7dc     CanvasRenderingContext2d.obj
 0002:0000c7dc       $unwind$?ExFilterRethrow@@YAHPEAU_EXCEPTION_POINTERS@@PEAUEHExceptionRecord@@PEAH@Z 000000018003d7dc     libvcruntime:frame.obj
 0002:0000c7dc       $unwind$__vcrt_FlsGetValue 000000018003d7dc     libvcruntime:winapi_downlevel.obj
 0002:0000c7dc       $unwind$__vcrt_FlsFree     000000018003d7dc     libvcruntime:winapi_downlevel.obj
 0002:0000c7dc       $unwind$__vcrt_FlsAlloc    000000018003d7dc     libvcruntime:winapi_downlevel.obj
 0002:0000c7dc       $unwind$__acrt_invoke_user_matherr 000000018003d7dc     libucrt:matherr.obj
 0002:0000c7dc       $unwind$??$common_xtox@K_W@@YAHKQEA_W_KI_N@Z 000000018003d7dc     libucrt:xtoa.obj
 0002:0000c7dc       $unwind$__vcrt_EventUnregister 000000018003d7dc     libvcruntime:winapi_downlevel.obj
 0002:0000c7dc       $unwind$__acrt_errno_map_os_error 000000018003d7dc     libucrt:errno.obj
 0002:0000c7dc       $unwind$wcsncat_s          000000018003d7dc     libucrt:wcsncat_s.obj
 0002:0000c7dc       $unwind$__acrt_FlsFree     000000018003d7dc     libucrt:winapi_thunks.obj
 0002:0000c7dc       $unwind$?saveState@Context2d@@QEAAXXZ 000000018003d7dc     CanvasRenderingContext2d.obj
 0002:0000c7dc       $unwind$_close_nolock      000000018003d7dc     libucrt:close.obj
 0002:0000c7dc       $unwind$??$common_initialize_environment_nolock@D@@YAHXZ 000000018003d7dc     libucrt:environment_initialization.obj
 0002:0000c7dc       $unwind$??_GGradient@@EEAAPEAXI@Z 000000018003d7dc     CanvasGradient.obj
 0002:0000c7dc       $unwind$?DloadGetSRWLockFunctionPointers@@YAEXZ 000000018003d7dc     DelayImp:delayhlp.obj
 0002:0000c7dc       $unwind$__acrt_FlsGetValue 000000018003d7dc     libucrt:winapi_thunks.obj
 0002:0000c7dc       $unwind$??_Gbad_array_new_length@std@@UEAAPEAXI@Z 000000018003d7dc     LIBCMT:throw_bad_alloc.obj
 0002:0000c7dc       $unwind$?replace_current_thread_locale_nolock@@YAXQEAU__acrt_ptd@@QEAU__crt_locale_data@@@Z 000000018003d7dc     libucrt:per_thread_data.obj
 0002:0000c7e8       $unwind$__vcrt_initialize_ptd 000000018003d7e8     libvcruntime:per_thread_data.obj
 0002:0000c7e8       $unwind$_fileno            000000018003d7e8     libucrt:fileno.obj
 0002:0000c7e8       $unwind$??$uninitialize_environment_internal@D@@YAXAEAPEAPEAD@Z 000000018003d7e8     libucrt:environment_initialization.obj
 0002:0000c7e8       $unwind$??$uninitialize_environment_internal@_W@@YAXAEAPEAPEA_W@Z 000000018003d7e8     libucrt:environment_initialization.obj
 0002:0000c7e8       $unwind$?state_case_normal_tchar@?$output_processor@DV?$string_output_adapter@D@__crt_stdio_output@@V?$standard_base@DV?$string_output_adapter@D@__crt_stdio_output@@@2@@__crt_stdio_output@@AEAA_ND@Z 000000018003d7e8     libucrt:output.obj
 0002:0000c7e8       $unwind$__vcrt_thread_detach 000000018003d7e8     libvcruntime:initialization.obj
 0002:0000c7e8       $unwind$__vcrt_thread_attach 000000018003d7e8     libvcruntime:initialization.obj
 0002:0000c7e8       $unwind$__vcrt_getptd      000000018003d7e8     libvcruntime:per_thread_data.obj
 0002:0000c7e8       $unwind$__vcrt_uninitialize_critical 000000018003d7e8     libvcruntime:initialization.obj
 0002:0000c7e8       $unwind$__vcrt_freefls     000000018003d7e8     libvcruntime:per_thread_data.obj
 0002:0000c7e8       $unwind$__vcrt_initialize  000000018003d7e8     libvcruntime:initialization.obj
 0002:0000c7e8       $unwind$__dcrt_uninitialize_environments_nolock 000000018003d7e8     libucrt:environment_initialization.obj
 0002:0000c7e8       $unwind$__acrt_DownlevelLocaleNameToLCID 000000018003d7e8     libucrt:lcidtoname_downlevel.obj
 0002:0000c7e8       $unwind$__acrt_initialize_multibyte 000000018003d7e8     libucrt:mbctype.obj
 0002:0000c7e8       $unwind$__doserrno         000000018003d7e8     libucrt:errno.obj
 0002:0000c7e8       $unwind$?initialize_multibyte@@YAHXZ 000000018003d7e8     libucrt:multibyte_initializer.obj
 0002:0000c7e8       $unwind$?state_case_size@?$output_processor@_WV?$string_output_adapter@_W@__crt_stdio_output@@V?$standard_base@_WV?$string_output_adapter@_W@__crt_stdio_output@@@2@@__crt_stdio_output@@AEAA_NXZ 000000018003d7e8     libucrt:output.obj
 0002:0000c7e8       $unwind$?dllmain_crt_dispatch@@YAHQEAUHINSTANCE__@@KQEAX@Z 000000018003d7e8     LIBCMT:dll_dllmain.obj
 0002:0000c7e8       $unwind$_errno             000000018003d7e8     libucrt:errno.obj
 0002:0000c7e8       $unwind$__GSHandlerCheck   000000018003d7e8     LIBCMT:_gshandler_.obj
 0002:0000c7e8       $unwind$_set_errno_from_matherr 000000018003d7e8     libucrt:fpexcept.obj
 0002:0000c7e8       $unwind$__FrameUnwindFilter 000000018003d7e8     libvcruntime:frame.obj
 0002:0000c7e8       $unwind$__acrt_uninitialize_ptd 000000018003d7e8     libucrt:per_thread_data.obj
 0002:0000c7e8       $unwind$uninitialize_environment 000000018003d7e8     libucrt:initialization.obj
 0002:0000c7e8       $unwind$_stricmp           000000018003d7e8     libucrt:stricmp.obj
 0002:0000c7e8       $unwind$__pctype_func      000000018003d7e8     libucrt:ctype.obj
 0002:0000c7e8       $unwind$_invoke_watson     000000018003d7e8     libucrt:invalid_parameter.obj
 0002:0000c7e8       $unwind$_strnicmp          000000018003d7e8     libucrt:strnicmp.obj
 0002:0000c7e8       $unwind$initialize_c       000000018003d7e8     libucrt:initialization.obj
 0002:0000c7e8       $unwind$?state_case_size@?$output_processor@_WV?$stream_output_adapter@_W@__crt_stdio_output@@V?$standard_base@_WV?$stream_output_adapter@_W@__crt_stdio_output@@@2@@__crt_stdio_output@@AEAA_NXZ 000000018003d7e8     libucrt:output.obj
 0002:0000c7e8       $unwind$__acrt_initialize_heap 000000018003d7e8     libucrt:heap_handle.obj
 0002:0000c7e8       $unwind$_get_fmode         000000018003d7e8     libucrt:setmode.obj
 0002:0000c7e8       $unwind$__std_terminate    000000018003d7e8     libvcruntime:frame.obj
 0002:0000c7e8       $unwind$__dcrt_terminate_console_output 000000018003d7e8     libucrt:initcon.obj
 0002:0000c7e8       $unwind$_isatty            000000018003d7e8     libucrt:isatty.obj
 0002:0000c7e8       $unwind$__acrt_release_locale_ref 000000018003d7e8     libucrt:locale_refcounting.obj
 0002:0000c7e8       $unwind$?IsExecutionTerminating@V8@v8@@SA_NPEAVIsolate@2@@Z 000000018003d7e8     Canvas.obj
 0002:0000c7e8       $unwind$?IsDead@V8@v8@@SA_NXZ 000000018003d7e8     Canvas.obj
 0002:0000c7e8       $unwind$_set_error_mode    000000018003d7e8     libucrt:set_error_mode.obj
 0002:0000c7e8       $unwind$__vcrt_uninitialize_telemetry_provider 000000018003d7e8     libvcruntime:telemetry.obj
 0002:0000c7e8       $unwind$__scrt_initialize_default_local_stdio_options 000000018003d7e8     LIBCMT:default_local_stdio_options.obj
 0002:0000c7e8       $unwind$__acrt_thread_attach 000000018003d7e8     libucrt:initialization.obj
 0002:0000c7e8       $unwind$__acrt_thread_detach 000000018003d7e8     libucrt:initialization.obj
 0002:0000c7e8       $unwind$_getfpcontrolword  000000018003d7e8     libucrt:_fenvutils.obj
 0002:0000c7e8       $unwind$tolower            000000018003d7e8     libucrt:tolower_toupper.obj
 0002:0000c7e8       $unwind$?__GetCurrentState@@YAHPEA_KPEAU_xDISPATCHER_CONTEXT@@PEBU_s_FuncInfo@@@Z 000000018003d7e8     libvcruntime:ehstate.obj
 0002:0000c7e8       $unwind$atexit             000000018003d7e8     LIBCMT:utility.obj
 0002:0000c7e8       $unwind$_msize             000000018003d7e8     libucrt:msize.obj
 0002:0000c7e8       $unwind$__acrt_uninitialize_critical 000000018003d7e8     libucrt:initialization.obj
 0002:0000c7e8       $unwind$__acrt_initialize_ptd 000000018003d7e8     libucrt:per_thread_data.obj
 0002:0000c7e8       $unwind$_GetImageBase      000000018003d7e8     libvcruntime:trnsctrl.obj
 0002:0000c7e8       $unwind$__scrt_dllmain_crt_thread_detach 000000018003d7e8     LIBCMT:utility.obj
 0002:0000c7e8       $unwind$__scrt_dllmain_crt_thread_attach 000000018003d7e8     LIBCMT:utility.obj
 0002:0000c7e8       $unwind$__scrt_dllmain_uninitialize_critical 000000018003d7e8     LIBCMT:utility.obj
 0002:0000c7e8       $unwind$__scrt_dllmain_uninitialize_c 000000018003d7e8     LIBCMT:utility.obj
 0002:0000c7e8       $unwind$_GetThrowImageBase 000000018003d7e8     libvcruntime:trnsctrl.obj
 0002:0000c7e8       $unwind$__scrt_dllmain_after_initialize_c 000000018003d7e8     LIBCMT:utility.obj
 0002:0000c7e8       $unwind$__scrt_dllmain_before_initialize_c 000000018003d7e8     LIBCMT:utility.obj
 0002:0000c7e8       $unwind$_get_osfhandle     000000018003d7e8     libucrt:osfinfo.obj
 0002:0000c7e8       $unwind$?state_case_size@?$output_processor@DV?$string_output_adapter@D@__crt_stdio_output@@V?$standard_base@DV?$string_output_adapter@D@__crt_stdio_output@@@2@@__crt_stdio_output@@AEAA_NXZ 000000018003d7e8     libucrt:output.obj
 0002:0000c7e8       $unwind$_statfp            000000018003d7e8     libucrt:fpctrl.obj
 0002:0000c7e8       $unwind$_getfpstatusword   000000018003d7e8     libucrt:_fenvutils.obj
 0002:0000c7e8       $unwind$abort              000000018003d7e8     libucrt:abort.obj
 0002:0000c7e8       $unwind$__acrt_initialize_command_line 000000018003d7e8     libucrt:argv_data.obj
 0002:0000c7e8       $unwind$??$_Allocate@N@std@@YAPEAN_KPEAN_N@Z 000000018003d7e8     CanvasRenderingContext2d.obj
 0002:0000c7e8       $unwind$__scrt_acquire_startup_lock 000000018003d7e8     LIBCMT:utility.obj
 0002:0000c7e8       $unwind$__vcrt_uninitialize_ptd 000000018003d7e8     libvcruntime:per_thread_data.obj
 0002:0000c7f0       $unwind$__acrt_locale_free_numeric 000000018003d7f0     libucrt:initnum.obj
 0002:0000c7f0       $unwind$?AddMessageListener@V8@v8@@SA_NP6AXV?$Local@VMessage@v8@@@2@V?$Local@VValue@v8@@@2@@Z1@Z 000000018003d7f0     Canvas.obj
 0002:0000c7f0       $unwind$?destroy_fls@@YAXPEAX@Z 000000018003d7f0     libucrt:per_thread_data.obj
 0002:0000c7f0       $unwind$?SetShadowOffsetY@Context2d@@SAXV?$Local@VString@v8@@@v8@@V?$Local@VValue@v8@@@3@AEBV?$PropertyCallbackInfo@X@Nan@@@Z 000000018003d7f0     CanvasRenderingContext2d.obj
 0002:0000c7f0       $unwind$?SetDataMode@Image@@SAXV?$Local@VString@v8@@@v8@@V?$Local@VValue@v8@@@3@AEBV?$PropertyCallbackInfo@X@Nan@@@Z 000000018003d7f0     Image.obj
 0002:0000c7f0       $unwind$__acrt_locale_free_lc_time_if_unreferenced 000000018003d7f0     libucrt:locale_refcounting.obj
 0002:0000c7f0       $unwind$_free_base         000000018003d7f0     libucrt:free_base.obj
 0002:0000c7f0       $unwind$?SetShadowOffsetX@Context2d@@SAXV?$Local@VString@v8@@@v8@@V?$Local@VValue@v8@@@3@AEBV?$PropertyCallbackInfo@X@Nan@@@Z 000000018003d7f0     CanvasRenderingContext2d.obj
 0002:0000c7f8       $unwind$__acrt_stdio_flush_nolock 000000018003d7f8     libucrt:fflush.obj
 0002:0000c7f8       $unwind$??R<lambda_ad1ced32f4ac17aa236e5ef05d6b3b7c>@@QEBAXXZ 000000018003d7f8     libucrt:mbctype.obj
 0002:0000c7f8       $unwind$?type_case_n@?$output_processor@_WV?$string_output_adapter@_W@__crt_stdio_output@@V?$standard_base@_WV?$string_output_adapter@_W@__crt_stdio_output@@@2@@__crt_stdio_output@@AEAA_NXZ 000000018003d7f8     libucrt:output.obj
 0002:0000c7f8       $unwind$?free_crt_array_internal@@YAXQEAPEBX_K@Z 000000018003d7f8     libucrt:inittime.obj
 0002:0000c7f8       $unwind$?type_case_Z@?$output_processor@_WV?$string_output_adapter@_W@__crt_stdio_output@@V?$standard_base@_WV?$string_output_adapter@_W@__crt_stdio_output@@@2@@__crt_stdio_output@@AEAA_NXZ 000000018003d7f8     libucrt:output.obj
 0002:0000c7f8       $unwind$_RTC_Initialize    000000018003d7f8     LIBCMT:_initsect_.obj
 0002:0000c7f8       $unwind$__acrt_LocaleNameToLCID 000000018003d7f8     libucrt:winapi_thunks.obj
 0002:0000c7f8       $unwind$_RTC_Terminate     000000018003d7f8     LIBCMT:_initsect_.obj
 0002:0000c7f8       $unwind$_DllMainCRTStartup 000000018003d7f8     LIBCMT:dll_dllmain.obj
 0002:0000c7f8       $unwind$?type_case_n@?$output_processor@DV?$string_output_adapter@D@__crt_stdio_output@@V?$standard_base@DV?$string_output_adapter@D@__crt_stdio_output@@@2@@__crt_stdio_output@@AEAA_NXZ 000000018003d7f8     libucrt:output.obj
 0002:0000c7f8       $unwind$__vcrt_getptd_noexit 000000018003d7f8     libvcruntime:per_thread_data.obj
 0002:0000c7f8       $unwind$?type_case_s@?$output_processor@_WV?$stream_output_adapter@_W@__crt_stdio_output@@V?$standard_base@_WV?$stream_output_adapter@_W@__crt_stdio_output@@@2@@__crt_stdio_output@@AEAA_NXZ 000000018003d7f8     libucrt:output.obj
 0002:0000c7f8       $unwind$__vcrt_FlsSetValue 000000018003d7f8     libvcruntime:winapi_downlevel.obj
 0002:0000c7f8       $unwind$?SetCaptureStackTraceForUncaughtExceptions@V8@v8@@SAX_NHW4StackTraceOptions@StackTrace@2@@Z 000000018003d7f8     Canvas.obj
 0002:0000c7f8       $unwind$?type_case_Z@?$output_processor@_WV?$stream_output_adapter@_W@__crt_stdio_output@@V?$standard_base@_WV?$stream_output_adapter@_W@__crt_stdio_output@@@2@@__crt_stdio_output@@AEAA_NXZ 000000018003d7f8     libucrt:output.obj
 0002:0000c7f8       $unwind$__acrt_stdio_flush_and_write_wide_nolock 000000018003d7f8     libucrt:_flsbuf.obj
 0002:0000c7f8       $unwind$??$common_lseek_nolock@_J@@YA_JH_JH@Z 000000018003d7f8     libucrt:lseek.obj
 0002:0000c7f8       $unwind$__acrt_execute_uninitializers 000000018003d7f8     libucrt:shared_initialization.obj
 0002:0000c7f8       $unwind$?type_case_Z@?$output_processor@DV?$string_output_adapter@D@__crt_stdio_output@@V?$standard_base@DV?$string_output_adapter@D@__crt_stdio_output@@@2@@__crt_stdio_output@@AEAA_NXZ 000000018003d7f8     libucrt:output.obj
 0002:0000c7f8       $unwind$?type_case_s@?$output_processor@DV?$string_output_adapter@D@__crt_stdio_output@@V?$standard_base@DV?$string_output_adapter@D@__crt_stdio_output@@@2@@__crt_stdio_output@@AEAA_NXZ 000000018003d7f8     libucrt:output.obj
 0002:0000c7f8       $unwind$__acrt_getptd_noexit 000000018003d7f8     libucrt:per_thread_data.obj
 0002:0000c7f8       $unwind$__acrt_stdio_flush_and_write_narrow_nolock 000000018003d7f8     libucrt:_flsbuf.obj
 0002:0000c7f8       $unwind$?TraceLoggingRegister@__vcrt_trace_logging_provider@@YAJPEBU_TlgProvider_t@1@PEBU_GUID@@P6AX1KE_K2PEAU_EVENT_FILTER_DESCRIPTOR@@PEAX@Z4@Z 000000018003d7f8     libvcruntime:telemetry.obj
 0002:0000c7f8       $unwind$_initterm_e        000000018003d7f8     libucrt:initterm.obj
 0002:0000c7f8       $unwind$?type_case_n@?$output_processor@_WV?$stream_output_adapter@_W@__crt_stdio_output@@V?$standard_base@_WV?$stream_output_adapter@_W@__crt_stdio_output@@@2@@__crt_stdio_output@@AEAA_NXZ 000000018003d7f8     libucrt:output.obj
 0002:0000c7f8       $unwind$_exception_enabled 000000018003d7f8     libucrt:libm_error.obj
 0002:0000c7f8       $unwind$memcpy_s           000000018003d7f8     libucrt:cfout.obj
 0002:0000c7f8       $unwind$?canvas_stream_write_func@@YAXPEAUpng_struct_def@@PEAE_K@Z 000000018003d7f8     Canvas.obj
 0002:0000c7f8       $unwind$?closure_init@@YA?AW4_cairo_status@@PEAUclosure_t@@PEAVCanvas@@II@Z 000000018003d7f8     Canvas.obj
 0002:0000c7f8       $unwind$?type_case_s@?$output_processor@_WV?$string_output_adapter@_W@__crt_stdio_output@@V?$standard_base@_WV?$string_output_adapter@_W@__crt_stdio_output@@@2@@__crt_stdio_output@@AEAA_NXZ 000000018003d7f8     libucrt:output.obj
 0002:0000c7f8       $unwind$__acrt_FlsSetValue 000000018003d7f8     libucrt:winapi_thunks.obj
 0002:0000c7f8       $unwind$?AddMemoryAllocationCallback@V8@v8@@SAXP6AXW4ObjectSpace@2@W4AllocationAction@2@H@Z01@Z 000000018003d7f8     Canvas.obj
 0002:0000c808       $unwind$?FunctionCallbackWrapper@imp@Nan@@YAXAEBV?$FunctionCallbackInfo@VValue@v8@@@v8@@@Z 000000018003d808     Canvas.obj
 0002:0000c818       $unwind$?GetterCallbackWrapper@imp@Nan@@YAXV?$Local@VName@v8@@@v8@@AEBV?$PropertyCallbackInfo@VValue@v8@@@4@@Z 000000018003d818     Canvas.obj
 0002:0000c824       $unwind$?SetterCallbackWrapper@imp@Nan@@YAXV?$Local@VName@v8@@@v8@@V?$Local@VValue@v8@@@4@AEBV?$PropertyCallbackInfo@X@4@@Z 000000018003d824     Canvas.obj
 0002:0000c830       $unwind$?New@?$Factory@VFunctionTemplate@v8@@@imp@Nan@@SA?AV?$Local@VFunctionTemplate@v8@@@v8@@P6AXAEBV?$FunctionCallbackInfo@VValue@v8@@@3@@ZV?$Local@VValue@v8@@@5@V?$Local@VSignature@v8@@@5@@Z 000000018003d830     Canvas.obj
 0002:0000c848       $stateUnwindMap$?New@?$Factory@VFunctionTemplate@v8@@@imp@Nan@@SA?AV?$Local@VFunctionTemplate@v8@@@v8@@P6AXAEBV?$FunctionCallbackInfo@VValue@v8@@@3@@ZV?$Local@VValue@v8@@@5@V?$Local@VSignature@v8@@@5@@Z 000000018003d848     Canvas.obj
 0002:0000c848       $stateUnwindMap$?streamPNG@@YA?AW4_cairo_status@@PEAXPEBEI@Z 000000018003d848     Canvas.obj
 0002:0000c850       $ip2state$?New@?$Factory@VFunctionTemplate@v8@@@imp@Nan@@SA?AV?$Local@VFunctionTemplate@v8@@@v8@@P6AXAEBV?$FunctionCallbackInfo@VValue@v8@@@3@@ZV?$Local@VValue@v8@@@5@V?$Local@VSignature@v8@@@5@@Z 000000018003d850     Canvas.obj
 0002:0000c868       $unwind$??0Callback@Nan@@QEAA@AEBV?$Local@VFunction@v8@@@v8@@@Z 000000018003d868     Canvas.obj
 0002:0000c880       $stateUnwindMap$??0Callback@Nan@@QEAA@AEBV?$Local@VFunction@v8@@@v8@@@Z 000000018003d880     Canvas.obj
 0002:0000c898       $ip2state$??0Callback@Nan@@QEAA@AEBV?$Local@VFunction@v8@@@v8@@@Z 000000018003d898     Canvas.obj
 0002:0000c8d0       $unwind$?Call_@Callback@Nan@@AEBA?AV?$Local@VValue@v8@@@v8@@PEAVIsolate@4@V?$Local@VObject@v8@@@4@HQEAV34@@Z 000000018003d8d0     Canvas.obj
 0002:0000c8e8       $stateUnwindMap$?SetStrokePattern@Context2d@@SAXAEBV?$FunctionCallbackInfo@VValue@v8@@@Nan@@@Z 000000018003d8e8     CanvasRenderingContext2d.obj
 0002:0000c8e8       $stateUnwindMap$?New@Context2d@@SAXAEBV?$FunctionCallbackInfo@VValue@v8@@@Nan@@@Z 000000018003d8e8     CanvasRenderingContext2d.obj
 0002:0000c8e8       $stateUnwindMap$?AddPage@Context2d@@SAXAEBV?$FunctionCallbackInfo@VValue@v8@@@Nan@@@Z 000000018003d8e8     CanvasRenderingContext2d.obj
 0002:0000c8e8       $stateUnwindMap$?loaded@Image@@QEAAXXZ 000000018003d8e8     Image.obj
 0002:0000c8e8       $stateUnwindMap$?SetFillPattern@Context2d@@SAXAEBV?$FunctionCallbackInfo@VValue@v8@@@Nan@@@Z 000000018003d8e8     CanvasRenderingContext2d.obj
 0002:0000c8e8       $stateUnwindMap$?Call_@Callback@Nan@@AEBA?AV?$Local@VValue@v8@@@v8@@PEAVIsolate@4@V?$Local@VObject@v8@@@4@HQEAV34@@Z 000000018003d8e8     Canvas.obj
 0002:0000c8f0       $ip2state$?Call_@Callback@Nan@@AEBA?AV?$Local@VValue@v8@@@v8@@PEAVIsolate@4@V?$Local@VObject@v8@@@4@HQEAV34@@Z 000000018003d8f0     Canvas.obj
 0002:0000c908       $unwind$??1?$Persistent@VObject@v8@@V?$NonCopyablePersistentTraits@VObject@v8@@@2@@Nan@@QEAA@XZ 000000018003d908     Canvas.obj
 0002:0000c918       $stateUnwindMap$??1?$Persistent@VObject@v8@@V?$NonCopyablePersistentTraits@VObject@v8@@@2@@Nan@@QEAA@XZ 000000018003d918     Canvas.obj
 0002:0000c920       $ip2state$??1?$Persistent@VObject@v8@@V?$NonCopyablePersistentTraits@VObject@v8@@@2@@Nan@@QEAA@XZ 000000018003d920     Canvas.obj
 0002:0000c928       $unwind$??_GCallback@Nan@@QEAAPEAXI@Z 000000018003d928     Canvas.obj
 0002:0000c938       $stateUnwindMap$??_GCallback@Nan@@QEAAPEAXI@Z 000000018003d938     Canvas.obj
 0002:0000c950       $ip2state$??_GCallback@Nan@@QEAAPEAXI@Z 000000018003d950     Canvas.obj
 0002:0000c968       $unwind$?SetAccessor@Nan@@YAXV?$Local@VObjectTemplate@v8@@@v8@@V?$Local@VString@v8@@@3@P6AX1AEBV?$PropertyCallbackInfo@VValue@v8@@@1@@ZP6AX1V?$Local@VValue@v8@@@3@AEBV?$PropertyCallbackInfo@X@1@@Z4W4AccessControl@3@W4PropertyAttribute@3@V?$Local@VAccessorSignature@v8@@@3@@Z 000000018003d968     Canvas.obj
 0002:0000c980       $stateUnwindMap$?SetAccessor@Nan@@YAXV?$Local@VObjectTemplate@v8@@@v8@@V?$Local@VString@v8@@@3@P6AX1AEBV?$PropertyCallbackInfo@VValue@v8@@@1@@ZP6AX1V?$Local@VValue@v8@@@3@AEBV?$PropertyCallbackInfo@X@1@@Z4W4AccessControl@3@W4PropertyAttribute@3@V?$Local@VAccessorSignature@v8@@@3@@Z 000000018003d980     Canvas.obj
 0002:0000c980       $stateUnwindMap$?Initialize@Image@@SAXV?$Local@VObject@v8@@@v8@@@Z 000000018003d980     Image.obj
 0002:0000c980       $stateUnwindMap$?Initialize@ImageData@@SAXV?$Local@VObject@v8@@@v8@@@Z 000000018003d980     ImageData.obj
 0002:0000c988       $ip2state$?SetAccessor@Nan@@YAXV?$Local@VObjectTemplate@v8@@@v8@@V?$Local@VString@v8@@@3@P6AX1AEBV?$PropertyCallbackInfo@VValue@v8@@@1@@ZP6AX1V?$Local@VValue@v8@@@3@AEBV?$PropertyCallbackInfo@X@1@@Z4W4AccessControl@3@W4PropertyAttribute@3@V?$Local@VAccessorSignature@v8@@@3@@Z 000000018003d988     Canvas.obj
 0002:0000c9a0       $unwind$??1ObjectWrap@Nan@@UEAA@XZ 000000018003d9a0     Canvas.obj
 0002:0000c9b0       $stateUnwindMap$??__F?constructor@Pattern@@2V?$Persistent@VFunctionTemplate@v8@@V?$NonCopyablePersistentTraits@VFunctionTemplate@v8@@@2@@Nan@@A@@YAXXZ 000000018003d9b0     CanvasPattern.obj
 0002:0000c9b0       $stateUnwindMap$??__F?constructor@Context2d@@2V?$Persistent@VFunctionTemplate@v8@@V?$NonCopyablePersistentTraits@VFunctionTemplate@v8@@@2@@Nan@@A@@YAXXZ 000000018003d9b0     CanvasRenderingContext2d.obj
 0002:0000c9b0       $stateUnwindMap$??__F?constructor@Gradient@@2V?$Persistent@VFunctionTemplate@v8@@V?$NonCopyablePersistentTraits@VFunctionTemplate@v8@@@2@@Nan@@A@@YAXXZ 000000018003d9b0     CanvasGradient.obj
 0002:0000c9b0       $stateUnwindMap$??__F?constructor@Canvas@@2V?$Persistent@VFunctionTemplate@v8@@V?$NonCopyablePersistentTraits@VFunctionTemplate@v8@@@2@@Nan@@A@@YAXXZ 000000018003d9b0     Canvas.obj
 0002:0000c9b0       $stateUnwindMap$??__F?constructor@Image@@2V?$Persistent@VFunctionTemplate@v8@@V?$NonCopyablePersistentTraits@VFunctionTemplate@v8@@@2@@Nan@@A@@YAXXZ 000000018003d9b0     Image.obj
 0002:0000c9b0       $stateUnwindMap$??1ObjectWrap@Nan@@UEAA@XZ 000000018003d9b0     Canvas.obj
 0002:0000c9b0       $stateUnwindMap$??__F?constructor@ImageData@@2V?$Persistent@VFunctionTemplate@v8@@V?$NonCopyablePersistentTraits@VFunctionTemplate@v8@@@2@@Nan@@A@@YAXXZ 000000018003d9b0     ImageData.obj
 0002:0000c9c0       $ip2state$??1ObjectWrap@Nan@@UEAA@XZ 000000018003d9c0     Canvas.obj
 0002:0000c9c8       $unwind$?Wrap@ObjectWrap@Nan@@IEAAXV?$Local@VObject@v8@@@v8@@@Z 000000018003d9c8     Canvas.obj
 0002:0000c9c8       $unwind$??$free_environment@_W@@YAXQEAPEA_W@Z 000000018003d9c8     libucrt:environment_initialization.obj
 0002:0000c9c8       $unwind$??$free_environment@D@@YAXQEAPEAD@Z 000000018003d9c8     libucrt:environment_initialization.obj
 0002:0000c9d4       $chain$1$?closure_destroy@@YAXPEAUclosure_t@@@Z 000000018003d9d4     Canvas.obj
 0002:0000c9ec       $chain$2$?closure_destroy@@YAXPEAUclosure_t@@@Z 000000018003d9ec     Canvas.obj
 0002:0000c9fc       $unwind$?canvas_unpremultiply_data@@YAXPEAUpng_struct_def@@PEAUpng_row_info_struct@@PEAE@Z 000000018003d9fc     Canvas.obj
 0002:0000ca08       $chain$0$?canvas_unpremultiply_data@@YAXPEAUpng_struct_def@@PEAUpng_row_info_struct@@PEAE@Z 000000018003da08     Canvas.obj
 0002:0000ca1c       $chain$1$?canvas_unpremultiply_data@@YAXPEAUpng_struct_def@@PEAUpng_row_info_struct@@PEAE@Z 000000018003da1c     Canvas.obj
 0002:0000ca2c       $unwind$?canvas_write_png@@YA?AW4_cairo_status@@PEAU_cairo_surface@@P6AXPEAUpng_struct_def@@PEAE_K@ZPEAX@Z 000000018003da2c     Canvas.obj
 0002:0000ca4c       $unwind$??__F?constructor@Canvas@@2V?$Persistent@VFunctionTemplate@v8@@V?$NonCopyablePersistentTraits@VFunctionTemplate@v8@@@2@@Nan@@A@@YAXXZ 000000018003da4c     Canvas.obj
 0002:0000ca60       $ip2state$??__F?constructor@Canvas@@2V?$Persistent@VFunctionTemplate@v8@@V?$NonCopyablePersistentTraits@VFunctionTemplate@v8@@@2@@Nan@@A@@YAXXZ 000000018003da60     Canvas.obj
 0002:0000ca68       $unwind$?Initialize@Canvas@@SAXV?$Local@VObject@v8@@@v8@@@Z 000000018003da68     Canvas.obj
 0002:0000ca84       $stateUnwindMap$?Initialize@Canvas@@SAXV?$Local@VObject@v8@@@v8@@@Z 000000018003da84     Canvas.obj
 0002:0000caa0       $ip2state$?Initialize@Canvas@@SAXV?$Local@VObject@v8@@@v8@@@Z 000000018003daa0     Canvas.obj
 0002:0000cad8       $unwind$?New@Canvas@@SAXAEBV?$FunctionCallbackInfo@VValue@v8@@@Nan@@@Z 000000018003dad8     Canvas.obj
 0002:0000caf4       $stateUnwindMap$?New@Canvas@@SAXAEBV?$FunctionCallbackInfo@VValue@v8@@@Nan@@@Z 000000018003daf4     Canvas.obj
 0002:0000cb08       $ip2state$?New@Canvas@@SAXAEBV?$FunctionCallbackInfo@VValue@v8@@@Nan@@@Z 000000018003db08     Canvas.obj
 0002:0000cb30       $unwind$_alloc_osfhnd$fin$0 000000018003db30     libucrt:osfinfo.obj
 0002:0000cb30       $unwind$common_flush_all$fin$1 000000018003db30     libucrt:fflush.obj
 0002:0000cb30       $unwind$?dtor$0@?0??SetOnload@Image@@SAXV?$Local@VString@v8@@@v8@@V?$Local@VValue@v8@@@3@AEBV?$PropertyCallbackInfo@X@Nan@@@Z@4HA 000000018003db30     Image.obj
 0002:0000cb30       $unwind$_query_new_handler$fin$0 000000018003db30     libucrt:new_handler.obj
 0002:0000cb30       $unwind$_read$fin$0        000000018003db30     libucrt:read.obj
 0002:0000cb30       $unwind$?dtor$0@?0??SetOnerror@Image@@SAXV?$Local@VString@v8@@@v8@@V?$Local@VValue@v8@@@3@AEBV?$PropertyCallbackInfo@X@Nan@@@Z@4HA 000000018003db30     Image.obj
 0002:0000cb30       $unwind$?fin$0@?0??dllmain_crt_process_detach@@YAH_N@Z@4HA 000000018003db30     LIBCMT:dll_dllmain.obj
 0002:0000cb30       $unwind$_fcloseall$fin$0   000000018003db30     libucrt:closeall.obj
 0002:0000cb30       $unwind$__CxxCallCatchBlock$filt$0 000000018003db30     libvcruntime:frame.obj
 0002:0000cb30       $unwind$?fin$0@?0??dllmain_crt_process_attach@@YAHQEAUHINSTANCE__@@QEAX@Z@4HA 000000018003db30     LIBCMT:dll_dllmain.obj
 0002:0000cb30       $unwind$_write$fin$0       000000018003db30     libucrt:write.obj
 0002:0000cb30       $unwind$__FrameUnwindToState$filt$0 000000018003db30     libvcruntime:frame.obj
 0002:0000cb30       $unwind$__FrameUnwindToState$fin$1 000000018003db30     libvcruntime:frame.obj
 0002:0000cb30       $unwind$?dtor$0@?0??ToBuffer@Canvas@@SAXAEBV?$FunctionCallbackInfo@VValue@v8@@@Nan@@@Z@4HA 000000018003db30     Canvas.obj
 0002:0000cb30       $unwind$?fin$0@?0???$?RV<lambda_99476a1ad63dd22509b5d3e65b0ffc95>@@AEAV<lambda_ad1ced32f4ac17aa236e5ef05d6b3b7c>@@V<lambda_f7424dd8d45958661754dc4f2697e9c3>@@@?$__crt_seh_guarded_call@X@@QEAAX$$QEAV<lambda_99476a1ad63dd22509b5d3e65b0ffc95>@@AEAV<lambda_ad1ced32f4ac17aa236e5ef05d6b3b7c>@@$$QEAV<lambda_f7424dd8d45958661754dc4f2697e9c3>@@@Z@4HA 000000018003db30     libucrt:mbctype.obj
 0002:0000cb30       $unwind$?fin$0@?0???$?RV<lambda_fb3a7dec4e47f37f22dae91bb15c9095>@@AEAV<lambda_698284760c8add0bfb0756c19673e34b>@@V<lambda_dfb8eca1e75fef3034a8fb18dd509707>@@@?$__crt_seh_guarded_call@X@@QEAAX$$QEAV<lambda_fb3a7dec4e47f37f22dae91bb15c9095>@@AEAV<lambda_698284760c8add0bfb0756c19673e34b>@@$$QEAV<lambda_dfb8eca1e75fef3034a8fb18dd509707>@@@Z@4HA 000000018003db30     libucrt:per_thread_data.obj
 0002:0000cb30       $unwind$fclose$fin$0       000000018003db30     libucrt:fclose.obj
 0002:0000cb30       $unwind$?fin$0@?0???$common_lseek@_J@@YA_JH_JH@Z@4HA 000000018003db30     libucrt:lseek.obj
 0002:0000cb30       $unwind$?filt$0@?0??__ArrayUnwind@@YAXPEAX_K1P6AX0@Z@Z@4HA 000000018003db30     LIBCMT:ehvecdtr.obj
 0002:0000cb30       $unwind$__acrt_update_thread_multibyte_data$fin$0 000000018003db30     libucrt:mbctype.obj
 0002:0000cb30       $unwind$?fin$0@?0??__acrt_stdio_allocate_stream@@YA?AV__crt_stdio_stream@@XZ@4HA 000000018003db30     libucrt:stream.obj
 0002:0000cb30       $unwind$?fin$0@?0???_M@YAXPEAX_K1P6AX0@Z@Z@4HA 000000018003db30     LIBCMT:ehvecdtr.obj
 0002:0000cb30       $unwind$?fin$0@?0???$?RV<lambda_72d1df2b273a38828b1ce30cbf4cdab5>@@AEAV<lambda_876a65b173b8412d3a47c70a915b0cf4>@@V<lambda_41932305e351933ebe8f8be3ed8bb5dc>@@@?$__crt_seh_guarded_call@X@@QEAAX$$QEAV<lambda_72d1df2b273a38828b1ce30cbf4cdab5>@@AEAV<lambda_876a65b173b8412d3a47c70a915b0cf4>@@$$QEAV<lambda_41932305e351933ebe8f8be3ed8bb5dc>@@@Z@4HA 000000018003db30     libucrt:per_thread_data.obj
 0002:0000cb30       $unwind$?fin$0@?0???$?RV<lambda_b8c45f8f788dd370798f47cfe8ac3a86>@@AEAV<lambda_4e60a939b0d047cfe11ddc22648dfba9>@@V<lambda_332c3edc96d0294ec56c57d38c1cdfd5>@@@?$__crt_seh_guarded_call@H@@QEAAH$$QEAV<lambda_b8c45f8f788dd370798f47cfe8ac3a86>@@AEAV<lambda_4e60a939b0d047cfe11ddc22648dfba9>@@$$QEAV<lambda_332c3edc96d0294ec56c57d38c1cdfd5>@@@Z@4HA 000000018003db30     libucrt:onexit.obj
 0002:0000cb30       $unwind$common_control87$filt$0 000000018003db30     libucrt:ieee.obj
 0002:0000cb30       $unwind$?fin$0@?0???$?RV<lambda_7b91131dde12e1c3dfc74ff76b3f2eac>@@AEAV<lambda_dd75445284c072d0bd3768540cc698fa>@@V<lambda_16bc4ecb55b4718497c16bceaea2ceaf>@@@?$__crt_seh_guarded_call@H@@QEAAH$$QEAV<lambda_7b91131dde12e1c3dfc74ff76b3f2eac>@@AEAV<lambda_dd75445284c072d0bd3768540cc698fa>@@$$QEAV<lambda_16bc4ecb55b4718497c16bceaea2ceaf>@@@Z@4HA 000000018003db30     libucrt:output.obj
 0002:0000cb30       $unwind$?dtor$0@?0??New@Gradient@@SAXAEBV?$FunctionCallbackInfo@VValue@v8@@@Nan@@@Z@4HA 000000018003db30     CanvasGradient.obj
 0002:0000cb30       $unwind$?fin$0@?0???$?RV<lambda_e24bbb7b643b32fcea6fa61b31d4c984>@@AEAV<lambda_275893d493268fdec8709772e3fcec0e>@@V<lambda_9d71df4d7cf3f480f8d633942495c3b0>@@@?$__crt_seh_guarded_call@H@@QEAAH$$QEAV<lambda_e24bbb7b643b32fcea6fa61b31d4c984>@@AEAV<lambda_275893d493268fdec8709772e3fcec0e>@@$$QEAV<lambda_9d71df4d7cf3f480f8d633942495c3b0>@@@Z@4HA 000000018003db30     libucrt:onexit.obj
 0002:0000cb30       $unwind$?dtor$1@?0??New@Gradient@@SAXAEBV?$FunctionCallbackInfo@VValue@v8@@@Nan@@@Z@4HA 000000018003db30     CanvasGradient.obj
 0002:0000cb30       $unwind$_IsNonwritableInCurrentImage$filt$0 000000018003db30     LIBCMT:pesect.obj
 0002:0000cb30       $unwind$?dtor$2@?0??New@Canvas@@SAXAEBV?$FunctionCallbackInfo@VValue@v8@@@Nan@@@Z@4HA 000000018003db30     Canvas.obj
 0002:0000cb30       $unwind$__DestructExceptionObject$filt$0 000000018003db30     libvcruntime:frame.obj
 0002:0000cb30       $unwind$__acrt_lowio_ensure_fh_exists$fin$0 000000018003db30     libucrt:osfinfo.obj
 0002:0000cb30       $unwind$?fin$0@?0???$?RV<lambda_c36588078e9f5dfd39652860aa6b3aaf>@@AEAV<lambda_ec61778202f4f5fc7e7711acc23c3bca>@@V<lambda_dc9d2797ccde5d239b4a0efae8ebd7db>@@@?$__crt_seh_guarded_call@P6AXH@Z@@QEAAP6AXH@Z$$QEAV<lambda_c36588078e9f5dfd39652860aa6b3aaf>@@AEAV<lambda_ec61778202f4f5fc7e7711acc23c3bca>@@$$QEAV<lambda_dc9d2797ccde5d239b4a0efae8ebd7db>@@@Z@4HA 000000018003db30     libucrt:signal.obj
 0002:0000cb30       $unwind$raise$fin$0        000000018003db30     libucrt:signal.obj
 0002:0000cb30       $unwind$?filt$0@?0??common_exit@@YAXHW4_crt_exit_cleanup_mode@@W4_crt_exit_return_mode@@@Z@4HA 000000018003db30     libucrt:exit.obj
 0002:0000cb30       $unwind$__acrt_initialize_lowio$fin$0 000000018003db30     libucrt:ioinit.obj
 0002:0000cb30       $unwind$_ctrlfp$filt$0     000000018003db30     libucrt:fpctrl.obj
 0002:0000cb30       $unwind$?fin$0@?0???$?RV<lambda_b521505b218e5242e90febf6bfebc422>@@AEAV<lambda_6978c1fb23f02e42e1d9e99668cc68aa>@@V<lambda_314360699dd331753a4119843814e9a7>@@@?$__crt_seh_guarded_call@H@@QEAAH$$QEAV<lambda_b521505b218e5242e90febf6bfebc422>@@AEAV<lambda_6978c1fb23f02e42e1d9e99668cc68aa>@@$$QEAV<lambda_314360699dd331753a4119843814e9a7>@@@Z@4HA 000000018003db30     libucrt:commit.obj
 0002:0000cb30       $unwind$?fin$0@?0???$?RV<lambda_46352004c1216016012b18bd6f87e700>@@AEAV<lambda_3bd07e1a1191394380780325891bf33f>@@V<lambda_334532d3f185bcaa59b5be82d7d22bff>@@@?$__crt_seh_guarded_call@X@@QEAAX$$QEAV<lambda_46352004c1216016012b18bd6f87e700>@@AEAV<lambda_3bd07e1a1191394380780325891bf33f>@@$$QEAV<lambda_334532d3f185bcaa59b5be82d7d22bff>@@@Z@4HA 000000018003db30     libucrt:per_thread_data.obj
 0002:0000cb30       $unwind$__acrt_update_thread_locale_data$fin$0 000000018003db30     libucrt:locale_refcounting.obj
 0002:0000cb30       $unwind$?fin$0@?0???$?RV<lambda_bfedae4ebbf01fab1bb6dcc6a9e276e0>@@AEAV<lambda_2fe9b910cf3cbf4a0ab98a02ba45b3ec>@@V<lambda_237c231691f317818eb88cc1d5d642d6>@@@?$__crt_seh_guarded_call@H@@QEAAH$$QEAV<lambda_bfedae4ebbf01fab1bb6dcc6a9e276e0>@@AEAV<lambda_2fe9b910cf3cbf4a0ab98a02ba45b3ec>@@$$QEAV<lambda_237c231691f317818eb88cc1d5d642d6>@@@Z@4HA 000000018003db30     libucrt:close.obj
 0002:0000cb30       $unwind$__acrt_uninitialize_locale$fin$0 000000018003db30     libucrt:wsetlocale.obj
 0002:0000cb30       $unwind$?fin$1@?0??common_exit@@YAXHW4_crt_exit_cleanup_mode@@W4_crt_exit_return_mode@@@Z@4HA 000000018003db30     libucrt:exit.obj
 0002:0000cb30       $unwind$?fin$0@?0???$common_fsopen@D@@YAPEAU_iobuf@@QEBD0H@Z@4HA 000000018003db30     libucrt:fopen.obj
 0002:0000cb30       $unwind$?fin$0@?0???$?RV<lambda_7a5ef57ff966f610505f1d28a3d40618>@@AEAV<lambda_b721fa326cdb32351d23dfa67958c160>@@V<lambda_5e0fb27672408a07956fe59e48ccb2aa>@@@?$__crt_seh_guarded_call@H@@QEAAH$$QEAV<lambda_7a5ef57ff966f610505f1d28a3d40618>@@AEAV<lambda_b721fa326cdb32351d23dfa67958c160>@@$$QEAV<lambda_5e0fb27672408a07956fe59e48ccb2aa>@@@Z@4HA 000000018003db30     libucrt:setvbuf.obj
 0002:0000cb30       $unwind$?fin$0@?0???$?RV<lambda_5e887d1dcbef67a5eb4283622ba103bf>@@AEAV<lambda_4466841279450cc726390878d4a41900>@@V<lambda_341c25c0346d94847f1f3c463c57e077>@@@?$__crt_seh_guarded_call@X@@QEAAX$$QEAV<lambda_5e887d1dcbef67a5eb4283622ba103bf>@@AEAV<lambda_4466841279450cc726390878d4a41900>@@$$QEAV<lambda_341c25c0346d94847f1f3c463c57e077>@@@Z@4HA 000000018003db30     libucrt:per_thread_data.obj
 0002:0000cb30       $unwind$fflush$fin$0       000000018003db30     libucrt:fflush.obj
 0002:0000cb30       $unwind$common_flush_all$fin$0 000000018003db30     libucrt:fflush.obj
 0002:0000cb30       $unwind$?fin$0@?0??common_fseek@@YAHV__crt_stdio_stream@@_JH@Z@4HA 000000018003db30     libucrt:fseek.obj
 0002:0000cb38       $unwind$?GetPatternQuality@Context2d@@SAXV?$Local@VString@v8@@@v8@@AEBV?$PropertyCallbackInfo@VValue@v8@@@Nan@@@Z 000000018003db38     CanvasRenderingContext2d.obj
 0002:0000cb38       $unwind$?GetType@Canvas@@SAXV?$Local@VString@v8@@@v8@@AEBV?$PropertyCallbackInfo@VValue@v8@@@Nan@@@Z 000000018003db38     Canvas.obj
 0002:0000cb38       $unwind$??$__acrt_stdio_parse_mode@D@@YA?AU__acrt_stdio_stream_mode@@QEBD@Z 000000018003db38     libucrt:openfile.obj
 0002:0000cb38       $unwind$?GetTextDrawingMode@Context2d@@SAXV?$Local@VString@v8@@@v8@@AEBV?$PropertyCallbackInfo@VValue@v8@@@Nan@@@Z 000000018003db38     CanvasRenderingContext2d.obj
 0002:0000cb38       $unwind$?GetGlobalCompositeOperation@Context2d@@SAXV?$Local@VString@v8@@@v8@@AEBV?$PropertyCallbackInfo@VValue@v8@@@Nan@@@Z 000000018003db38     CanvasRenderingContext2d.obj
 0002:0000cb38       $unwind$?fill@Context2d@@QEAAX_N@Z 000000018003db38     CanvasRenderingContext2d.obj
 0002:0000cb38       $unwind$?ToBufferAsync@Canvas@@SAXPEAUuv_work_s@@@Z 000000018003db38     Canvas.obj
 0002:0000cb38       $unwind$?stroke@Context2d@@QEAAX_N@Z 000000018003db38     CanvasRenderingContext2d.obj
 0002:0000cb38       $unwind$?GetLineJoin@Context2d@@SAXV?$Local@VString@v8@@@v8@@AEBV?$PropertyCallbackInfo@VValue@v8@@@Nan@@@Z 000000018003db38     CanvasRenderingContext2d.obj
 0002:0000cb38       $unwind$?GetLineCap@Context2d@@SAXV?$Local@VString@v8@@@v8@@AEBV?$PropertyCallbackInfo@VValue@v8@@@Nan@@@Z 000000018003db38     CanvasRenderingContext2d.obj
 0002:0000cb38       $unwind$?GetFilter@Context2d@@SAXV?$Local@VString@v8@@@v8@@AEBV?$PropertyCallbackInfo@VValue@v8@@@Nan@@@Z 000000018003db38     CanvasRenderingContext2d.obj
 0002:0000cb38       $unwind$?loadFromBuffer@Image@@QEAA?AW4_cairo_status@@PEAEI@Z 000000018003db38     Image.obj
 0002:0000cb38       $unwind$?GetSource@Image@@SAXV?$Local@VString@v8@@@v8@@AEBV?$PropertyCallbackInfo@VValue@v8@@@Nan@@@Z 000000018003db38     Image.obj
 0002:0000cb38       $unwind$?GetAntiAlias@Context2d@@SAXV?$Local@VString@v8@@@v8@@AEBV?$PropertyCallbackInfo@VValue@v8@@@Nan@@@Z 000000018003db38     CanvasRenderingContext2d.obj
 0002:0000cb44       $unwind$?GetHeight@Image@@SAXV?$Local@VString@v8@@@v8@@AEBV?$PropertyCallbackInfo@VValue@v8@@@Nan@@@Z 000000018003db44     Image.obj
 0002:0000cb44       $unwind$?GetWidth@Image@@SAXV?$Local@VString@v8@@@v8@@AEBV?$PropertyCallbackInfo@VValue@v8@@@Nan@@@Z 000000018003db44     Image.obj
 0002:0000cb44       $unwind$?GetDataMode@Image@@SAXV?$Local@VString@v8@@@v8@@AEBV?$PropertyCallbackInfo@VValue@v8@@@Nan@@@Z 000000018003db44     Image.obj
 0002:0000cb44       $unwind$?GetShadowBlur@Context2d@@SAXV?$Local@VString@v8@@@v8@@AEBV?$PropertyCallbackInfo@VValue@v8@@@Nan@@@Z 000000018003db44     CanvasRenderingContext2d.obj
 0002:0000cb44       $unwind$?GetShadowOffsetY@Context2d@@SAXV?$Local@VString@v8@@@v8@@AEBV?$PropertyCallbackInfo@VValue@v8@@@Nan@@@Z 000000018003db44     CanvasRenderingContext2d.obj
 0002:0000cb44       $unwind$?GetHeight@ImageData@@SAXV?$Local@VString@v8@@@v8@@AEBV?$PropertyCallbackInfo@VValue@v8@@@Nan@@@Z 000000018003db44     ImageData.obj
 0002:0000cb44       $unwind$?GetLineWidth@Context2d@@SAXV?$Local@VString@v8@@@v8@@AEBV?$PropertyCallbackInfo@VValue@v8@@@Nan@@@Z 000000018003db44     CanvasRenderingContext2d.obj
 0002:0000cb44       $unwind$?GetWidth@ImageData@@SAXV?$Local@VString@v8@@@v8@@AEBV?$PropertyCallbackInfo@VValue@v8@@@Nan@@@Z 000000018003db44     ImageData.obj
 0002:0000cb44       $unwind$?GetGlobalAlpha@Context2d@@SAXV?$Local@VString@v8@@@v8@@AEBV?$PropertyCallbackInfo@VValue@v8@@@Nan@@@Z 000000018003db44     CanvasRenderingContext2d.obj
 0002:0000cb44       $unwind$?GetLineDashOffset@Context2d@@SAXV?$Local@VString@v8@@@v8@@AEBV?$PropertyCallbackInfo@VValue@v8@@@Nan@@@Z 000000018003db44     CanvasRenderingContext2d.obj
 0002:0000cb44       $unwind$?GetWidth@Canvas@@SAXV?$Local@VString@v8@@@v8@@AEBV?$PropertyCallbackInfo@VValue@v8@@@Nan@@@Z 000000018003db44     Canvas.obj
 0002:0000cb44       $unwind$?GetMiterLimit@Context2d@@SAXV?$Local@VString@v8@@@v8@@AEBV?$PropertyCallbackInfo@VValue@v8@@@Nan@@@Z 000000018003db44     CanvasRenderingContext2d.obj
 0002:0000cb44       $unwind$?GetShadowOffsetX@Context2d@@SAXV?$Local@VString@v8@@@v8@@AEBV?$PropertyCallbackInfo@VValue@v8@@@Nan@@@Z 000000018003db44     CanvasRenderingContext2d.obj
 0002:0000cb44       $unwind$?GetHeight@Canvas@@SAXV?$Local@VString@v8@@@v8@@AEBV?$PropertyCallbackInfo@VValue@v8@@@Nan@@@Z 000000018003db44     Canvas.obj
 0002:0000cb54       $unwind$?SetHeight@Canvas@@SAXV?$Local@VString@v8@@@v8@@V?$Local@VValue@v8@@@3@AEBV?$PropertyCallbackInfo@X@Nan@@@Z 000000018003db54     Canvas.obj
 0002:0000cb54       $unwind$?SetWidth@Canvas@@SAXV?$Local@VString@v8@@@v8@@V?$Local@VValue@v8@@@3@AEBV?$PropertyCallbackInfo@X@Nan@@@Z 000000018003db54     Canvas.obj
 0002:0000cb5c       $chain$0$?SetWidth@Canvas@@SAXV?$Local@VString@v8@@@v8@@V?$Local@VValue@v8@@@3@AEBV?$PropertyCallbackInfo@X@Nan@@@Z 000000018003db5c     Canvas.obj
 0002:0000cb70       $chain$1$?SetWidth@Canvas@@SAXV?$Local@VString@v8@@@v8@@V?$Local@VValue@v8@@@3@AEBV?$PropertyCallbackInfo@X@Nan@@@Z 000000018003db70     Canvas.obj
 0002:0000cb80       $chain$0$?SetHeight@Canvas@@SAXV?$Local@VString@v8@@@v8@@V?$Local@VValue@v8@@@3@AEBV?$PropertyCallbackInfo@X@Nan@@@Z 000000018003db80     Canvas.obj
 0002:0000cb94       $chain$1$?SetHeight@Canvas@@SAXV?$Local@VString@v8@@@v8@@V?$Local@VValue@v8@@@3@AEBV?$PropertyCallbackInfo@X@Nan@@@Z 000000018003db94     Canvas.obj
 0002:0000cba4       $unwind$?setSBCS@@YAXPEAU__crt_multibyte_data@@@Z 000000018003dba4     libucrt:mbctype.obj
 0002:0000cba4       $unwind$__acrt_InitializeCriticalSectionEx 000000018003dba4     libucrt:winapi_thunks.obj
 0002:0000cba4       $unwind$?toBuffer@@YA?AW4_cairo_status@@PEAXPEBEI@Z 000000018003dba4     Canvas.obj
 0002:0000cba4       $unwind$__scrt_dllmain_exception_filter 000000018003dba4     LIBCMT:utility.obj
 0002:0000cba4       $unwind$__acrt_lowio_create_handle_array 000000018003dba4     libucrt:osfinfo.obj
 0002:0000cba4       $unwind$?find_or_allocate_unused_stream_nolock@@YA?AV__crt_stdio_stream@@XZ 000000018003dba4     libucrt:stream.obj
 0002:0000cba4       $unwind$_seh_filter_exe    000000018003dba4     libucrt:exception_filter.obj
 0002:0000cba4       $unwind$__acrt_execute_initializers 000000018003dba4     libucrt:shared_initialization.obj
 0002:0000cba4       $unwind$?dllmain_raw@@YAHQEAUHINSTANCE__@@KQEAX@Z 000000018003dba4     LIBCMT:dll_dllmain.obj
 0002:0000cba4       $unwind$??$ensure_buffer_is_big_enough@D@formatting_buffer@__crt_stdio_output@@QEAA_N_K@Z 000000018003dba4     libucrt:output.obj
 0002:0000cba4       $unwind$__acrt_free_locale 000000018003dba4     libucrt:locale_refcounting.obj
 0002:0000cba4       $unwind$__vcrt_InitializeCriticalSectionEx 000000018003dba4     libvcruntime:winapi_downlevel.obj
 0002:0000cba4       $unwind$_wassert           000000018003dba4     libucrt:assert.obj
 0002:0000cba4       $unwind$_recalloc_base     000000018003dba4     libucrt:recalloc.obj
 0002:0000cbb8       $unwind$?ToBufferAsyncAfter@Canvas@@SAXPEAUuv_work_s@@@Z 000000018003dbb8     Canvas.obj
 0002:0000cbd0       $stateUnwindMap$?ToBufferAsyncAfter@Canvas@@SAXPEAUuv_work_s@@@Z 000000018003dbd0     Canvas.obj
 0002:0000cbf8       $ip2state$?ToBufferAsyncAfter@Canvas@@SAXPEAUuv_work_s@@@Z 000000018003dbf8     Canvas.obj
 0002:0000cc28       $unwind$?ToBuffer@Canvas@@SAXAEBV?$FunctionCallbackInfo@VValue@v8@@@Nan@@@Z 000000018003dc28     Canvas.obj
 0002:0000cc48       $stateUnwindMap$?ToBuffer@Canvas@@SAXAEBV?$FunctionCallbackInfo@VValue@v8@@@Nan@@@Z 000000018003dc48     Canvas.obj
 0002:0000cc70       $ip2state$?ToBuffer@Canvas@@SAXAEBV?$FunctionCallbackInfo@VValue@v8@@@Nan@@@Z 000000018003dc70     Canvas.obj
 0002:0000ccd8       $unwind$?streamPNG@@YA?AW4_cairo_status@@PEAXPEBEI@Z 000000018003dcd8     Canvas.obj
 0002:0000cd00       $ip2state$?streamPNG@@YA?AW4_cairo_status@@PEAXPEBEI@Z 000000018003dd00     Canvas.obj
 0002:0000cd18       $unwind$?StreamPNGSync@Canvas@@SAXAEBV?$FunctionCallbackInfo@VValue@v8@@@Nan@@@Z 000000018003dd18     Canvas.obj
 0002:0000cd40       $stateUnwindMap$?StreamPNGSync@Canvas@@SAXAEBV?$FunctionCallbackInfo@VValue@v8@@@Nan@@@Z 000000018003dd40     Canvas.obj
 0002:0000cd70       $ip2state$?StreamPNGSync@Canvas@@SAXAEBV?$FunctionCallbackInfo@VValue@v8@@@Nan@@@Z 000000018003dd70     Canvas.obj
 0002:0000cdc8       $unwind$??0Canvas@@QEAA@HHW4canvas_type_t@@@Z 000000018003ddc8     Canvas.obj
 0002:0000cde4       $stateUnwindMap$??0Canvas@@QEAA@HHW4canvas_type_t@@@Z 000000018003dde4     Canvas.obj
 0002:0000cdf0       $ip2state$??0Canvas@@QEAA@HHW4canvas_type_t@@@Z 000000018003ddf0     Canvas.obj
 0002:0000ce08       $unwind$??1Canvas@@EEAA@XZ 000000018003de08     Canvas.obj
 0002:0000ce28       $ip2state$??1Canvas@@EEAA@XZ 000000018003de28     Canvas.obj
 0002:0000ce30       $unwind$?resurface@Canvas@@QEAAXV?$Local@VObject@v8@@@v8@@@Z 000000018003de30     Canvas.obj
 0002:0000ce48       $stateUnwindMap$?error@Image@@QEAAXV?$Local@VValue@v8@@@v8@@@Z 000000018003de48     Image.obj
 0002:0000ce48       $stateUnwindMap$?resurface@Canvas@@QEAAXV?$Local@VObject@v8@@@v8@@@Z 000000018003de48     Canvas.obj
 0002:0000ce50       $ip2state$?resurface@Canvas@@QEAAXV?$Local@VObject@v8@@@v8@@@Z 000000018003de50     Canvas.obj
 0002:0000ce68       $unwind$??$Unwrap@VImageData@@@ObjectWrap@Nan@@SAPEAVImageData@@V?$Local@VObject@v8@@@v8@@@Z 000000018003de68     CanvasRenderingContext2d.obj
 0002:0000ce68       $unwind$??$Unwrap@VCanvas@@@ObjectWrap@Nan@@SAPEAVCanvas@@V?$Local@VObject@v8@@@v8@@@Z 000000018003de68     Canvas.obj
 0002:0000ce68       $unwind$??$Unwrap@VGradient@@@ObjectWrap@Nan@@SAPEAVGradient@@V?$Local@VObject@v8@@@v8@@@Z 000000018003de68     CanvasGradient.obj
 0002:0000ce68       $unwind$??$Unwrap@VPattern@@@ObjectWrap@Nan@@SAPEAVPattern@@V?$Local@VObject@v8@@@v8@@@Z 000000018003de68     CanvasRenderingContext2d.obj
 0002:0000ce68       $unwind$??$Unwrap@VImage@@@ObjectWrap@Nan@@SAPEAVImage@@V?$Local@VObject@v8@@@v8@@@Z 000000018003de68     CanvasPattern.obj
 0002:0000ce68       $unwind$??$Unwrap@VContext2d@@@ObjectWrap@Nan@@SAPEAVContext2d@@V?$Local@VObject@v8@@@v8@@@Z 000000018003de68     Canvas.obj
 0002:0000ce70       $unwind$??__F?constructor@Gradient@@2V?$Persistent@VFunctionTemplate@v8@@V?$NonCopyablePersistentTraits@VFunctionTemplate@v8@@@2@@Nan@@A@@YAXXZ 000000018003de70     CanvasGradient.obj
 0002:0000ce80       $ip2state$??__F?constructor@Gradient@@2V?$Persistent@VFunctionTemplate@v8@@V?$NonCopyablePersistentTraits@VFunctionTemplate@v8@@@2@@Nan@@A@@YAXXZ 000000018003de80     CanvasGradient.obj
 0002:0000ce88       $unwind$?Initialize@Gradient@@SAXV?$Local@VObject@v8@@@v8@@@Z 000000018003de88     CanvasGradient.obj
 0002:0000cea0       $stateUnwindMap$?Initialize@Gradient@@SAXV?$Local@VObject@v8@@@v8@@@Z 000000018003dea0     CanvasGradient.obj
 0002:0000ceb0       $ip2state$?Initialize@Gradient@@SAXV?$Local@VObject@v8@@@v8@@@Z 000000018003deb0     CanvasGradient.obj
 0002:0000ced8       $unwind$?New@Gradient@@SAXAEBV?$FunctionCallbackInfo@VValue@v8@@@Nan@@@Z 000000018003ded8     CanvasGradient.obj
 0002:0000cf0c       $stateUnwindMap$?New@Gradient@@SAXAEBV?$FunctionCallbackInfo@VValue@v8@@@Nan@@@Z 000000018003df0c     CanvasGradient.obj
 0002:0000cf28       $ip2state$?New@Gradient@@SAXAEBV?$FunctionCallbackInfo@VValue@v8@@@Nan@@@Z 000000018003df28     CanvasGradient.obj
 0002:0000cf60       $unwind$?AddColorStop@Gradient@@SAXAEBV?$FunctionCallbackInfo@VValue@v8@@@Nan@@@Z 000000018003df60     CanvasGradient.obj
 0002:0000cf88       $stateUnwindMap$?AddColorStop@Gradient@@SAXAEBV?$FunctionCallbackInfo@VValue@v8@@@Nan@@@Z 000000018003df88     CanvasGradient.obj
 0002:0000cfb0       $ip2state$?AddColorStop@Gradient@@SAXAEBV?$FunctionCallbackInfo@VValue@v8@@@Nan@@@Z 000000018003dfb0     CanvasGradient.obj
 0002:0000d008       $unwind$??__F?constructor@Pattern@@2V?$Persistent@VFunctionTemplate@v8@@V?$NonCopyablePersistentTraits@VFunctionTemplate@v8@@@2@@Nan@@A@@YAXXZ 000000018003e008     CanvasPattern.obj
 0002:0000d018       $ip2state$??__F?constructor@Pattern@@2V?$Persistent@VFunctionTemplate@v8@@V?$NonCopyablePersistentTraits@VFunctionTemplate@v8@@@2@@Nan@@A@@YAXXZ 000000018003e018     CanvasPattern.obj
 0002:0000d020       $unwind$?Initialize@Pattern@@SAXV?$Local@VObject@v8@@@v8@@@Z 000000018003e020     CanvasPattern.obj
 0002:0000d038       $stateUnwindMap$?Initialize@Pattern@@SAXV?$Local@VObject@v8@@@v8@@@Z 000000018003e038     CanvasPattern.obj
 0002:0000d040       $ip2state$?Initialize@Pattern@@SAXV?$Local@VObject@v8@@@v8@@@Z 000000018003e040     CanvasPattern.obj
 0002:0000d058       $unwind$?New@Pattern@@SAXAEBV?$FunctionCallbackInfo@VValue@v8@@@Nan@@@Z 000000018003e058     CanvasPattern.obj
 0002:0000d070       $stateUnwindMap$?MoveTo@Context2d@@SAXAEBV?$FunctionCallbackInfo@VValue@v8@@@Nan@@@Z 000000018003e070     CanvasRenderingContext2d.obj
 0002:0000d070       $stateUnwindMap$?PutImageData@Context2d@@SAXAEBV?$FunctionCallbackInfo@VValue@v8@@@Nan@@@Z 000000018003e070     CanvasRenderingContext2d.obj
 0002:0000d070       $stateUnwindMap$?New@Pattern@@SAXAEBV?$FunctionCallbackInfo@VValue@v8@@@Nan@@@Z 000000018003e070     CanvasPattern.obj
 0002:0000d070       $stateUnwindMap$?LineTo@Context2d@@SAXAEBV?$FunctionCallbackInfo@VValue@v8@@@Nan@@@Z 000000018003e070     CanvasRenderingContext2d.obj
 0002:0000d080       $ip2state$?New@Pattern@@SAXAEBV?$FunctionCallbackInfo@VValue@v8@@@Nan@@@Z 000000018003e080     CanvasPattern.obj
 0002:0000d0a8       $unwind$??__F?constructor@Context2d@@2V?$Persistent@VFunctionTemplate@v8@@V?$NonCopyablePersistentTraits@VFunctionTemplate@v8@@@2@@Nan@@A@@YAXXZ 000000018003e0a8     CanvasRenderingContext2d.obj
 0002:0000d0b8       $ip2state$??__F?constructor@Context2d@@2V?$Persistent@VFunctionTemplate@v8@@V?$NonCopyablePersistentTraits@VFunctionTemplate@v8@@@2@@Nan@@A@@YAXXZ 000000018003e0b8     CanvasRenderingContext2d.obj
 0002:0000d0c0       $unwind$?Initialize@Context2d@@SAXV?$Local@VObject@v8@@@v8@@@Z 000000018003e0c0     CanvasRenderingContext2d.obj
 0002:0000d0dc       $stateUnwindMap$?Initialize@Context2d@@SAXV?$Local@VObject@v8@@@v8@@@Z 000000018003e0dc     CanvasRenderingContext2d.obj
 0002:0000d220       $ip2state$?Initialize@Context2d@@SAXV?$Local@VObject@v8@@@v8@@@Z 000000018003e220     CanvasRenderingContext2d.obj
 0002:0000d4a8       $unwind$?shadow@Context2d@@QEAAXP6AXPEAU_cairo@@@Z@Z 000000018003e4a8     CanvasRenderingContext2d.obj
 0002:0000d4c0       $chain$3$?shadow@Context2d@@QEAAXP6AXPEAU_cairo@@@Z@Z 000000018003e4c0     CanvasRenderingContext2d.obj
 0002:0000d4e0       $chain$4$?shadow@Context2d@@QEAAXP6AXPEAU_cairo@@@Z@Z 000000018003e4e0     CanvasRenderingContext2d.obj
 0002:0000d4f0       $unwind$?blur@Context2d@@QEAAXPEAU_cairo_surface@@H@Z 000000018003e4f0     CanvasRenderingContext2d.obj
 0002:0000d508       $unwind$?New@Context2d@@SAXAEBV?$FunctionCallbackInfo@VValue@v8@@@Nan@@@Z 000000018003e508     CanvasRenderingContext2d.obj
 0002:0000d520       $ip2state$?New@Context2d@@SAXAEBV?$FunctionCallbackInfo@VValue@v8@@@Nan@@@Z 000000018003e520     CanvasRenderingContext2d.obj
 0002:0000d538       $unwind$?AddPage@Context2d@@SAXAEBV?$FunctionCallbackInfo@VValue@v8@@@Nan@@@Z 000000018003e538     CanvasRenderingContext2d.obj
 0002:0000d548       $ip2state$?AddPage@Context2d@@SAXAEBV?$FunctionCallbackInfo@VValue@v8@@@Nan@@@Z 000000018003e548     CanvasRenderingContext2d.obj
 0002:0000d560       $unwind$?PutImageData@Context2d@@SAXAEBV?$FunctionCallbackInfo@VValue@v8@@@Nan@@@Z 000000018003e560     CanvasRenderingContext2d.obj
 0002:0000d580       $ip2state$?PutImageData@Context2d@@SAXAEBV?$FunctionCallbackInfo@VValue@v8@@@Nan@@@Z 000000018003e580     CanvasRenderingContext2d.obj
 0002:0000d5a8       $unwind$?GetImageData@Context2d@@SAXAEBV?$FunctionCallbackInfo@VValue@v8@@@Nan@@@Z 000000018003e5a8     CanvasRenderingContext2d.obj
 0002:0000d5d4       $stateUnwindMap$?GetImageData@Context2d@@SAXAEBV?$FunctionCallbackInfo@VValue@v8@@@Nan@@@Z 000000018003e5d4     CanvasRenderingContext2d.obj
 0002:0000d5e8       $ip2state$?GetImageData@Context2d@@SAXAEBV?$FunctionCallbackInfo@VValue@v8@@@Nan@@@Z 000000018003e5e8     CanvasRenderingContext2d.obj
 0002:0000d610       $unwind$?DrawImage@Context2d@@SAXAEBV?$FunctionCallbackInfo@VValue@v8@@@Nan@@@Z 000000018003e610     CanvasRenderingContext2d.obj
 0002:0000d658       $stateUnwindMap$?DrawImage@Context2d@@SAXAEBV?$FunctionCallbackInfo@VValue@v8@@@Nan@@@Z 000000018003e658     CanvasRenderingContext2d.obj
 0002:0000d680       $ip2state$?DrawImage@Context2d@@SAXAEBV?$FunctionCallbackInfo@VValue@v8@@@Nan@@@Z 000000018003e680     CanvasRenderingContext2d.obj
 0002:0000d6c8       $unwind$?SetLineWidth@Context2d@@SAXV?$Local@VString@v8@@@v8@@V?$Local@VValue@v8@@@3@AEBV?$PropertyCallbackInfo@X@Nan@@@Z 000000018003e6c8     CanvasRenderingContext2d.obj
 0002:0000d6c8       $unwind$?SetMiterLimit@Context2d@@SAXV?$Local@VString@v8@@@v8@@V?$Local@VValue@v8@@@3@AEBV?$PropertyCallbackInfo@X@Nan@@@Z 000000018003e6c8     CanvasRenderingContext2d.obj
 0002:0000d6c8       $unwind$?SetGlobalAlpha@Context2d@@SAXV?$Local@VString@v8@@@v8@@V?$Local@VValue@v8@@@3@AEBV?$PropertyCallbackInfo@X@Nan@@@Z 000000018003e6c8     CanvasRenderingContext2d.obj
 0002:0000d6d4       $unwind$?SetLineJoin@Context2d@@SAXV?$Local@VString@v8@@@v8@@V?$Local@VValue@v8@@@3@AEBV?$PropertyCallbackInfo@X@Nan@@@Z 000000018003e6d4     CanvasRenderingContext2d.obj
 0002:0000d6d4       $unwind$?SetLineCap@Context2d@@SAXV?$Local@VString@v8@@@v8@@V?$Local@VValue@v8@@@3@AEBV?$PropertyCallbackInfo@X@Nan@@@Z 000000018003e6d4     CanvasRenderingContext2d.obj
 0002:0000d6d4       $unwind$?SetPatternQuality@Context2d@@SAXV?$Local@VString@v8@@@v8@@V?$Local@VValue@v8@@@3@AEBV?$PropertyCallbackInfo@X@Nan@@@Z 000000018003e6d4     CanvasRenderingContext2d.obj
 0002:0000d6e0       $unwind$?SetGlobalCompositeOperation@Context2d@@SAXV?$Local@VString@v8@@@v8@@V?$Local@VValue@v8@@@3@AEBV?$PropertyCallbackInfo@X@Nan@@@Z 000000018003e6e0     CanvasRenderingContext2d.obj
 0002:0000d6ec       $unwind$?SetAntiAlias@Context2d@@SAXV?$Local@VString@v8@@@v8@@V?$Local@VValue@v8@@@3@AEBV?$PropertyCallbackInfo@X@Nan@@@Z 000000018003e6ec     CanvasRenderingContext2d.obj
 0002:0000d700       $stateUnwindMap$?SetStrokeColor@Context2d@@SAXAEBV?$FunctionCallbackInfo@VValue@v8@@@Nan@@@Z 000000018003e700     CanvasRenderingContext2d.obj
 0002:0000d700       $stateUnwindMap$?SetFillColor@Context2d@@SAXAEBV?$FunctionCallbackInfo@VValue@v8@@@Nan@@@Z 000000018003e700     CanvasRenderingContext2d.obj
 0002:0000d700       $stateUnwindMap$?SetShadowColor@Context2d@@SAXV?$Local@VString@v8@@@v8@@V?$Local@VValue@v8@@@3@AEBV?$PropertyCallbackInfo@X@Nan@@@Z 000000018003e700     CanvasRenderingContext2d.obj
 0002:0000d700       $stateUnwindMap$?SetAntiAlias@Context2d@@SAXV?$Local@VString@v8@@@v8@@V?$Local@VValue@v8@@@3@AEBV?$PropertyCallbackInfo@X@Nan@@@Z 000000018003e700     CanvasRenderingContext2d.obj
 0002:0000d700       $stateUnwindMap$?SetFilter@Context2d@@SAXV?$Local@VString@v8@@@v8@@V?$Local@VValue@v8@@@3@AEBV?$PropertyCallbackInfo@X@Nan@@@Z 000000018003e700     CanvasRenderingContext2d.obj
 0002:0000d700       $stateUnwindMap$?SetTextDrawingMode@Context2d@@SAXV?$Local@VString@v8@@@v8@@V?$Local@VValue@v8@@@3@AEBV?$PropertyCallbackInfo@X@Nan@@@Z 000000018003e700     CanvasRenderingContext2d.obj
 0002:0000d700       $stateUnwindMap$?FillText@Context2d@@SAXAEBV?$FunctionCallbackInfo@VValue@v8@@@Nan@@@Z 000000018003e700     CanvasRenderingContext2d.obj
 0002:0000d700       $stateUnwindMap$?StrokeText@Context2d@@SAXAEBV?$FunctionCallbackInfo@VValue@v8@@@Nan@@@Z 000000018003e700     CanvasRenderingContext2d.obj
 0002:0000d708       $ip2state$?SetAntiAlias@Context2d@@SAXV?$Local@VString@v8@@@v8@@V?$Local@VValue@v8@@@3@AEBV?$PropertyCallbackInfo@X@Nan@@@Z 000000018003e708     CanvasRenderingContext2d.obj
 0002:0000d720       $unwind$?SetTextDrawingMode@Context2d@@SAXV?$Local@VString@v8@@@v8@@V?$Local@VValue@v8@@@3@AEBV?$PropertyCallbackInfo@X@Nan@@@Z 000000018003e720     CanvasRenderingContext2d.obj
 0002:0000d738       $ip2state$?SetTextDrawingMode@Context2d@@SAXV?$Local@VString@v8@@@v8@@V?$Local@VValue@v8@@@3@AEBV?$PropertyCallbackInfo@X@Nan@@@Z 000000018003e738     CanvasRenderingContext2d.obj
 0002:0000d750       $unwind$?SetFilter@Context2d@@SAXV?$Local@VString@v8@@@v8@@V?$Local@VValue@v8@@@3@AEBV?$PropertyCallbackInfo@X@Nan@@@Z 000000018003e750     CanvasRenderingContext2d.obj
 0002:0000d768       $ip2state$?SetFilter@Context2d@@SAXV?$Local@VString@v8@@@v8@@V?$Local@VValue@v8@@@3@AEBV?$PropertyCallbackInfo@X@Nan@@@Z 000000018003e768     CanvasRenderingContext2d.obj
 0002:0000d780       $unwind$_isleadbyte_l      000000018003e780     libucrt:_wctype.obj
 0002:0000d780       $unwind$?getSystemCP@@YAHH@Z 000000018003e780     libucrt:mbctype.obj
 0002:0000d780       $unwind$?_TlgWrite@__vcrt_trace_logging_provider@@YAJPEBU_TlgProvider_t@1@PEFBXPEBU_GUID@@2IPEAU_EVENT_DATA_DESCRIPTOR@@@Z 000000018003e780     libvcruntime:telemetry.obj
 0002:0000d780       $unwind$isdigit            000000018003e780     libucrt:_ctype.obj
 0002:0000d780       $unwind$?IsPointInPath@Context2d@@SAXAEBV?$FunctionCallbackInfo@VValue@v8@@@Nan@@@Z 000000018003e780     CanvasRenderingContext2d.obj
 0002:0000d788       $chain$2$?IsPointInPath@Context2d@@SAXAEBV?$FunctionCallbackInfo@VValue@v8@@@Nan@@@Z 000000018003e788     CanvasRenderingContext2d.obj
 0002:0000d7a4       $chain$3$?IsPointInPath@Context2d@@SAXAEBV?$FunctionCallbackInfo@VValue@v8@@@Nan@@@Z 000000018003e7a4     CanvasRenderingContext2d.obj
 0002:0000d7b4       $unwind$?SetFillPattern@Context2d@@SAXAEBV?$FunctionCallbackInfo@VValue@v8@@@Nan@@@Z 000000018003e7b4     CanvasRenderingContext2d.obj
 0002:0000d7c8       $ip2state$?SetFillPattern@Context2d@@SAXAEBV?$FunctionCallbackInfo@VValue@v8@@@Nan@@@Z 000000018003e7c8     CanvasRenderingContext2d.obj
 0002:0000d7e0       $unwind$?SetStrokePattern@Context2d@@SAXAEBV?$FunctionCallbackInfo@VValue@v8@@@Nan@@@Z 000000018003e7e0     CanvasRenderingContext2d.obj
 0002:0000d7f8       $ip2state$?SetStrokePattern@Context2d@@SAXAEBV?$FunctionCallbackInfo@VValue@v8@@@Nan@@@Z 000000018003e7f8     CanvasRenderingContext2d.obj
 0002:0000d810       $unwind$?SetShadowColor@Context2d@@SAXV?$Local@VString@v8@@@v8@@V?$Local@VValue@v8@@@3@AEBV?$PropertyCallbackInfo@X@Nan@@@Z 000000018003e810     CanvasRenderingContext2d.obj
 0002:0000d828       $ip2state$?SetShadowColor@Context2d@@SAXV?$Local@VString@v8@@@v8@@V?$Local@VValue@v8@@@3@AEBV?$PropertyCallbackInfo@X@Nan@@@Z 000000018003e828     CanvasRenderingContext2d.obj
 0002:0000d840       $unwind$?GetShadowColor@Context2d@@SAXV?$Local@VString@v8@@@v8@@AEBV?$PropertyCallbackInfo@VValue@v8@@@Nan@@@Z 000000018003e840     CanvasRenderingContext2d.obj
 0002:0000d840       $unwind$?GetFillColor@Context2d@@SAXV?$Local@VString@v8@@@v8@@AEBV?$PropertyCallbackInfo@VValue@v8@@@Nan@@@Z 000000018003e840     CanvasRenderingContext2d.obj
 0002:0000d840       $unwind$?GetStrokeColor@Context2d@@SAXV?$Local@VString@v8@@@v8@@AEBV?$PropertyCallbackInfo@VValue@v8@@@Nan@@@Z 000000018003e840     CanvasRenderingContext2d.obj
 0002:0000d858       $unwind$?SetFillColor@Context2d@@SAXAEBV?$FunctionCallbackInfo@VValue@v8@@@Nan@@@Z 000000018003e858     CanvasRenderingContext2d.obj
 0002:0000d870       $ip2state$?SetFillColor@Context2d@@SAXAEBV?$FunctionCallbackInfo@VValue@v8@@@Nan@@@Z 000000018003e870     CanvasRenderingContext2d.obj
 0002:0000d888       $unwind$?SetStrokeColor@Context2d@@SAXAEBV?$FunctionCallbackInfo@VValue@v8@@@Nan@@@Z 000000018003e888     CanvasRenderingContext2d.obj
 0002:0000d8a0       $ip2state$?SetStrokeColor@Context2d@@SAXAEBV?$FunctionCallbackInfo@VValue@v8@@@Nan@@@Z 000000018003e8a0     CanvasRenderingContext2d.obj
 0002:0000d8b8       $unwind$?BezierCurveTo@Context2d@@SAXAEBV?$FunctionCallbackInfo@VValue@v8@@@Nan@@@Z 000000018003e8b8     CanvasRenderingContext2d.obj
 0002:0000d8c4       $chain$9$?BezierCurveTo@Context2d@@SAXAEBV?$FunctionCallbackInfo@VValue@v8@@@Nan@@@Z 000000018003e8c4     CanvasRenderingContext2d.obj
 0002:0000d8fc       $chain$10$?BezierCurveTo@Context2d@@SAXAEBV?$FunctionCallbackInfo@VValue@v8@@@Nan@@@Z 000000018003e8fc     CanvasRenderingContext2d.obj
 0002:0000d90c       $unwind$?QuadraticCurveTo@Context2d@@SAXAEBV?$FunctionCallbackInfo@VValue@v8@@@Nan@@@Z 000000018003e90c     CanvasRenderingContext2d.obj
 0002:0000d914       $chain$4$?QuadraticCurveTo@Context2d@@SAXAEBV?$FunctionCallbackInfo@VValue@v8@@@Nan@@@Z 000000018003e914     CanvasRenderingContext2d.obj
 0002:0000d938       $chain$5$?QuadraticCurveTo@Context2d@@SAXAEBV?$FunctionCallbackInfo@VValue@v8@@@Nan@@@Z 000000018003e938     CanvasRenderingContext2d.obj
 0002:0000d948       $unwind$?Transform@Context2d@@SAXAEBV?$FunctionCallbackInfo@VValue@v8@@@Nan@@@Z 000000018003e948     CanvasRenderingContext2d.obj
 0002:0000d974       $unwind$?Translate@Context2d@@SAXAEBV?$FunctionCallbackInfo@VValue@v8@@@Nan@@@Z 000000018003e974     CanvasRenderingContext2d.obj
 0002:0000d974       $unwind$?Scale@Context2d@@SAXAEBV?$FunctionCallbackInfo@VValue@v8@@@Nan@@@Z 000000018003e974     CanvasRenderingContext2d.obj
 0002:0000d988       $unwind$?FillText@Context2d@@SAXAEBV?$FunctionCallbackInfo@VValue@v8@@@Nan@@@Z 000000018003e988     CanvasRenderingContext2d.obj
 0002:0000d9a8       $ip2state$?FillText@Context2d@@SAXAEBV?$FunctionCallbackInfo@VValue@v8@@@Nan@@@Z 000000018003e9a8     CanvasRenderingContext2d.obj
 0002:0000d9c0       $unwind$?StrokeText@Context2d@@SAXAEBV?$FunctionCallbackInfo@VValue@v8@@@Nan@@@Z 000000018003e9c0     CanvasRenderingContext2d.obj
 0002:0000d9e0       $ip2state$?StrokeText@Context2d@@SAXAEBV?$FunctionCallbackInfo@VValue@v8@@@Nan@@@Z 000000018003e9e0     CanvasRenderingContext2d.obj
 0002:0000d9f8       $unwind$?setTextPath@Context2d@@QEAAXPEBDNN@Z 000000018003e9f8     CanvasRenderingContext2d.obj
 0002:0000da14       $unwind$?LineTo@Context2d@@SAXAEBV?$FunctionCallbackInfo@VValue@v8@@@Nan@@@Z 000000018003ea14     CanvasRenderingContext2d.obj
 0002:0000da30       $ip2state$?LineTo@Context2d@@SAXAEBV?$FunctionCallbackInfo@VValue@v8@@@Nan@@@Z 000000018003ea30     CanvasRenderingContext2d.obj
 0002:0000da58       $unwind$?MoveTo@Context2d@@SAXAEBV?$FunctionCallbackInfo@VValue@v8@@@Nan@@@Z 000000018003ea58     CanvasRenderingContext2d.obj
 0002:0000da70       $ip2state$?MoveTo@Context2d@@SAXAEBV?$FunctionCallbackInfo@VValue@v8@@@Nan@@@Z 000000018003ea70     CanvasRenderingContext2d.obj
 0002:0000da98       $unwind$?SetFont@Context2d@@SAXAEBV?$FunctionCallbackInfo@VValue@v8@@@Nan@@@Z 000000018003ea98     CanvasRenderingContext2d.obj
 0002:0000dab4       $stateUnwindMap$?SetFont@Context2d@@SAXAEBV?$FunctionCallbackInfo@VValue@v8@@@Nan@@@Z 000000018003eab4     CanvasRenderingContext2d.obj
 0002:0000dae0       $ip2state$?SetFont@Context2d@@SAXAEBV?$FunctionCallbackInfo@VValue@v8@@@Nan@@@Z 000000018003eae0     CanvasRenderingContext2d.obj
 0002:0000db28       $unwind$?MeasureText@Context2d@@SAXAEBV?$FunctionCallbackInfo@VValue@v8@@@Nan@@@Z 000000018003eb28     CanvasRenderingContext2d.obj
 0002:0000db5c       $stateUnwindMap$?MeasureText@Context2d@@SAXAEBV?$FunctionCallbackInfo@VValue@v8@@@Nan@@@Z 000000018003eb5c     CanvasRenderingContext2d.obj
 0002:0000db68       $ip2state$?MeasureText@Context2d@@SAXAEBV?$FunctionCallbackInfo@VValue@v8@@@Nan@@@Z 000000018003eb68     CanvasRenderingContext2d.obj
 0002:0000db80       $chain$0$?SetTextBaseline@Context2d@@SAXAEBV?$FunctionCallbackInfo@VValue@v8@@@Nan@@@Z 000000018003eb80     CanvasRenderingContext2d.obj
 0002:0000db94       $chain$1$?SetTextBaseline@Context2d@@SAXAEBV?$FunctionCallbackInfo@VValue@v8@@@Nan@@@Z 000000018003eb94     CanvasRenderingContext2d.obj
 0002:0000dba4       $chain$0$?SetTextAlignment@Context2d@@SAXAEBV?$FunctionCallbackInfo@VValue@v8@@@Nan@@@Z 000000018003eba4     CanvasRenderingContext2d.obj
 0002:0000dbb8       $chain$1$?SetTextAlignment@Context2d@@SAXAEBV?$FunctionCallbackInfo@VValue@v8@@@Nan@@@Z 000000018003ebb8     CanvasRenderingContext2d.obj
 0002:0000dbc8       $unwind$?SetLineDash@Context2d@@SAXAEBV?$FunctionCallbackInfo@VValue@v8@@@Nan@@@Z 000000018003ebc8     CanvasRenderingContext2d.obj
 0002:0000dbec       $stateUnwindMap$?SetLineDash@Context2d@@SAXAEBV?$FunctionCallbackInfo@VValue@v8@@@Nan@@@Z 000000018003ebec     CanvasRenderingContext2d.obj
 0002:0000dbec       $stateUnwindMap$?GetLineDash@Context2d@@SAXAEBV?$FunctionCallbackInfo@VValue@v8@@@Nan@@@Z 000000018003ebec     CanvasRenderingContext2d.obj
 0002:0000dbf8       $ip2state$?SetLineDash@Context2d@@SAXAEBV?$FunctionCallbackInfo@VValue@v8@@@Nan@@@Z 000000018003ebf8     CanvasRenderingContext2d.obj
 0002:0000dc10       $unwind$?GetLineDash@Context2d@@SAXAEBV?$FunctionCallbackInfo@VValue@v8@@@Nan@@@Z 000000018003ec10     CanvasRenderingContext2d.obj
 0002:0000dc38       $ip2state$?GetLineDash@Context2d@@SAXAEBV?$FunctionCallbackInfo@VValue@v8@@@Nan@@@Z 000000018003ec38     CanvasRenderingContext2d.obj
 0002:0000dc50       $unwind$?SetLineDashOffset@Context2d@@SAXV?$Local@VString@v8@@@v8@@V?$Local@VValue@v8@@@3@AEBV?$PropertyCallbackInfo@X@Nan@@@Z 000000018003ec50     CanvasRenderingContext2d.obj
 0002:0000dc5c       $chain$5$?SetLineDashOffset@Context2d@@SAXV?$Local@VString@v8@@@v8@@V?$Local@VValue@v8@@@3@AEBV?$PropertyCallbackInfo@X@Nan@@@Z 000000018003ec5c     CanvasRenderingContext2d.obj
 0002:0000dc84       $chain$6$?SetLineDashOffset@Context2d@@SAXV?$Local@VString@v8@@@v8@@V?$Local@VValue@v8@@@3@AEBV?$PropertyCallbackInfo@X@Nan@@@Z 000000018003ec84     CanvasRenderingContext2d.obj
 0002:0000dc94       $chain$7$?SetLineDashOffset@Context2d@@SAXV?$Local@VString@v8@@@v8@@V?$Local@VValue@v8@@@3@AEBV?$PropertyCallbackInfo@X@Nan@@@Z 000000018003ec94     CanvasRenderingContext2d.obj
 0002:0000dcbc       $unwind$?ClearRect@Context2d@@SAXAEBV?$FunctionCallbackInfo@VValue@v8@@@Nan@@@Z 000000018003ecbc     CanvasRenderingContext2d.obj
 0002:0000dcbc       $unwind$?Rect@Context2d@@SAXAEBV?$FunctionCallbackInfo@VValue@v8@@@Nan@@@Z 000000018003ecbc     CanvasRenderingContext2d.obj
 0002:0000dcbc       $unwind$?FillRect@Context2d@@SAXAEBV?$FunctionCallbackInfo@VValue@v8@@@Nan@@@Z 000000018003ecbc     CanvasRenderingContext2d.obj
 0002:0000dcbc       $unwind$?StrokeRect@Context2d@@SAXAEBV?$FunctionCallbackInfo@VValue@v8@@@Nan@@@Z 000000018003ecbc     CanvasRenderingContext2d.obj
 0002:0000dcc4       $chain$3$?FillRect@Context2d@@SAXAEBV?$FunctionCallbackInfo@VValue@v8@@@Nan@@@Z 000000018003ecc4     CanvasRenderingContext2d.obj
 0002:0000dce4       $chain$4$?FillRect@Context2d@@SAXAEBV?$FunctionCallbackInfo@VValue@v8@@@Nan@@@Z 000000018003ece4     CanvasRenderingContext2d.obj
 0002:0000dcf8       $chain$5$?FillRect@Context2d@@SAXAEBV?$FunctionCallbackInfo@VValue@v8@@@Nan@@@Z 000000018003ecf8     CanvasRenderingContext2d.obj
 0002:0000dd08       $chain$6$?FillRect@Context2d@@SAXAEBV?$FunctionCallbackInfo@VValue@v8@@@Nan@@@Z 000000018003ed08     CanvasRenderingContext2d.obj
 0002:0000dd18       $chain$3$?StrokeRect@Context2d@@SAXAEBV?$FunctionCallbackInfo@VValue@v8@@@Nan@@@Z 000000018003ed18     CanvasRenderingContext2d.obj
 0002:0000dd38       $chain$4$?StrokeRect@Context2d@@SAXAEBV?$FunctionCallbackInfo@VValue@v8@@@Nan@@@Z 000000018003ed38     CanvasRenderingContext2d.obj
 0002:0000dd4c       $chain$5$?StrokeRect@Context2d@@SAXAEBV?$FunctionCallbackInfo@VValue@v8@@@Nan@@@Z 000000018003ed4c     CanvasRenderingContext2d.obj
 0002:0000dd5c       $chain$6$?StrokeRect@Context2d@@SAXAEBV?$FunctionCallbackInfo@VValue@v8@@@Nan@@@Z 000000018003ed5c     CanvasRenderingContext2d.obj
 0002:0000dd6c       $chain$3$?ClearRect@Context2d@@SAXAEBV?$FunctionCallbackInfo@VValue@v8@@@Nan@@@Z 000000018003ed6c     CanvasRenderingContext2d.obj
 0002:0000dd8c       $chain$4$?ClearRect@Context2d@@SAXAEBV?$FunctionCallbackInfo@VValue@v8@@@Nan@@@Z 000000018003ed8c     CanvasRenderingContext2d.obj
 0002:0000dda0       $chain$5$?ClearRect@Context2d@@SAXAEBV?$FunctionCallbackInfo@VValue@v8@@@Nan@@@Z 000000018003eda0     CanvasRenderingContext2d.obj
 0002:0000ddb0       $chain$6$?ClearRect@Context2d@@SAXAEBV?$FunctionCallbackInfo@VValue@v8@@@Nan@@@Z 000000018003edb0     CanvasRenderingContext2d.obj
 0002:0000ddc0       $chain$3$?Rect@Context2d@@SAXAEBV?$FunctionCallbackInfo@VValue@v8@@@Nan@@@Z 000000018003edc0     CanvasRenderingContext2d.obj
 0002:0000dde0       $chain$4$?Rect@Context2d@@SAXAEBV?$FunctionCallbackInfo@VValue@v8@@@Nan@@@Z 000000018003ede0     CanvasRenderingContext2d.obj
 0002:0000ddf0       $unwind$?Arc@Context2d@@SAXAEBV?$FunctionCallbackInfo@VValue@v8@@@Nan@@@Z 000000018003edf0     CanvasRenderingContext2d.obj
 0002:0000ddf8       $chain$7$?Arc@Context2d@@SAXAEBV?$FunctionCallbackInfo@VValue@v8@@@Nan@@@Z 000000018003edf8     CanvasRenderingContext2d.obj
 0002:0000de28       $chain$8$?Arc@Context2d@@SAXAEBV?$FunctionCallbackInfo@VValue@v8@@@Nan@@@Z 000000018003ee28     CanvasRenderingContext2d.obj
 0002:0000de38       $unwind$?ArcTo@Context2d@@SAXAEBV?$FunctionCallbackInfo@VValue@v8@@@Nan@@@Z 000000018003ee38     CanvasRenderingContext2d.obj
 0002:0000de44       $chain$8$?ArcTo@Context2d@@SAXAEBV?$FunctionCallbackInfo@VValue@v8@@@Nan@@@Z 000000018003ee44     CanvasRenderingContext2d.obj
 0002:0000de78       $chain$9$?ArcTo@Context2d@@SAXAEBV?$FunctionCallbackInfo@VValue@v8@@@Nan@@@Z 000000018003ee78     CanvasRenderingContext2d.obj
 0002:0000de8c       $chain$11$?ArcTo@Context2d@@SAXAEBV?$FunctionCallbackInfo@VValue@v8@@@Nan@@@Z 000000018003ee8c     CanvasRenderingContext2d.obj
 0002:0000dea4       $chain$12$?ArcTo@Context2d@@SAXAEBV?$FunctionCallbackInfo@VValue@v8@@@Nan@@@Z 000000018003eea4     CanvasRenderingContext2d.obj
 0002:0000deb4       $chain$13$?ArcTo@Context2d@@SAXAEBV?$FunctionCallbackInfo@VValue@v8@@@Nan@@@Z 000000018003eeb4     CanvasRenderingContext2d.obj
 0002:0000dec4       $unwind$swprintf           000000018003eec4     libucrt:assert.obj
 0002:0000dec4       $unwind$snprintf           000000018003eec4     color.obj
 0002:0000ded4       $unwind$?rgba_from_hsla@@YAHMMMM@Z 000000018003eed4     color.obj
 0002:0000df04       $unwind$?rgba_from_rgba_string@@YAHPEBDPEAF@Z 000000018003ef04     color.obj
 0002:0000df04       $unwind$?rgba_from_rgb_string@@YAHPEBDPEAF@Z 000000018003ef04     color.obj
 0002:0000df10       $chain$0$?rgba_from_rgb_string@@YAHPEBDPEAF@Z 000000018003ef10     color.obj
 0002:0000df24       $chain$2$?rgba_from_rgb_string@@YAHPEBDPEAF@Z 000000018003ef24     color.obj
 0002:0000df38       $chain$3$?rgba_from_rgb_string@@YAHPEBDPEAF@Z 000000018003ef38     color.obj
 0002:0000df48       $chain$0$?rgba_from_rgba_string@@YAHPEBDPEAF@Z 000000018003ef48     color.obj
 0002:0000df5c       $chain$2$?rgba_from_rgba_string@@YAHPEBDPEAF@Z 000000018003ef5c     color.obj
 0002:0000df70       $chain$3$?rgba_from_rgba_string@@YAHPEBDPEAF@Z 000000018003ef70     color.obj
 0002:0000df80       $unwind$?rgba_from_hsla_string@@YAHPEBDPEAF@Z 000000018003ef80     color.obj
 0002:0000df80       $unwind$?type_case_a@?$output_processor@DV?$string_output_adapter@D@__crt_stdio_output@@V?$standard_base@DV?$string_output_adapter@D@__crt_stdio_output@@@2@@__crt_stdio_output@@AEAA_NXZ 000000018003ef80     libucrt:output.obj
 0002:0000df8c       $chain$2$?rgba_from_hsla_string@@YAHPEBDPEAF@Z 000000018003ef8c     color.obj
 0002:0000dfa8       $chain$4$?rgba_from_hsla_string@@YAHPEBDPEAF@Z 000000018003efa8     color.obj
 0002:0000dfc4       $chain$5$?rgba_from_hsla_string@@YAHPEBDPEAF@Z 000000018003efc4     color.obj
 0002:0000dfd8       $chain$6$?rgba_from_hsla_string@@YAHPEBDPEAF@Z 000000018003efd8     color.obj
 0002:0000dfe8       $unwind$?rgba_from_hsl_string@@YAHPEBDPEAF@Z 000000018003efe8     color.obj
 0002:0000dff4       $chain$1$?rgba_from_hsl_string@@YAHPEBDPEAF@Z 000000018003eff4     color.obj
 0002:0000e00c       $chain$3$?rgba_from_hsl_string@@YAHPEBDPEAF@Z 000000018003f00c     color.obj
 0002:0000e024       $chain$4$?rgba_from_hsl_string@@YAHPEBDPEAF@Z 000000018003f024     color.obj
 0002:0000e034       $unwind$__acrt_initialize_fma3 000000018003f034     libucrt:fma3_available.obj
 0002:0000e034       $unwind$?rgba_from_name_string@@YAHPEBDPEAF@Z 000000018003f034     color.obj
 0002:0000e03c       $unwind$??$parse_css_number@M@@YA_NPEAPEBDPEAM@Z 000000018003f03c     color.obj
 0002:0000e048       $chain$1$??$parse_css_number@M@@YA_NPEAPEBDPEAM@Z 000000018003f048     color.obj
 0002:0000e060       $chain$3$??$parse_css_number@M@@YA_NPEAPEBDPEAM@Z 000000018003f060     color.obj
 0002:0000e078       $unwind$?GetFunction@Callback@Nan@@QEBA?AV?$Local@VFunction@v8@@@v8@@XZ 000000018003f078     Image.obj
 0002:0000e08c       $stateUnwindMap$?GetFunction@Callback@Nan@@QEBA?AV?$Local@VFunction@v8@@@v8@@XZ 000000018003f08c     Image.obj
 0002:0000e098       $ip2state$?GetFunction@Callback@Nan@@QEBA?AV?$Local@VFunction@v8@@@v8@@XZ 000000018003f098     Image.obj
 0002:0000e0b0       $unwind$??__F?constructor@Image@@2V?$Persistent@VFunctionTemplate@v8@@V?$NonCopyablePersistentTraits@VFunctionTemplate@v8@@@2@@Nan@@A@@YAXXZ 000000018003f0b0     Image.obj
 0002:0000e0c0       $ip2state$??__F?constructor@Image@@2V?$Persistent@VFunctionTemplate@v8@@V?$NonCopyablePersistentTraits@VFunctionTemplate@v8@@@2@@Nan@@A@@YAXXZ 000000018003f0c0     Image.obj
 0002:0000e0c8       $unwind$?Initialize@Image@@SAXV?$Local@VObject@v8@@@v8@@@Z 000000018003f0c8     Image.obj
 0002:0000e0e0       $ip2state$?Initialize@Image@@SAXV?$Local@VObject@v8@@@v8@@@Z 000000018003f0e0     Image.obj
 0002:0000e0f8       $unwind$?clearData@Image@@QEAAXXZ 000000018003f0f8     Image.obj
 0002:0000e104       $chain$2$?clearData@Image@@QEAAXXZ 000000018003f104     Image.obj
 0002:0000e120       $chain$3$?clearData@Image@@QEAAXXZ 000000018003f120     Image.obj
 0002:0000e138       $chain$4$?clearData@Image@@QEAAXXZ 000000018003f138     Image.obj
 0002:0000e148       $unwind$?SetSource@Image@@SAXV?$Local@VString@v8@@@v8@@V?$Local@VValue@v8@@@3@AEBV?$PropertyCallbackInfo@X@Nan@@@Z 000000018003f148     Image.obj
 0002:0000e154       $chain$0$?SetSource@Image@@SAXV?$Local@VString@v8@@@v8@@V?$Local@VValue@v8@@@3@AEBV?$PropertyCallbackInfo@X@Nan@@@Z 000000018003f154     Image.obj
 0002:0000e168       $chain$1$?SetSource@Image@@SAXV?$Local@VString@v8@@@v8@@V?$Local@VValue@v8@@@3@AEBV?$PropertyCallbackInfo@X@Nan@@@Z 000000018003f168     Image.obj
 0002:0000e178       $unwind$?SetOnload@Image@@SAXV?$Local@VString@v8@@@v8@@V?$Local@VValue@v8@@@3@AEBV?$PropertyCallbackInfo@X@Nan@@@Z 000000018003f178     Image.obj
 0002:0000e188       $stateUnwindMap$?SetOnerror@Image@@SAXV?$Local@VString@v8@@@v8@@V?$Local@VValue@v8@@@3@AEBV?$PropertyCallbackInfo@X@Nan@@@Z 000000018003f188     Image.obj
 0002:0000e188       $stateUnwindMap$?SetOnload@Image@@SAXV?$Local@VString@v8@@@v8@@V?$Local@VValue@v8@@@3@AEBV?$PropertyCallbackInfo@X@Nan@@@Z 000000018003f188     Image.obj
 0002:0000e190       $ip2state$?SetOnload@Image@@SAXV?$Local@VString@v8@@@v8@@V?$Local@VValue@v8@@@3@AEBV?$PropertyCallbackInfo@X@Nan@@@Z 000000018003f190     Image.obj
 0002:0000e1a8       $unwind$?SetOnerror@Image@@SAXV?$Local@VString@v8@@@v8@@V?$Local@VValue@v8@@@3@AEBV?$PropertyCallbackInfo@X@Nan@@@Z 000000018003f1a8     Image.obj
 0002:0000e1b8       $ip2state$?SetOnerror@Image@@SAXV?$Local@VString@v8@@@v8@@V?$Local@VValue@v8@@@3@AEBV?$PropertyCallbackInfo@X@Nan@@@Z 000000018003f1b8     Image.obj
 0002:0000e1d0       $unwind$??1Image@@EEAA@XZ  000000018003f1d0     Image.obj
 0002:0000e1e8       $stateUnwindMap$??1Image@@EEAA@XZ 000000018003f1e8     Image.obj
 0002:0000e240       $ip2state$??1Image@@EEAA@XZ 000000018003f240     Image.obj
 0002:0000e288       $unwind$?loaded@Image@@QEAAXXZ 000000018003f288     Image.obj
 0002:0000e2a0       $ip2state$?loaded@Image@@QEAAXXZ 000000018003f2a0     Image.obj
 0002:0000e2b8       $unwind$?error@Image@@QEAAXV?$Local@VValue@v8@@@v8@@@Z 000000018003f2b8     Image.obj
 0002:0000e2d0       $ip2state$?error@Image@@QEAAXV?$Local@VValue@v8@@@v8@@@Z 000000018003f2d0     Image.obj
 0002:0000e2e8       $unwind$?loadSurface@Image@@QEAA?AW4_cairo_status@@XZ 000000018003f2e8     Image.obj
 0002:0000e2fc       $unwind$??__F?constructor@ImageData@@2V?$Persistent@VFunctionTemplate@v8@@V?$NonCopyablePersistentTraits@VFunctionTemplate@v8@@@2@@Nan@@A@@YAXXZ 000000018003f2fc     ImageData.obj
 0002:0000e310       $ip2state$??__F?constructor@ImageData@@2V?$Persistent@VFunctionTemplate@v8@@V?$NonCopyablePersistentTraits@VFunctionTemplate@v8@@@2@@Nan@@A@@YAXXZ 000000018003f310     ImageData.obj
 0002:0000e318       $unwind$?Initialize@ImageData@@SAXV?$Local@VObject@v8@@@v8@@@Z 000000018003f318     ImageData.obj
 0002:0000e330       $ip2state$?Initialize@ImageData@@SAXV?$Local@VObject@v8@@@v8@@@Z 000000018003f330     ImageData.obj
 0002:0000e348       $unwind$?New@ImageData@@SAXAEBV?$FunctionCallbackInfo@VValue@v8@@@Nan@@@Z 000000018003f348     ImageData.obj
 0002:0000e364       $stateUnwindMap$?New@ImageData@@SAXAEBV?$FunctionCallbackInfo@VValue@v8@@@Nan@@@Z 000000018003f364     ImageData.obj
 0002:0000e3b0       $ip2state$?New@ImageData@@SAXAEBV?$FunctionCallbackInfo@VValue@v8@@@Nan@@@Z 000000018003f3b0     ImageData.obj
 0002:0000e438       $unwind$?init@@YAXV?$Local@VObject@v8@@@v8@@@Z 000000018003f438     init.obj
 0002:0000e440       xdata                      000000018003f440     node:node.exe
 0002:0000e448       $unwind$?_Xlength_error@std@@YAXPEBD@Z 000000018003f448     libcpmt:xthrow.obj
 0002:0000e448       $unwind$_raise_exc         000000018003f448     libucrt:fpexcept.obj
 0002:0000e448       $unwind$__dcrt_lowio_initialize_console_output 000000018003f448     libucrt:initcon.obj
 0002:0000e448       $unwind$_raise_excf        000000018003f448     libucrt:fpexcept.obj
 0002:0000e448       $unwind$?_Xbad_alloc@std@@YAXXZ 000000018003f448     libcpmt:xthrow.obj
 0002:0000e448       $unwind$?__scrt_throw_std_bad_array_new_length@@YAXXZ 000000018003f448     LIBCMT:throw_bad_alloc.obj
 0002:0000e448       $unwind$?__scrt_throw_std_bad_alloc@@YAXXZ 000000018003f448     LIBCMT:throw_bad_alloc.obj
 0002:0000e450       $xdatasym                  000000018003f450     LIBCMT:_amdsecgs_.obj
 0002:0000e454       $unwind$??_M@YAXPEAX_K1P6AX0@Z@Z 000000018003f454     LIBCMT:ehvecdtr.obj
 0002:0000e47c       $unwind$?__ArrayUnwind@@YAXPEAX_K1P6AX0@Z@Z 000000018003f47c     LIBCMT:ehvecdtr.obj
 0002:0000e4a8       $unwind$__scrt_is_nonwritable_in_current_image 000000018003f4a8     LIBCMT:utility.obj
 0002:0000e4c8       $unwind$__scrt_is_nonwritable_in_current_image$filt$0 000000018003f4c8     LIBCMT:utility.obj
 0002:0000e4d0       $unwind$__scrt_initialize_onexit_tables 000000018003f4d0     LIBCMT:utility.obj
 0002:0000e4dc       $unwind$?dllmain_crt_process_attach@@YAHQEAUHINSTANCE__@@QEAX@Z 000000018003f4dc     LIBCMT:dll_dllmain.obj
 0002:0000e508       $unwind$?dllmain_crt_process_detach@@YAH_N@Z 000000018003f508     LIBCMT:dll_dllmain.obj
 0002:0000e530       $unwind$?dllmain_dispatch@@YAHQEAUHINSTANCE__@@KQEAX@Z 000000018003f530     LIBCMT:dll_dllmain.obj
 0002:0000e558       $unwind$fread_s$fin$0      000000018003f558     libucrt:fread.obj
 0002:0000e558       $unwind$?filt$0@?0??dllmain_dispatch@@YAHQEAUHINSTANCE__@@KQEAX@Z@4HA 000000018003f558     LIBCMT:dll_dllmain.obj
 0002:0000e560       $unwind$__report_gsfailure 000000018003f560     LIBCMT:gs_report.obj
 0002:0000e560       $unwind$_putwch_nolock     000000018003f560     libucrt:putwch.obj
 0002:0000e568       $unwind$capture_previous_context 000000018003f568     LIBCMT:gs_report.obj
 0002:0000e574       $unwind$__isa_available_init 000000018003f574     LIBCMT:_cpu_disp_.obj
 0002:0000e580       $unwind$__scrt_fastfail    000000018003f580     LIBCMT:utility_desktop.obj
 0002:0000e590       $unwind$__security_init_cookie 000000018003f590     LIBCMT:gs_support.obj
 0002:0000e5a0       $xdatasym                  000000018003f5a0     LIBCMT:_guard_dispatch_.obj
 0002:0000e5a4       $unwind$__CxxCallCatchBlock 000000018003f5a4     libvcruntime:frame.obj
 0002:0000e5e0       $unwind$__CxxCallCatchBlock$fin$1 000000018003f5e0     libvcruntime:frame.obj
 0002:0000e5ec       $unwind$__FrameUnwindToState 000000018003f5ec     libvcruntime:frame.obj
 0002:0000e628       $unwind$?FindHandler@@YAXPEAUEHExceptionRecord@@PEA_KPEAU_CONTEXT@@PEAU_xDISPATCHER_CONTEXT@@PEBU_s_FuncInfo@@EH1@Z 000000018003f628     libvcruntime:frame.obj
 0002:0000e648       $unwind$?CatchIt@@YAXPEAUEHExceptionRecord@@PEA_KPEAU_CONTEXT@@PEAU_xDISPATCHER_CONTEXT@@PEBU_s_FuncInfo@@PEBU_s_HandlerType@@PEBU_s_CatchableType@@PEBU_s_TryBlockMapEntry@@H1EE@Z 000000018003f648     libvcruntime:frame.obj
 0002:0000e660       $unwind$__BuildCatchObject 000000018003f660     libvcruntime:frame.obj
 0002:0000e68c       $unwind$?FindHandlerForForeignException@@YAXPEAUEHExceptionRecord@@PEA_KPEAU_CONTEXT@@PEAU_xDISPATCHER_CONTEXT@@PEBU_s_FuncInfo@@HH1@Z 000000018003f68c     libvcruntime:frame.obj
 0002:0000e6a4       $unwind$__DestructExceptionObject 000000018003f6a4     libvcruntime:frame.obj
 0002:0000e6c8       $unwind$__BuildCatchObjectHelper 000000018003f6c8     libvcruntime:frame.obj
 0002:0000e708       $unwind$strstr             000000018003f708     libvcruntime:strstr.obj
 0002:0000e714       $unwind$?initialize_stdio_handles_nolock@@YAXXZ 000000018003f714     libucrt:ioinit.obj
 0002:0000e714       $unwind$__std_exception_copy 000000018003f714     libvcruntime:std_exception.obj
 0002:0000e714       $unwind$_free_osfhnd       000000018003f714     libucrt:osfinfo.obj
 0002:0000e728       $unwind$_CxxThrowException 000000018003f728     libvcruntime:throw.obj
 0002:0000e73c       $unwind$__C_specific_handler 000000018003f73c     libvcruntime:_chandler_.obj
 0002:0000e73c       $unwind$__InternalCxxFrameHandler 000000018003f73c     libvcruntime:frame.obj
 0002:0000e758       $unwind$__telemetry_main_invoke_trigger 000000018003f758     libvcruntime:telemetry.obj
 0002:0000e758       $unwind$__telemetry_main_return_trigger 000000018003f758     libvcruntime:telemetry.obj
 0002:0000e770       $unwind$?_TlgEnableCallback@__vcrt_trace_logging_provider@@YAXPEBU_GUID@@KE_K1PEAU_EVENT_FILTER_DESCRIPTOR@@PEAX@Z 000000018003f770     libvcruntime:telemetry.obj
 0002:0000e790       $xdatasym                  000000018003f790     libvcruntime:memset.obj
 0002:0000e798       $xdatasym                  000000018003f798     libvcruntime:_longjmp_.obj
 0002:0000e7a0       $xdatasym                  000000018003f7a0     libvcruntime:memcpy.obj
 0002:0000e7a8       $xdatasym                  000000018003f7a8     libvcruntime:handlers.obj
 0002:0000e7b0       $unwind$?_GetEstablisherFrame@@YAPEA_KPEA_KPEAU_xDISPATCHER_CONTEXT@@PEBU_s_FuncInfo@@0@Z 000000018003f7b0     libvcruntime:trnsctrl.obj
 0002:0000e7c8       $unwind$?__FrameUnwindToEmptyState@@YAXPEA_KPEAU_xDISPATCHER_CONTEXT@@PEBU_s_FuncInfo@@@Z 000000018003f7c8     libvcruntime:trnsctrl.obj
 0002:0000e7dc       $unwind$_CallSETranslator  000000018003f7dc     libvcruntime:trnsctrl.obj
 0002:0000e800       $unwind$_CallSETranslator$filt$0 000000018003f800     libvcruntime:trnsctrl.obj
 0002:0000e800       $unwind$?fin$0@?0???$common_sopen_dispatch@D@@YAHQEBDHHHQEAHH@Z@4HA 000000018003f800     libucrt:open.obj
 0002:0000e808       $unwind$?write_string@?$string_output_adapter@D@__crt_stdio_output@@QEBAXQEBDHQEAH1@Z 000000018003f808     libucrt:output.obj
 0002:0000e808       $unwind$?_GetRangeOfTrysToCheck@@YAPEBU_s_TryBlockMapEntry@@PEA_KPEBU_s_FuncInfo@@HHPEAI2PEAU_xDISPATCHER_CONTEXT@@@Z 000000018003f808     libvcruntime:trnsctrl.obj
 0002:0000e808       $unwind$??R<lambda_4e60a939b0d047cfe11ddc22648dfba9>@@QEBAHXZ 000000018003f808     libucrt:onexit.obj
 0002:0000e824       $unwind$_UnwindNestedFrames 000000018003f824     libvcruntime:trnsctrl.obj
 0002:0000e838       $unwind$__CxxFrameHandler3 000000018003f838     libvcruntime:trnsctrl.obj
 0002:0000e848       $unwind$?__SehTransFilter@@YAHPEAU_EXCEPTION_POINTERS@@PEAUEHExceptionRecord@@PEA_KPEAU_CONTEXT@@PEAU_xDISPATCHER_CONTEXT@@PEBU_s_FuncInfo@@PEAH@Z 000000018003f848     libvcruntime:trnsctrl.obj
 0002:0000e848       $unwind$_strnicmp_l        000000018003f848     libucrt:strnicmp.obj
 0002:0000e860       $xdatasym                  000000018003f860     libvcruntime:_jmpuwind_.obj
 0002:0000e874       $unwind$__vcrt_uninitialize_winapi_thunks 000000018003f874     libvcruntime:winapi_downlevel.obj
 0002:0000e874       $unwind$__acrt_stdio_end_temporary_buffering_nolock 000000018003f874     libucrt:_sftbuf.obj
 0002:0000e87c       $unwind$fwprintf           000000018003f87c     libucrt:assert.obj
 0002:0000e888       $unwind$??$common_assert_to_stderr@_W@@YAXQEB_W0I@Z 000000018003f888     libucrt:assert.obj
 0002:0000e8a4       $unwind$??$common_assert_to_message_box@_W@@YAXQEB_W0IQEAX@Z 000000018003f8a4     libucrt:assert.obj
 0002:0000e8c0       $unwind$??$common_assert_to_message_box_build_string@_W@@YAXQEA_W_KQEB_W2IQEAX@Z 000000018003f8c0     libucrt:assert.obj
 0002:0000e8e0       $unwind$_sopen_s           000000018003f8e0     libucrt:open.obj
 0002:0000e8e0       $unwind$_invalid_parameter_noinfo_noreturn 000000018003f8e0     libucrt:invalid_parameter.obj
 0002:0000e8e0       $unwind$_itow_s            000000018003f8e0     libucrt:xtoa.obj
 0002:0000e8e0       $unwind$wctomb_s           000000018003f8e0     libucrt:wctomb.obj
 0002:0000e8e0       $unwind$_log10_special     000000018003f8e0     libucrt:log_special.obj
 0002:0000e8e0       $unwind$fread              000000018003f8e0     libucrt:fread.obj
 0002:0000e8e0       $unwind$_invalid_parameter_noinfo 000000018003f8e0     libucrt:invalid_parameter.obj
 0002:0000e8e8       $unwind$__acrt_call_reportfault 000000018003f8e8     libucrt:invalid_parameter.obj
 0002:0000e908       $unwind$_invalid_parameter 000000018003f908     libucrt:invalid_parameter.obj
 0002:0000e908       $unwind$__vcrt_EventWriteTransfer 000000018003f908     libvcruntime:winapi_downlevel.obj
 0002:0000e920       $unwind$_initterm          000000018003f920     libucrt:initterm.obj
 0002:0000e920       $unwind$__vcrt_EventRegister 000000018003f920     libvcruntime:winapi_downlevel.obj
 0002:0000e920       $unwind$__vcrt_EventSetInformation 000000018003f920     libvcruntime:winapi_downlevel.obj
 0002:0000e920       $unwind$?process@?$output_processor@_WV?$string_output_adapter@_W@__crt_stdio_output@@V?$standard_base@_WV?$string_output_adapter@_W@__crt_stdio_output@@@2@@__crt_stdio_output@@QEAAHXZ 000000018003f920     libucrt:output.obj
 0002:0000e920       $unwind$__TypeMatch        000000018003f920     libvcruntime:frame.obj
 0002:0000e920       $unwind$__acrt_lowio_set_os_handle 000000018003f920     libucrt:osfinfo.obj
 0002:0000e920       $unwind$__GSHandlerCheck_EH 000000018003f920     LIBCMT:gshandlereh.obj
 0002:0000e920       $unwind$__acrt_MessageBoxW 000000018003f920     libucrt:winapi_thunks.obj
 0002:0000e920       $unwind$__acrt_initialize_stdio 000000018003f920     libucrt:_file.obj
 0002:0000e938       $unwind$__stdio_common_vfwprintf 000000018003f938     libucrt:output.obj
 0002:0000e940       $unwind$__stdio_common_vswprintf 000000018003f940     libucrt:output.obj
 0002:0000e940       $unwind$__stdio_common_vsprintf 000000018003f940     libucrt:output.obj
 0002:0000e964       $unwind$?write_string@?$stream_output_adapter@_W@__crt_stdio_output@@QEBAXQEB_WHQEAH1@Z 000000018003f964     libucrt:output.obj
 0002:0000e97c       $unwind$?process@?$output_processor@_WV?$stream_output_adapter@_W@__crt_stdio_output@@V?$standard_base@_WV?$stream_output_adapter@_W@__crt_stdio_output@@@2@@__crt_stdio_output@@QEAAHXZ 000000018003f97c     libucrt:output.obj
 0002:0000e994       $unwind$?parse_int_from_format_string@?$output_processor@_WV?$stream_output_adapter@_W@__crt_stdio_output@@V?$standard_base@_WV?$stream_output_adapter@_W@__crt_stdio_output@@@2@@__crt_stdio_output@@AEAA_NQEAH@Z 000000018003f994     libucrt:output.obj
 0002:0000e994       $unwind$?parse_int_from_format_string@?$output_processor@_WV?$string_output_adapter@_W@__crt_stdio_output@@V?$standard_base@_WV?$string_output_adapter@_W@__crt_stdio_output@@@2@@__crt_stdio_output@@AEAA_NQEAH@Z 000000018003f994     libucrt:output.obj
 0002:0000e9a8       $unwind$?write_stored_string_tchar@?$output_processor@_WV?$stream_output_adapter@_W@__crt_stdio_output@@V?$standard_base@_WV?$stream_output_adapter@_W@__crt_stdio_output@@@2@@__crt_stdio_output@@AEAA_N_W@Z 000000018003f9a8     libucrt:output.obj
 0002:0000e9bc       $unwind$??R<lambda_dd75445284c072d0bd3768540cc698fa>@@QEBAHXZ 000000018003f9bc     libucrt:output.obj
 0002:0000e9d8       $unwind$?process@?$output_processor@DV?$string_output_adapter@D@__crt_stdio_output@@V?$standard_base@DV?$string_output_adapter@D@__crt_stdio_output@@@2@@__crt_stdio_output@@QEAAHXZ 000000018003f9d8     libucrt:output.obj
 0002:0000e9e8       $unwind$?parse_int_from_format_string@?$output_processor@DV?$string_output_adapter@D@__crt_stdio_output@@V?$standard_base@DV?$string_output_adapter@D@__crt_stdio_output@@@2@@__crt_stdio_output@@AEAA_NQEAH@Z 000000018003f9e8     libucrt:output.obj
 0002:0000e9fc       $unwind$?write_stored_string_tchar@?$output_processor@DV?$string_output_adapter@D@__crt_stdio_output@@V?$standard_base@DV?$string_output_adapter@D@__crt_stdio_output@@@2@@__crt_stdio_output@@AEAA_ND@Z 000000018003f9fc     libucrt:output.obj
 0002:0000ea14       $unwind$?state_case_type@?$output_processor@_WV?$string_output_adapter@_W@__crt_stdio_output@@V?$standard_base@_WV?$string_output_adapter@_W@__crt_stdio_output@@@2@@__crt_stdio_output@@AEAA_NXZ 000000018003fa14     libucrt:output.obj
 0002:0000ea14       $unwind$?state_case_type@?$output_processor@_WV?$stream_output_adapter@_W@__crt_stdio_output@@V?$standard_base@_WV?$stream_output_adapter@_W@__crt_stdio_output@@@2@@__crt_stdio_output@@AEAA_NXZ 000000018003fa14     libucrt:output.obj
 0002:0000ea38       $unwind$?type_case_a@?$output_processor@_WV?$string_output_adapter@_W@__crt_stdio_output@@V?$standard_base@_WV?$string_output_adapter@_W@__crt_stdio_output@@@2@@__crt_stdio_output@@AEAA_NXZ 000000018003fa38     libucrt:output.obj
 0002:0000ea38       $unwind$?type_case_a@?$output_processor@_WV?$stream_output_adapter@_W@__crt_stdio_output@@V?$standard_base@_WV?$stream_output_adapter@_W@__crt_stdio_output@@@2@@__crt_stdio_output@@AEAA_NXZ 000000018003fa38     libucrt:output.obj
 0002:0000ea48       $unwind$?write_stored_string_tchar@?$output_processor@_WV?$string_output_adapter@_W@__crt_stdio_output@@V?$standard_base@_WV?$string_output_adapter@_W@__crt_stdio_output@@@2@@__crt_stdio_output@@AEAA_N_W@Z 000000018003fa48     libucrt:output.obj
 0002:0000ea5c       $unwind$??$write_multiple_characters@V?$stream_output_adapter@_W@__crt_stdio_output@@D@__crt_stdio_output@@YAXAEBV?$stream_output_adapter@_W@0@DHQEAH@Z 000000018003fa5c     libucrt:output.obj
 0002:0000ea74       $unwind$??$write_multiple_characters@V?$string_output_adapter@_W@__crt_stdio_output@@D@__crt_stdio_output@@YAXAEBV?$string_output_adapter@_W@0@DHQEAH@Z 000000018003fa74     libucrt:output.obj
 0002:0000ea80       $unwind$??$write_multiple_characters@V?$string_output_adapter@D@__crt_stdio_output@@D@__crt_stdio_output@@YAXAEBV?$string_output_adapter@D@0@DHQEAH@Z 000000018003fa80     libucrt:output.obj
 0002:0000ea80       $unwind$??$type_case_integer_parse_into_buffer@_K@?$output_processor@DV?$string_output_adapter@D@__crt_stdio_output@@V?$standard_base@DV?$string_output_adapter@D@__crt_stdio_output@@@2@@__crt_stdio_output@@AEAAX_KI_N@Z 000000018003fa80     libucrt:output.obj
 0002:0000ea80       $unwind$??$type_case_integer_parse_into_buffer@I@?$output_processor@_WV?$stream_output_adapter@_W@__crt_stdio_output@@V?$standard_base@_WV?$stream_output_adapter@_W@__crt_stdio_output@@@2@@__crt_stdio_output@@AEAAXII_N@Z 000000018003fa80     libucrt:output.obj
 0002:0000ea80       $unwind$??$type_case_integer_parse_into_buffer@I@?$output_processor@DV?$string_output_adapter@D@__crt_stdio_output@@V?$standard_base@DV?$string_output_adapter@D@__crt_stdio_output@@@2@@__crt_stdio_output@@AEAAXII_N@Z 000000018003fa80     libucrt:output.obj
 0002:0000ea80       $unwind$??$type_case_integer_parse_into_buffer@_K@?$output_processor@_WV?$string_output_adapter@_W@__crt_stdio_output@@V?$standard_base@_WV?$string_output_adapter@_W@__crt_stdio_output@@@2@@__crt_stdio_output@@AEAAX_KI_N@Z 000000018003fa80     libucrt:output.obj
 0002:0000ea80       $unwind$??$type_case_integer_parse_into_buffer@I@?$output_processor@_WV?$string_output_adapter@_W@__crt_stdio_output@@V?$standard_base@_WV?$string_output_adapter@_W@__crt_stdio_output@@@2@@__crt_stdio_output@@AEAAXII_N@Z 000000018003fa80     libucrt:output.obj
 0002:0000ea80       $unwind$??$type_case_integer_parse_into_buffer@_K@?$output_processor@_WV?$stream_output_adapter@_W@__crt_stdio_output@@V?$standard_base@_WV?$stream_output_adapter@_W@__crt_stdio_output@@@2@@__crt_stdio_output@@AEAAX_KI_N@Z 000000018003fa80     libucrt:output.obj
 0002:0000ea88       $unwind$??$?RV<lambda_7b91131dde12e1c3dfc74ff76b3f2eac>@@AEAV<lambda_dd75445284c072d0bd3768540cc698fa>@@V<lambda_16bc4ecb55b4718497c16bceaea2ceaf>@@@?$__crt_seh_guarded_call@H@@QEAAH$$QEAV<lambda_7b91131dde12e1c3dfc74ff76b3f2eac>@@AEAV<lambda_dd75445284c072d0bd3768540cc698fa>@@$$QEAV<lambda_16bc4ecb55b4718497c16bceaea2ceaf>@@@Z 000000018003fa88     libucrt:output.obj
 0002:0000eaac       $unwind$??$common_fsopen@D@@YAPEAU_iobuf@@QEBD0H@Z 000000018003faac     libucrt:fopen.obj
 0002:0000ead4       $unwind$fclose             000000018003fad4     libucrt:fclose.obj
 0002:0000eaf8       $unwind$?common_fseek_binary_mode_read_only_fast_track_nolock@@YA_NV__crt_stdio_stream@@_JH@Z 000000018003faf8     libucrt:fseek.obj
 0002:0000eb04       $unwind$?common_fseek@@YAHV__crt_stdio_stream@@_JH@Z 000000018003fb04     libucrt:fseek.obj
 0002:0000eb28       $unwind$fread_s            000000018003fb28     libucrt:fread.obj
 0002:0000eb58       $unwind$_fread_nolock_s    000000018003fb58     libucrt:fread.obj
 0002:0000eb70       $unwind$_stricmp_l         000000018003fb70     libucrt:stricmp.obj
 0002:0000eb80       $unwind$_query_new_handler 000000018003fb80     libucrt:new_handler.obj
 0002:0000eba0       $unwind$terminate          000000018003fba0     libucrt:terminate.obj
 0002:0000ebc0       $unwind$?common_exit@@YAXHW4_crt_exit_cleanup_mode@@W4_crt_exit_return_mode@@@Z 000000018003fbc0     libucrt:exit.obj
 0002:0000ec00       $unwind$_register_onexit_function 000000018003fc00     libucrt:onexit.obj
 0002:0000ec08       $unwind$_execute_onexit_table 000000018003fc08     libucrt:onexit.obj
 0002:0000ec10       $unwind$??$?RV<lambda_b8c45f8f788dd370798f47cfe8ac3a86>@@AEAV<lambda_4e60a939b0d047cfe11ddc22648dfba9>@@V<lambda_332c3edc96d0294ec56c57d38c1cdfd5>@@@?$__crt_seh_guarded_call@H@@QEAAH$$QEAV<lambda_b8c45f8f788dd370798f47cfe8ac3a86>@@AEAV<lambda_4e60a939b0d047cfe11ddc22648dfba9>@@$$QEAV<lambda_332c3edc96d0294ec56c57d38c1cdfd5>@@@Z 000000018003fc10     libucrt:onexit.obj
 0002:0000ec34       $unwind$??$?RV<lambda_e24bbb7b643b32fcea6fa61b31d4c984>@@AEAV<lambda_275893d493268fdec8709772e3fcec0e>@@V<lambda_9d71df4d7cf3f480f8d633942495c3b0>@@@?$__crt_seh_guarded_call@H@@QEAAH$$QEAV<lambda_e24bbb7b643b32fcea6fa61b31d4c984>@@AEAV<lambda_275893d493268fdec8709772e3fcec0e>@@$$QEAV<lambda_9d71df4d7cf3f480f8d633942495c3b0>@@@Z 000000018003fc34     libucrt:onexit.obj
 0002:0000ec64       $unwind$_strdup            000000018003fc64     libucrt:strdup.obj
 0002:0000ec74       $unwind$??$parse_integer@KV?$c_string_character_source@D@__crt_strtox@@@__crt_strtox@@YAKQEAU__crt_locale_pointers@@V?$c_string_character_source@D@0@H_N@Z 000000018003fc74     libucrt:atox.obj
 0002:0000ec90       $unwind$??$parse_integer@KV?$c_string_character_source@_W@__crt_strtox@@@__crt_strtox@@YAKQEAU__crt_locale_pointers@@V?$c_string_character_source@_W@0@H_N@Z 000000018003fc90     libucrt:atox.obj
 0002:0000ecac       $unwind$fflush             000000018003fcac     libucrt:fflush.obj
 0002:0000ecd0       $unwind$common_flush_all   000000018003fcd0     libucrt:fflush.obj
 0002:0000ed0c       $unwind$setvbuf            000000018003fd0c     libucrt:setvbuf.obj
 0002:0000ed14       $unwind$??$?RV<lambda_7a5ef57ff966f610505f1d28a3d40618>@@AEAV<lambda_b721fa326cdb32351d23dfa67958c160>@@V<lambda_5e0fb27672408a07956fe59e48ccb2aa>@@@?$__crt_seh_guarded_call@H@@QEAAH$$QEAV<lambda_7a5ef57ff966f610505f1d28a3d40618>@@AEAV<lambda_b721fa326cdb32351d23dfa67958c160>@@$$QEAV<lambda_5e0fb27672408a07956fe59e48ccb2aa>@@@Z 000000018003fd14     libucrt:setvbuf.obj
 0002:0000ed38       $unwind$__acrt_get_sigabrt_handler 000000018003fd38     libucrt:signal.obj
 0002:0000ed40       $unwind$raise              000000018003fd40     libucrt:signal.obj
 0002:0000ed6c       $unwind$??$?RV<lambda_c36588078e9f5dfd39652860aa6b3aaf>@@AEAV<lambda_ec61778202f4f5fc7e7711acc23c3bca>@@V<lambda_dc9d2797ccde5d239b4a0efae8ebd7db>@@@?$__crt_seh_guarded_call@P6AXH@Z@@QEAAP6AXH@Z$$QEAV<lambda_c36588078e9f5dfd39652860aa6b3aaf>@@AEAV<lambda_ec61778202f4f5fc7e7711acc23c3bca>@@$$QEAV<lambda_dc9d2797ccde5d239b4a0efae8ebd7db>@@@Z 000000018003fd6c     libucrt:signal.obj
 0002:0000ed90       $unwind$_call_matherr      000000018003fd90     libucrt:libm_error.obj
 0002:0000ed98       $unwind$_handle_error      000000018003fd98     libucrt:libm_error.obj
 0002:0000ed98       $unwind$_handle_errorf     000000018003fd98     libucrt:libm_error.obj
 0002:0000edb8       $unwind$?construct_ptd_array@@YAXQEAU__acrt_ptd@@@Z 000000018003fdb8     libucrt:per_thread_data.obj
 0002:0000edc0       $unwind$?destroy_ptd_array@@YAXQEAU__acrt_ptd@@@Z 000000018003fdc0     libucrt:per_thread_data.obj
 0002:0000edc8       $unwind$??$?RV<lambda_72d1df2b273a38828b1ce30cbf4cdab5>@@AEAV<lambda_876a65b173b8412d3a47c70a915b0cf4>@@V<lambda_41932305e351933ebe8f8be3ed8bb5dc>@@@?$__crt_seh_guarded_call@X@@QEAAX$$QEAV<lambda_72d1df2b273a38828b1ce30cbf4cdab5>@@AEAV<lambda_876a65b173b8412d3a47c70a915b0cf4>@@$$QEAV<lambda_41932305e351933ebe8f8be3ed8bb5dc>@@@Z 000000018003fdc8     libucrt:per_thread_data.obj
 0002:0000edec       $unwind$??$?RV<lambda_5e887d1dcbef67a5eb4283622ba103bf>@@AEAV<lambda_4466841279450cc726390878d4a41900>@@V<lambda_341c25c0346d94847f1f3c463c57e077>@@@?$__crt_seh_guarded_call@X@@QEAAX$$QEAV<lambda_5e887d1dcbef67a5eb4283622ba103bf>@@AEAV<lambda_4466841279450cc726390878d4a41900>@@$$QEAV<lambda_341c25c0346d94847f1f3c463c57e077>@@@Z 000000018003fdec     libucrt:per_thread_data.obj
 0002:0000ee10       $unwind$??$?RV<lambda_46352004c1216016012b18bd6f87e700>@@AEAV<lambda_3bd07e1a1191394380780325891bf33f>@@V<lambda_334532d3f185bcaa59b5be82d7d22bff>@@@?$__crt_seh_guarded_call@X@@QEAAX$$QEAV<lambda_46352004c1216016012b18bd6f87e700>@@AEAV<lambda_3bd07e1a1191394380780325891bf33f>@@$$QEAV<lambda_334532d3f185bcaa59b5be82d7d22bff>@@@Z 000000018003fe10     libucrt:per_thread_data.obj
 0002:0000ee34       $unwind$??$?RV<lambda_fb3a7dec4e47f37f22dae91bb15c9095>@@AEAV<lambda_698284760c8add0bfb0756c19673e34b>@@V<lambda_dfb8eca1e75fef3034a8fb18dd509707>@@@?$__crt_seh_guarded_call@X@@QEAAX$$QEAV<lambda_fb3a7dec4e47f37f22dae91bb15c9095>@@AEAV<lambda_698284760c8add0bfb0756c19673e34b>@@$$QEAV<lambda_dfb8eca1e75fef3034a8fb18dd509707>@@@Z 000000018003fe34     libucrt:per_thread_data.obj
 0002:0000ee58       $unwind$__acrt_initialize_winapi_thunks 000000018003fe58     libucrt:winapi_thunks.obj
 0002:0000ee58       $unwind$__vcrt_initialize_winapi_thunks 000000018003fe58     libvcruntime:winapi_downlevel.obj
 0002:0000ee60       $unwind$__acrt_show_wide_message_box 000000018003fe60     libucrt:crtmbox.obj
 0002:0000ee60       $unwind$_mbtowc_l          000000018003fe60     libucrt:mbtowc.obj
 0002:0000ee60       $unwind$__acrt_LCMapStringEx 000000018003fe60     libucrt:winapi_thunks.obj
 0002:0000ee78       $unwind$__acrt_is_interactive 000000018003fe78     libucrt:winapi_thunks.obj
 0002:0000ee8c       $unwind$iswctype           000000018003fe8c     libucrt:iswctype.obj
 0002:0000ee8c       $unwind$__acrt_is_packaged_app 000000018003fe8c     libucrt:winapi_thunks.obj
 0002:0000ee98       $unwind$?try_get_function@@YAPEAXW4function_id@?A0xece66f1d@@QEBDQEBW4module_id@2@2@Z 000000018003fe98     libvcruntime:winapi_downlevel.obj
 0002:0000ee98       $unwind$?IsInExceptionSpec@@YAEPEAUEHExceptionRecord@@PEBU_s_ESTypeList@@@Z 000000018003fe98     libvcruntime:frame.obj
 0002:0000ee98       $unwind$?write_string@?$string_output_adapter@_W@__crt_stdio_output@@QEBAXQEB_WHQEAH1@Z 000000018003fe98     libucrt:output.obj
 0002:0000ee98       $unwind$?try_get_function@@YAPEAXW4function_id@?A0x1dd686d3@@QEBDQEBW4module_id@2@2@Z 000000018003fe98     libucrt:winapi_thunks.obj
 0002:0000eeb4       $unwind$_fcloseall         000000018003feb4     libucrt:closeall.obj
 0002:0000eed8       $unwind$__acrt_initialize_lowio 000000018003fed8     libucrt:ioinit.obj
 0002:0000eef8       $unwind$?initialize_inherited_file_handles_nolock@@YAXXZ 000000018003fef8     libucrt:ioinit.obj
 0002:0000ef14       $unwind$_tolower_l         000000018003ff14     libucrt:tolower_toupper.obj
 0002:0000ef24       $unwind$_wctomb_s_l        000000018003ff24     libucrt:wctomb.obj
 0002:0000ef34       $unwind$strnlen            000000018003ff34     libucrt:strnlen.obj
 0002:0000ef34       $unwind$wcsnlen            000000018003ff34     libucrt:strnlen.obj
 0002:0000ef3c       $unwind$__acrt_fp_format   000000018003ff3c     libucrt:cvt.obj
 0002:0000ef58       $unwind$?fp_format_nan_or_infinity@@YAHW4__acrt_fp_class@@_NPEAD_K1@Z 000000018003ff58     libucrt:cvt.obj
 0002:0000ef6c       $unwind$?fp_format_e_internal@@YAHQEAD_KH_NIQEAU_strflt@@2QEAU__crt_locale_pointers@@@Z 000000018003ff6c     libucrt:cvt.obj
 0002:0000ef84       $unwind$?fp_format_a@@YAHQEBNPEAD_KQEAD2H_NIQEAU__crt_locale_pointers@@@Z 000000018003ff84     libucrt:cvt.obj
 0002:0000efa0       $unwind$?fp_format_g@@YAHQEBNQEAD_K12H_NIQEAU__crt_locale_pointers@@@Z 000000018003ffa0     libucrt:cvt.obj
 0002:0000efb4       $unwind$_fputwc_nolock     000000018003ffb4     libucrt:fputwc.obj
 0002:0000efd0       $unwind$__acrt_uninitialize_locale 000000018003ffd0     libucrt:wsetlocale.obj
 0002:0000eff0       $unwind$?__acrt_stdio_allocate_stream@@YA?AV__crt_stdio_stream@@XZ 000000018003fff0     libucrt:stream.obj
 0002:0000f010       $unwind$_openfile          0000000180040010     libucrt:openfile.obj
 0002:0000f024       $unwind$??$?RV<lambda_bfedae4ebbf01fab1bb6dcc6a9e276e0>@@AEAV<lambda_2fe9b910cf3cbf4a0ab98a02ba45b3ec>@@V<lambda_237c231691f317818eb88cc1d5d642d6>@@@?$__crt_seh_guarded_call@H@@QEAAH$$QEAV<lambda_bfedae4ebbf01fab1bb6dcc6a9e276e0>@@AEAV<lambda_2fe9b910cf3cbf4a0ab98a02ba45b3ec>@@$$QEAV<lambda_237c231691f317818eb88cc1d5d642d6>@@@Z 0000000180040024     libucrt:close.obj
 0002:0000f048       $unwind$?common_ftell_translated_utf8_nolock@@YA_JV__crt_stdio_stream@@_J@Z 0000000180040048     libucrt:ftell.obj
 0002:0000f06c       $unwind$?common_ftell_read_mode_nolock@@YA_JV__crt_stdio_stream@@_J1@Z 000000018004006c     libucrt:ftell.obj
 0002:0000f088       $unwind$??$common_ftell_nolock@_J@@YA_JV__crt_stdio_stream@@@Z 0000000180040088     libucrt:ftell.obj
 0002:0000f094       $unwind$??$common_lseek@_J@@YA_JH_JH@Z 0000000180040094     libucrt:lseek.obj
 0002:0000f0c4       $unwind$_read              00000001800400c4     libucrt:read.obj
 0002:0000f0f0       $unwind$_read_nolock       00000001800400f0     libucrt:read.obj
 0002:0000f108       $unwind$?translate_ansi_or_utf8_nolock@@YAHHQEAD_KQEA_W1@Z 0000000180040108     libucrt:read.obj
 0002:0000f120       $unwind$??$translate_text_mode_nolock@_W@@YAHHQEA_W_K@Z 0000000180040120     libucrt:read.obj
 0002:0000f138       $unwind$_raise_exc_ex      0000000180040138     libucrt:fpexcept.obj
 0002:0000f138       $unwind$??$common_refill_and_read_nolock@D@@YAHV__crt_stdio_stream@@@Z 0000000180040138     libucrt:_filbuf.obj
 0002:0000f138       $unwind$?common_fseek_nolock@@YAHV__crt_stdio_stream@@_JH@Z 0000000180040138     libucrt:fseek.obj
 0002:0000f14c       $unwind$__acrt_update_thread_multibyte_data 000000018004014c     libucrt:mbctype.obj
 0002:0000f170       $unwind$_setmbcp_nolock    0000000180040170     libucrt:mbctype.obj
 0002:0000f190       $unwind$?setSBUpLow@@YAXPEAU__crt_multibyte_data@@@Z 0000000180040190     libucrt:mbctype.obj
 0002:0000f1ac       $unwind$?setmbcp_internal@@YAHH_N@Z 00000001800401ac     libucrt:mbctype.obj
 0002:0000f1bc       $unwind$??$?RV<lambda_99476a1ad63dd22509b5d3e65b0ffc95>@@AEAV<lambda_ad1ced32f4ac17aa236e5ef05d6b3b7c>@@V<lambda_f7424dd8d45958661754dc4f2697e9c3>@@@?$__crt_seh_guarded_call@X@@QEAAX$$QEAV<lambda_99476a1ad63dd22509b5d3e65b0ffc95>@@AEAV<lambda_ad1ced32f4ac17aa236e5ef05d6b3b7c>@@$$QEAV<lambda_f7424dd8d45958661754dc4f2697e9c3>@@@Z 00000001800401bc     libucrt:mbctype.obj
 0002:0000f1e0       $unwind$?fp_format_f_internal@@YAHQEAD_KHQEAU_strflt@@_NQEAU__crt_locale_pointers@@@Z 00000001800401e0     libucrt:cvt.obj
 0002:0000f1e0       $unwind$__dcrt_get_narrow_environment_from_os 00000001800401e0     libucrt:get_environment_from_os.obj
 0002:0000f1f8       $unwind$_isctype_l         00000001800401f8     libucrt:isctype.obj
 0002:0000f214       $unwind$_close             0000000180040214     libucrt:close.obj
 0002:0000f214       $unwind$_commit            0000000180040214     libucrt:commit.obj
 0002:0000f21c       $unwind$??$?RV<lambda_b521505b218e5242e90febf6bfebc422>@@AEAV<lambda_6978c1fb23f02e42e1d9e99668cc68aa>@@V<lambda_314360699dd331753a4119843814e9a7>@@@?$__crt_seh_guarded_call@H@@QEAAH$$QEAV<lambda_b521505b218e5242e90febf6bfebc422>@@AEAV<lambda_6978c1fb23f02e42e1d9e99668cc68aa>@@$$QEAV<lambda_314360699dd331753a4119843814e9a7>@@@Z 000000018004021c     libucrt:commit.obj
 0002:0000f240       $unwind$_write             0000000180040240     libucrt:write.obj
 0002:0000f270       $unwind$_write_nolock      0000000180040270     libucrt:write.obj
 0002:0000f288       $unwind$?write_double_translated_ansi_nolock@@YA?AUwrite_result@?A0x4392dfaa@@HQEBDI@Z 0000000180040288     libucrt:write.obj
 0002:0000f2a8       $unwind$?write_text_utf16le_nolock@@YA?AUwrite_result@?A0x4392dfaa@@HQEBDI@Z 00000001800402a8     libucrt:write.obj
 0002:0000f2a8       $unwind$?write_text_ansi_nolock@@YA?AUwrite_result@?A0x4392dfaa@@HQEBDI@Z 00000001800402a8     libucrt:write.obj
 0002:0000f2c8       $unwind$?write_text_utf8_nolock@@YA?AUwrite_result@?A0x4392dfaa@@HQEBDI@Z 00000001800402c8     libucrt:write.obj
 0002:0000f2ec       $unwind$_ctrlfp            00000001800402ec     libucrt:fpctrl.obj
 0002:0000f314       $unwind$__acrt_update_thread_locale_data 0000000180040314     libucrt:locale_refcounting.obj
 0002:0000f338       $unwind$?GetTableIndexFromLocaleName@@YAHPEB_W@Z 0000000180040338     libucrt:lcidtoname_downlevel.obj
 0002:0000f350       $unwind$_alloc_osfhnd      0000000180040350     libucrt:osfinfo.obj
 0002:0000f380       $unwind$__acrt_lowio_destroy_handle_array 0000000180040380     libucrt:osfinfo.obj
 0002:0000f390       $unwind$__acrt_lowio_ensure_fh_exists 0000000180040390     libucrt:osfinfo.obj
 0002:0000f3bc       $unwind$__acrt_LCMapStringA 00000001800403bc     libucrt:lcmapstringa.obj
 0002:0000f3cc       $unwind$?__acrt_LCMapStringA_stat@@YAHPEAU__crt_locale_pointers@@PEB_WKPEBDHPEADHHH@Z 00000001800403cc     libucrt:lcmapstringa.obj
 0002:0000f3f4       $unwind$__acrt_fltout      00000001800403f4     libucrt:cfout.obj
 0002:0000f414       $unwind$?divide@__crt_strtox@@YA_KAEAUbig_integer@1@AEBU21@@Z 0000000180040414     libucrt:cfout.obj
 0002:0000f434       $chain$5$?divide@__crt_strtox@@YA_KAEAUbig_integer@1@AEBU21@@Z 0000000180040434     libucrt:cfout.obj
 0002:0000f448       $chain$6$?divide@__crt_strtox@@YA_KAEAUbig_integer@1@AEBU21@@Z 0000000180040448     libucrt:cfout.obj
 0002:0000f458       $unwind$??$write_buffer_nolock@D@@YA_NDV__crt_stdio_stream@@@Z 0000000180040458     libucrt:_flsbuf.obj
 0002:0000f468       $unwind$??$write_buffer_nolock@_W@@YA_N_WV__crt_stdio_stream@@@Z 0000000180040468     libucrt:_flsbuf.obj
 0002:0000f478       $unwind$__acrt_locale_free_monetary 0000000180040478     libucrt:initmon.obj
 0002:0000f480       $unwind$__acrt_locale_free_time 0000000180040480     libucrt:inittime.obj
 0002:0000f490       $unwind$__acrt_GetStringTypeA 0000000180040490     libucrt:getstringtypea.obj
 0002:0000f4b8       $xdatasym                  00000001800404b8     libucrt:strncmp.obj
 0002:0000f4bc       $unwind$?fp_format_e@@YAHQEBNQEAD_K12H_NIQEAU__crt_locale_pointers@@@Z 00000001800404bc     libucrt:cvt.obj
 0002:0000f4bc       $unwind$_sopen_nolock      00000001800404bc     libucrt:open.obj
 0002:0000f4d0       $unwind$_wsopen_nolock     00000001800404d0     libucrt:open.obj
 0002:0000f4ec       $unwind$??$common_sopen_dispatch@D@@YAHQEBDHHHQEAHH@Z 00000001800404ec     libucrt:open.obj
 0002:0000f510       $unwind$?decode_options@@YA?AUfile_options@?A0xc3dee958@@HHH@Z 0000000180040510     libucrt:open.obj
 0002:0000f524       $unwind$??R<lambda_b721fa326cdb32351d23dfa67958c160>@@QEBAHXZ 0000000180040524     libucrt:setvbuf.obj
 0002:0000f524       $unwind$?type_case_c_tchar@?$output_processor@_WV?$stream_output_adapter@_W@__crt_stdio_output@@V?$standard_base@_WV?$stream_output_adapter@_W@__crt_stdio_output@@@2@@__crt_stdio_output@@AEAA_N_W@Z 0000000180040524     libucrt:output.obj
 0002:0000f524       $unwind$?truncate_ctrl_z_if_present@@YAHH@Z 0000000180040524     libucrt:open.obj
 0002:0000f524       $unwind$?type_case_c_tchar@?$output_processor@_WV?$string_output_adapter@_W@__crt_stdio_output@@V?$standard_base@_WV?$string_output_adapter@_W@__crt_stdio_output@@@2@@__crt_stdio_output@@AEAA_N_W@Z 0000000180040524     libucrt:output.obj
 0002:0000f534       $unwind$?configure_text_mode@@YAHHUfile_options@?A0xc3dee958@@HAEAW4__crt_lowio_text_mode@@@Z 0000000180040534     libucrt:open.obj
 0002:0000f534       $unwind$?state_case_type@?$output_processor@DV?$string_output_adapter@D@__crt_stdio_output@@V?$standard_base@DV?$string_output_adapter@D@__crt_stdio_output@@@2@@__crt_stdio_output@@AEAA_NXZ 0000000180040534     libucrt:output.obj
 0002:0000f550       $xdatasym                  0000000180040550     libucrt:fpsr.obj
 0002:0000f558       $xdatasym                  0000000180040558     libucrt:log10.obj
 0002:0000f564       $unwind$_setmode_nolock    0000000180040564     libucrt:setmode.obj
 0002:0000f574       $unwind$__acrt_copy_path_to_wide_string 0000000180040574     libucrt:string_utilities.obj
 0002:0000f574       $unwind$??$create_environment@D@@YAQEAPEADQEAD@Z 0000000180040574     libucrt:environment_initialization.obj
 0002:0000f58c       $unwind$_chsize_nolock     000000018004058c     libucrt:chsize.obj
 0002:0000f5a4       $unwind$common_control87   00000001800405a4     libucrt:ieee.obj
 0002:0000f5d4       $unwind$_log_special_common 00000001800405d4     libucrt:log_special.obj
 0002:0000f5e0       $unwind$?DloadObtainSection@@YAPEAXPEAK0@Z 00000001800405e0     DelayImp:delayhlp.obj
 0002:0000f5f0       $unwind$?DloadMakePermanentImageCommit@@YAXPEAX_K@Z 00000001800405f0     DelayImp:delayhlp.obj
 0002:0000f5fc       $unwind$?DloadProtectSection@@YAXKPEAK@Z 00000001800405fc     DelayImp:delayhlp.obj
 0002:0000f60c       $unwind$__delayLoadHelper2 000000018004060c     DelayImp:delayhlp.obj
 0002:0000f624       $unwind$_IsNonwritableInCurrentImage 0000000180040624     LIBCMT:pesect.obj
 0002:0000f648       $unwind$__GSHandlerCheckCommon 0000000180040648     LIBCMT:_gshandler_.obj
 0002:0000f650       $xdatasym                  0000000180040650     LIBCMT:_chkstk_.obj
 0002:0000f658       $unwind$strrchr            0000000180040658     libvcruntime:strrchr.obj
 0002:0000f660       $xdatasym                  0000000180040660     libvcruntime:memcmp.obj
 0002:0000f668       $xdatasym                  0000000180040668     libvcruntime:_setjmp_.obj
 0002:0000f670       $unwind$acos               0000000180040670     libucrt:acos.obj
 0002:0000f67c       $unwind$acosf              000000018004067c     libucrt:acosf.obj
 0002:0000f688       $unwind$sqrtf              0000000180040688     libucrt:sqrtf.obj
 0002:0000f688       $unwind$fmodf              0000000180040688     libucrt:fmodf.obj
 0002:0000f690       $xdatasym                  0000000180040690     libucrt:strcmp.obj
 0002:0000f698       $xdatasym                  0000000180040698     libucrt:tan.obj
 0002:0000f6b4       $unwind$_sincos_special    00000001800406b4     libucrt:sincos_special.obj
 0002:0000f6c0       $xdatasym                  00000001800406c0     libucrt:remainder_piby2_forfma3.obj
 0002:0000f6d0       $xdatasym                  00000001800406d0     libucrt:remainder_piby2_forasm.obj
 0002:00011ff0       .edata                     0000000180042ff0     canvas.exp
 0002:00012018       rgpv                       0000000180043018     canvas.exp
 0002:00012518       rgszName                   0000000180043518     canvas.exp
 0002:00012a18       rgwOrd                     0000000180043a18     canvas.exp
 0002:00012c98       szName                     0000000180043c98     canvas.exp
 0002:00012ca4       $N00001                    0000000180043ca4     canvas.exp
 0002:00012cd1       $N00002                    0000000180043cd1     canvas.exp
 0002:00012cf6       $N00003                    0000000180043cf6     canvas.exp
 0002:00012d1f       $N00004                    0000000180043d1f     canvas.exp
 0002:00012d43       $N00005                    0000000180043d43     canvas.exp
 0002:00012d6d       $N00006                    0000000180043d6d     canvas.exp
 0002:00012d9b       $N00007                    0000000180043d9b     canvas.exp
 0002:00012dc1       $N00008                    0000000180043dc1     canvas.exp
 0002:00012df5       $N00009                    0000000180043df5     canvas.exp
 0002:00012e2c       $N00010                    0000000180043e2c     canvas.exp
 0002:00012e5d       $N00011                    0000000180043e5d     canvas.exp
 0002:00012e8b       $N00012                    0000000180043e8b     canvas.exp
 0002:00012eb2       $N00013                    0000000180043eb2     canvas.exp
 0002:00012eed       $N00014                    0000000180043eed     canvas.exp
 0002:00012f20       $N00015                    0000000180043f20     canvas.exp
 0002:00012f4d       $N00016                    0000000180043f4d     canvas.exp
 0002:00012f7e       $N00017                    0000000180043f7e     canvas.exp
 0002:00012f99       $N00018                    0000000180043f99     canvas.exp
 0002:00012fbd       $N00019                    0000000180043fbd     canvas.exp
 0002:00012feb       $N00020                    0000000180043feb     canvas.exp
 0002:00013012       $N00021                    0000000180044012     canvas.exp
 0002:00013036       $N00022                    0000000180044036     canvas.exp
 0002:0001305c       $N00023                    000000018004405c     canvas.exp
 0002:00013081       $N00024                    0000000180044081     canvas.exp
 0002:000130a5       $N00025                    00000001800440a5     canvas.exp
 0002:000130be       $N00026                    00000001800440be     canvas.exp
 0002:000130f2       $N00027                    00000001800440f2     canvas.exp
 0002:00013123       $N00028                    0000000180044123     canvas.exp
 0002:0001314a       $N00029                    000000018004414a     canvas.exp
 0002:0001317d       $N00030                    000000018004417d     canvas.exp
 0002:000131aa       $N00031                    00000001800441aa     canvas.exp
 0002:000131db       $N00032                    00000001800441db     canvas.exp
 0002:00013202       $N00033                    0000000180044202     canvas.exp
 0002:0001321f       $N00034                    000000018004421f     canvas.exp
 0002:0001324f       $N00035                    000000018004424f     canvas.exp
 0002:0001327d       $N00036                    000000018004427d     canvas.exp
 0002:000132b1       $N00037                    00000001800442b1     canvas.exp
 0002:000132d5       $N00038                    00000001800442d5     canvas.exp
 0002:000132f7       $N00039                    00000001800442f7     canvas.exp
 0002:00013321       $N00040                    0000000180044321     canvas.exp
 0002:00013349       $N00041                    0000000180044349     canvas.exp
 0002:00013377       $N00042                    0000000180044377     canvas.exp
 0002:000133a3       $N00043                    00000001800443a3     canvas.exp
 0002:000133c9       $N00044                    00000001800443c9     canvas.exp
 0002:000133ed       $N00045                    00000001800443ed     canvas.exp
 0002:00013419       $N00046                    0000000180044419     canvas.exp
 0002:00013443       $N00047                    0000000180044443     canvas.exp
 0002:00013478       $N00048                    0000000180044478     canvas.exp
 0002:000134ab       $N00049                    00000001800444ab     canvas.exp
 0002:000134e6       $N00050                    00000001800444e6     canvas.exp
 0002:0001351f       $N00051                    000000018004451f     canvas.exp
 0002:00013545       $N00052                    0000000180044545     canvas.exp
 0002:00013569       $N00053                    0000000180044569     canvas.exp
 0002:0001358c       $N00054                    000000018004458c     canvas.exp
 0002:000135ad       $N00055                    00000001800445ad     canvas.exp
 0002:000135d4       $N00056                    00000001800445d4     canvas.exp
 0002:000135f9       $N00057                    00000001800445f9     canvas.exp
 0002:0001361c       $N00058                    000000018004461c     canvas.exp
 0002:0001363d       $N00059                    000000018004463d     canvas.exp
 0002:00013665       $N00060                    0000000180044665     canvas.exp
 0002:0001368b       $N00061                    000000018004468b     canvas.exp
 0002:000136b2       $N00062                    00000001800446b2     canvas.exp
 0002:000136d7       $N00063                    00000001800446d7     canvas.exp
 0002:0001370b       $N00064                    000000018004470b     canvas.exp
 0002:0001374d       $N00065                    000000018004474d     canvas.exp
 0002:00013778       $N00066                    0000000180044778     canvas.exp
 0002:000137a1       $N00067                    00000001800447a1     canvas.exp
 0002:000137cc       $N00068                    00000001800447cc     canvas.exp
 0002:000137f5       $N00069                    00000001800447f5     canvas.exp
 0002:0001381c       $N00070                    000000018004481c     canvas.exp
 0002:00013841       $N00071                    0000000180044841     canvas.exp
 0002:00013870       $N00072                    0000000180044870     canvas.exp
 0002:0001389d       $N00073                    000000018004489d     canvas.exp
 0002:000138d0       $N00074                    00000001800448d0     canvas.exp
 0002:00013901       $N00075                    0000000180044901     canvas.exp
 0002:00013933       $N00076                    0000000180044933     canvas.exp
 0002:00013963       $N00077                    0000000180044963     canvas.exp
 0002:00013990       $N00078                    0000000180044990     canvas.exp
 0002:000139bb       $N00079                    00000001800449bb     canvas.exp
 0002:000139e4       $N00080                    00000001800449e4     canvas.exp
 0002:00013a0b       $N00081                    0000000180044a0b     canvas.exp
 0002:00013a2f       $N00082                    0000000180044a2f     canvas.exp
 0002:00013a51       $N00083                    0000000180044a51     canvas.exp
 0002:00013a7a       $N00084                    0000000180044a7a     canvas.exp
 0002:00013aa1       $N00085                    0000000180044aa1     canvas.exp
 0002:00013ac9       $N00086                    0000000180044ac9     canvas.exp
 0002:00013aef       $N00087                    0000000180044aef     canvas.exp
 0002:00013b15       $N00088                    0000000180044b15     canvas.exp
 0002:00013b39       $N00089                    0000000180044b39     canvas.exp
 0002:00013b5c       $N00090                    0000000180044b5c     canvas.exp
 0002:00013b7d       $N00091                    0000000180044b7d     canvas.exp
 0002:00013b9f       $N00092                    0000000180044b9f     canvas.exp
 0002:00013bbf       $N00093                    0000000180044bbf     canvas.exp
 0002:00013be5       $N00094                    0000000180044be5     canvas.exp
 0002:00013c09       $N00095                    0000000180044c09     canvas.exp
 0002:00013c2c       $N00096                    0000000180044c2c     canvas.exp
 0002:00013c4d       $N00097                    0000000180044c4d     canvas.exp
 0002:00013c79       $N00098                    0000000180044c79     canvas.exp
 0002:00013ca3       $N00099                    0000000180044ca3     canvas.exp
 0002:00013cc8       $N00100                    0000000180044cc8     canvas.exp
 0002:00013ceb       $N00101                    0000000180044ceb     canvas.exp
 0002:00013d16       $N00102                    0000000180044d16     canvas.exp
 0002:00013d3f       $N00103                    0000000180044d3f     canvas.exp
 0002:00013d64       $N00104                    0000000180044d64     canvas.exp
 0002:00013d87       $N00105                    0000000180044d87     canvas.exp
 0002:00013db4       $N00106                    0000000180044db4     canvas.exp
 0002:00013ddf       $N00107                    0000000180044ddf     canvas.exp
 0002:00013e13       $N00108                    0000000180044e13     canvas.exp
 0002:00013e3b       $N00109                    0000000180044e3b     canvas.exp
 0002:00013e61       $N00110                    0000000180044e61     canvas.exp
 0002:00013e87       $N00111                    0000000180044e87     canvas.exp
 0002:00013eab       $N00112                    0000000180044eab     canvas.exp
 0002:00013ed0       $N00113                    0000000180044ed0     canvas.exp
 0002:00013ef3       $N00114                    0000000180044ef3     canvas.exp
 0002:00013f24       $N00115                    0000000180044f24     canvas.exp
 0002:00013f53       $N00116                    0000000180044f53     canvas.exp
 0002:00013f85       $N00117                    0000000180044f85     canvas.exp
 0002:00013fb5       $N00118                    0000000180044fb5     canvas.exp
 0002:00013fda       $N00119                    0000000180044fda     canvas.exp
 0002:00013ffd       $N00120                    0000000180044ffd     canvas.exp
 0002:0001402a       $N00121                    000000018004502a     canvas.exp
 0002:00014055       $N00122                    0000000180045055     canvas.exp
 0002:00014077       $N00123                    0000000180045077     canvas.exp
 0002:00014097       $N00124                    0000000180045097     canvas.exp
 0002:000140c7       $N00125                    00000001800450c7     canvas.exp
 0002:000140f5       $N00126                    00000001800450f5     canvas.exp
 0002:0001411d       $N00127                    000000018004511d     canvas.exp
 0002:00014143       $N00128                    0000000180045143     canvas.exp
 0002:0001416c       $N00129                    000000018004516c     canvas.exp
 0002:00014193       $N00130                    0000000180045193     canvas.exp
 0002:000141bc       $N00131                    00000001800451bc     canvas.exp
 0002:000141e3       $N00132                    00000001800451e3     canvas.exp
 0002:0001420d       $N00133                    000000018004520d     canvas.exp
 0002:00014235       $N00134                    0000000180045235     canvas.exp
 0002:0001425a       $N00135                    000000018004525a     canvas.exp
 0002:0001427d       $N00136                    000000018004527d     canvas.exp
 0002:000142a8       $N00137                    00000001800452a8     canvas.exp
 0002:000142d1       $N00138                    00000001800452d1     canvas.exp
 0002:000142f6       $N00139                    00000001800452f6     canvas.exp
 0002:00014319       $N00140                    0000000180045319     canvas.exp
 0002:00014344       $N00141                    0000000180045344     canvas.exp
 0002:0001436d       $N00142                    000000018004536d     canvas.exp
 0002:00014394       $N00143                    0000000180045394     canvas.exp
 0002:000143b9       $N00144                    00000001800453b9     canvas.exp
 0002:000143e2       $N00145                    00000001800453e2     canvas.exp
 0002:00014409       $N00146                    0000000180045409     canvas.exp
 0002:00014432       $N00147                    0000000180045432     canvas.exp
 0002:00014459       $N00148                    0000000180045459     canvas.exp
 0002:00014483       $N00149                    0000000180045483     canvas.exp
 0002:000144ab       $N00150                    00000001800454ab     canvas.exp
 0002:000144d0       $N00151                    00000001800454d0     canvas.exp
 0002:000144f3       $N00152                    00000001800454f3     canvas.exp
 0002:0001451d       $N00153                    000000018004551d     canvas.exp
 0002:00014545       $N00154                    0000000180045545     canvas.exp
 0002:0001456e       $N00155                    000000018004556e     canvas.exp
 0002:00014595       $N00156                    0000000180045595     canvas.exp
 0002:000145c5       $N00157                    00000001800455c5     canvas.exp
 0002:000145f3       $N00158                    00000001800455f3     canvas.exp
 0002:0001461f       $N00159                    000000018004561f     canvas.exp
 0002:00014649       $N00160                    0000000180045649     canvas.exp
 0002:0001466e       $N00161                    000000018004566e     canvas.exp
 0002:0001468f       $N00162                    000000018004568f     canvas.exp
 0002:000146ae       $N00163                    00000001800456ae     canvas.exp
 0002:000146d2       $N00164                    00000001800456d2     canvas.exp
 0002:000146f4       $N00165                    00000001800456f4     canvas.exp
 0002:00014717       $N00166                    0000000180045717     canvas.exp
 0002:0001473a       $N00167                    000000018004573a     canvas.exp
 0002:00014759       $N00168                    0000000180045759     canvas.exp
 0002:00014778       $N00169                    0000000180045778     canvas.exp
 0002:0001479a       $N00170                    000000018004579a     canvas.exp
 0002:000147b0       $N00171                    00000001800457b0     canvas.exp
 0002:000147e1       $N00172                    00000001800457e1     canvas.exp
 0002:0001480f       $N00173                    000000018004580f     canvas.exp
 0002:00014833       $N00174                    0000000180045833     canvas.exp
 0002:00014863       $N00175                    0000000180045863     canvas.exp
 0002:0001488d       $N00176                    000000018004588d     canvas.exp
 0002:000148bb       $N00177                    00000001800458bb     canvas.exp
 0002:000148df       $N00178                    00000001800458df     canvas.exp
 0002:00014937       $N00179                    0000000180045937     canvas.exp
 0002:00014990       $N00180                    0000000180045990     canvas.exp
 0002:000149ce       $N00181                    00000001800459ce     canvas.exp
 0002:000149fc       $N00182                    00000001800459fc     canvas.exp
 0002:00014a30       $N00183                    0000000180045a30     canvas.exp
 0002:00014a65       $N00184                    0000000180045a65     canvas.exp
 0002:00014a8d       $N00185                    0000000180045a8d     canvas.exp
 0002:00014abb       $N00186                    0000000180045abb     canvas.exp
 0002:00014aed       $N00187                    0000000180045aed     canvas.exp
 0002:00014b17       $N00188                    0000000180045b17     canvas.exp
 0002:00014b47       $N00189                    0000000180045b47     canvas.exp
 0002:00014b72       $N00190                    0000000180045b72     canvas.exp
 0002:00014b99       $N00191                    0000000180045b99     canvas.exp
 0002:00014bc4       $N00192                    0000000180045bc4     canvas.exp
 0002:00014bf3       $N00193                    0000000180045bf3     canvas.exp
 0002:00014c22       $N00194                    0000000180045c22     canvas.exp
 0002:00014c4d       $N00195                    0000000180045c4d     canvas.exp
 0002:00014c7a       $N00196                    0000000180045c7a     canvas.exp
 0002:00014ca2       $N00197                    0000000180045ca2     canvas.exp
 0002:00014ccf       $N00198                    0000000180045ccf     canvas.exp
 0002:00014cfb       $N00199                    0000000180045cfb     canvas.exp
 0002:00014d25       $N00200                    0000000180045d25     canvas.exp
 0002:00014d4b       $N00201                    0000000180045d4b     canvas.exp
 0002:00014d72       $N00202                    0000000180045d72     canvas.exp
 0002:00014d9b       $N00203                    0000000180045d9b     canvas.exp
 0002:00014dca       $N00204                    0000000180045dca     canvas.exp
 0002:00014df3       $N00205                    0000000180045df3     canvas.exp
 0002:00014e1d       $N00206                    0000000180045e1d     canvas.exp
 0002:00014e46       $N00207                    0000000180045e46     canvas.exp
 0002:00014e7a       $N00208                    0000000180045e7a     canvas.exp
 0002:00014ea0       $N00209                    0000000180045ea0     canvas.exp
 0002:00014ed4       $N00210                    0000000180045ed4     canvas.exp
 0002:00014efd       $N00211                    0000000180045efd     canvas.exp
 0002:00014f2c       $N00212                    0000000180045f2c     canvas.exp
 0002:00014f55       $N00213                    0000000180045f55     canvas.exp
 0002:00014f84       $N00214                    0000000180045f84     canvas.exp
 0002:00014fb1       $N00215                    0000000180045fb1     canvas.exp
 0002:00014fdf       $N00216                    0000000180045fdf     canvas.exp
 0002:00015008       $N00217                    0000000180046008     canvas.exp
 0002:00015036       $N00218                    0000000180046036     canvas.exp
 0002:00015063       $N00219                    0000000180046063     canvas.exp
 0002:00015097       $N00220                    0000000180046097     canvas.exp
 0002:000150c1       $N00221                    00000001800460c1     canvas.exp
 0002:000150f1       $N00222                    00000001800460f1     canvas.exp
 0002:00015128       $N00223                    0000000180046128     canvas.exp
 0002:00015167       $N00224                    0000000180046167     canvas.exp
 0002:000151a2       $N00225                    00000001800461a2     canvas.exp
 0002:000151dd       $N00226                    00000001800461dd     canvas.exp
 0002:0001523a       $N00227                    000000018004623a     canvas.exp
 0002:0001525b       $N00228                    000000018004625b     canvas.exp
 0002:00015299       $N00229                    0000000180046299     canvas.exp
 0002:000152e4       $N00230                    00000001800462e4     canvas.exp
 0002:00015348       $N00231                    0000000180046348     canvas.exp
 0002:00015386       $N00232                    0000000180046386     canvas.exp
 0002:000153b7       $N00233                    00000001800463b7     canvas.exp
 0002:00015431       $N00234                    0000000180046431     canvas.exp
 0002:00015459       $N00235                    0000000180046459     canvas.exp
 0002:000154a2       $N00236                    00000001800464a2     canvas.exp
 0002:000154b8       $N00237                    00000001800464b8     canvas.exp
 0002:000154ec       $N00238                    00000001800464ec     canvas.exp
 0002:00015507       $N00239                    0000000180046507     canvas.exp
 0002:00015524       $N00240                    0000000180046524     canvas.exp
 0002:00015544       $N00241                    0000000180046544     canvas.exp
 0002:0001557b       $N00242                    000000018004657b     canvas.exp
 0002:000155bc       $N00243                    00000001800465bc     canvas.exp
 0002:00015615       $N00244                    0000000180046615     canvas.exp
 0002:00015635       $N00245                    0000000180046635     canvas.exp
 0002:00015657       $N00246                    0000000180046657     canvas.exp
 0002:0001567c       $N00247                    000000018004667c     canvas.exp
 0002:000156c8       $N00248                    00000001800466c8     canvas.exp
 0002:00015714       $N00249                    0000000180046714     canvas.exp
 0002:0001576d       $N00250                    000000018004676d     canvas.exp
 0002:000157c8       $N00251                    00000001800467c8     canvas.exp
 0002:0001580a       $N00252                    000000018004680a     canvas.exp
 0002:00015862       $N00253                    0000000180046862     canvas.exp
 0002:000158be       $N00254                    00000001800468be     canvas.exp
 0002:000158e0       $N00255                    00000001800468e0     canvas.exp
 0002:00015957       $N00256                    0000000180046957     canvas.exp
 0002:00015985       $N00257                    0000000180046985     canvas.exp
 0002:00015a9e       $N00258                    0000000180046a9e     canvas.exp
 0002:00015acd       $N00259                    0000000180046acd     canvas.exp
 0002:00015b04       $N00260                    0000000180046b04     canvas.exp
 0002:00015b3f       $N00261                    0000000180046b3f     canvas.exp
 0002:00015b72       $N00262                    0000000180046b72     canvas.exp
 0002:00015ba9       $N00263                    0000000180046ba9     canvas.exp
 0002:00015bde       $N00264                    0000000180046bde     canvas.exp
 0002:00015c13       $N00265                    0000000180046c13     canvas.exp
 0002:00015c48       $N00266                    0000000180046c48     canvas.exp
 0002:00015c7d       $N00267                    0000000180046c7d     canvas.exp
 0002:00015cc0       $N00268                    0000000180046cc0     canvas.exp
 0002:00015d11       $N00269                    0000000180046d11     canvas.exp
 0002:00015d6c       $N00270                    0000000180046d6c     canvas.exp
 0002:00015dbf       $N00271                    0000000180046dbf     canvas.exp
 0002:00015e04       $N00272                    0000000180046e04     canvas.exp
 0002:00015e8c       $N00273                    0000000180046e8c     canvas.exp
 0002:00015eb0       $N00274                    0000000180046eb0     canvas.exp
 0002:00015ee0       $N00275                    0000000180046ee0     canvas.exp
 0002:00015f12       $N00276                    0000000180046f12     canvas.exp
 0002:00015f49       $N00277                    0000000180046f49     canvas.exp
 0002:00015f73       $N00278                    0000000180046f73     canvas.exp
 0002:00015f9b       $N00279                    0000000180046f9b     canvas.exp
 0002:00015fc9       $N00280                    0000000180046fc9     canvas.exp
 0002:00015ff6       $N00281                    0000000180046ff6     canvas.exp
 0002:00016035       $N00282                    0000000180047035     canvas.exp
 0002:0001605e       $N00283                    000000018004705e     canvas.exp
 0002:0001608b       $N00284                    000000018004708b     canvas.exp
 0002:000160ba       $N00285                    00000001800470ba     canvas.exp
 0002:000160d5       $N00286                    00000001800470d5     canvas.exp
 0002:000160f4       $N00287                    00000001800470f4     canvas.exp
 0002:00016117       $N00288                    0000000180047117     canvas.exp
 0002:0001613a       $N00289                    000000018004713a     canvas.exp
 0002:0001615b       $N00290                    000000018004715b     canvas.exp
 0002:00016192       $N00291                    0000000180047192     canvas.exp
 0002:000161b7       $N00292                    00000001800471b7     canvas.exp
 0002:000161d8       $N00293                    00000001800471d8     canvas.exp
 0002:0001620d       $N00294                    000000018004720d     canvas.exp
 0002:00016241       $N00295                    0000000180047241     canvas.exp
 0002:00016276       $N00296                    0000000180047276     canvas.exp
 0002:00016295       $N00297                    0000000180047295     canvas.exp
 0002:000162c5       $N00298                    00000001800472c5     canvas.exp
 0002:000162f4       $N00299                    00000001800472f4     canvas.exp
 0002:00016329       $N00300                    0000000180047329     canvas.exp
 0002:0001635a       $N00301                    000000018004735a     canvas.exp
 0002:00016390       $N00302                    0000000180047390     canvas.exp
 0002:000163b9       $N00303                    00000001800473b9     canvas.exp
 0002:000163f0       $N00304                    00000001800473f0     canvas.exp
 0002:0001642a       $N00305                    000000018004742a     canvas.exp
 0002:00016463       $N00306                    0000000180047463     canvas.exp
 0002:0001649d       $N00307                    000000018004749d     canvas.exp
 0002:000164d2       $N00308                    00000001800474d2     canvas.exp
 0002:0001651a       $N00309                    000000018004751a     canvas.exp
 0002:00016540       $N00310                    0000000180047540     canvas.exp
 0002:00016577       $N00311                    0000000180047577     canvas.exp
 0002:000165a6       $N00312                    00000001800475a6     canvas.exp
 0002:000165d3       $N00313                    00000001800475d3     canvas.exp
 0002:00016605       $N00314                    0000000180047605     canvas.exp
 0002:00016635       $N00315                    0000000180047635     canvas.exp
 0002:00016667       $N00316                    0000000180047667     canvas.exp
 0002:00016694       $N00317                    0000000180047694     canvas.exp
 0002:000166cc       $N00318                    00000001800476cc     canvas.exp
 0002:000166fd       $N00319                    00000001800476fd     canvas.exp
 0002:00016729       $N00320                    0000000180047729     canvas.exp
 0002:00016dac       .idata$6                   0000000180047dac     kernel32:KERNEL32.dll
 0002:0001762e       .idata$6                   000000018004862e     cairo:libcairo-2.dll
 0002:000177b6       .idata$6                   00000001800487b6     libpng:libpng14-14.dll
 0002:00017d0c       .idata$6                   0000000180048d0c     advapi32:ADVAPI32.dll
 0003:00000030       ?_Tlg_Microsoft_CRTProviderProv@@3U_TlgProvider_t@__vcrt_trace_logging_provider@@A 0000000180049030     libvcruntime:telemetry.obj
 0003:00000080       ?__vcrt_flsindex@@3KA      0000000180049080     libvcruntime:per_thread_data.obj
 0003:0000019c       errno_no_memory            000000018004919c     libucrt:errno.obj
 0003:000001a0       doserrno_no_memory         00000001800491a0     libucrt:errno.obj
 0003:000001a4       __acrt_flsindex            00000001800491a4     libucrt:per_thread_data.obj
 0003:00000690       __rgctypeflag              0000000180049690     libucrt:mbctype.obj
 0003:000006a0       __rgcode_page_info         00000001800496a0     libucrt:mbctype.obj
 0003:000009a8       ?dazSupported@?1??_ctrlfp@@9@9 00000001800499a8     libucrt:fpctrl.obj
 0003:00000a58       ?dazSupported@?1??common_control87@@9@9 0000000180049a58     libucrt:ieee.obj
 0003:00000a70       _module                    0000000180049a70     init.obj
 0003:00000fb8       ?module_local_atexit_table@@3U_onexit_table_t@@A 0000000180049fb8     LIBCMT:utility.obj
 0003:00000fd0       ?module_local_at_quick_exit_table@@3U_onexit_table_t@@A 0000000180049fd0     LIBCMT:utility.obj
 0003:00000fe8       ?is_initialized_as_dll@@3_NA 0000000180049fe8     LIBCMT:utility.obj
 0003:00000fec       ?__proc_attached@@3HA      0000000180049fec     LIBCMT:dll_dllmain.obj
 0003:00000ff0       GS_ExceptionRecord         0000000180049ff0     LIBCMT:gs_report.obj
 0003:00001090       GS_ContextRecord           000000018004a090     LIBCMT:gs_report.obj
 0003:000015a0       ?__vcrt_startup_thread_ptd@@3U__vcrt_ptd@@A 000000018004a5a0     libvcruntime:per_thread_data.obj
 0003:00001618       __vcrt_lock_table          000000018004a618     libvcruntime:locks.obj
 0003:00001640       __vcrt_locks_initialized   000000018004a640     libvcruntime:locks.obj
 0003:00001650       ?module_handles@@3PAPEAUHINSTANCE__@@A 000000018004a650     libvcruntime:winapi_downlevel.obj
 0003:00001670       ?encoded_function_pointers@@3PAPEAXA 000000018004a670     libvcruntime:winapi_downlevel.obj
 0003:00001700       ?heap@@3V_HeapManager@@A   000000018004a700     libvcruntime:undname.obj
 0003:00001728       __acrt_invalid_parameter_handler 000000018004a728     libucrt:invalid_parameter.obj
 0003:00001748       __acrt_new_handler         000000018004a748     libucrt:new_handler.obj
 0003:00001750       c_termination_complete     000000018004a750     libucrt:exit.obj
 0003:00001758       thread_local_exit_callback_func 000000018004a758     libucrt:exit.obj
 0003:00001760       ?c_exit_complete@?5??common_exit@@YAXHW4_crt_exit_cleanup_mode@@W4_crt_exit_return_mode@@@Z@4_NA 000000018004a760     libucrt:exit.obj
 0003:000017b8       __acrt_app_type            000000018004a7b8     libucrt:report_runtime_error.obj
 0003:000017bc       __acrt_error_mode          000000018004a7bc     libucrt:set_error_mode.obj
 0003:000017c0       ctrlc_action               000000018004a7c0     libucrt:signal.obj
 0003:000017c8       ctrlbreak_action           000000018004a7c8     libucrt:signal.obj
 0003:000017d0       abort_action               000000018004a7d0     libucrt:signal.obj
 0003:000017d8       term_action                000000018004a7d8     libucrt:signal.obj
 0003:000017e0       module_handles             000000018004a7e0     libucrt:winapi_thunks.obj
 0003:00001880       encoded_function_pointers  000000018004a880     libucrt:winapi_thunks.obj
 0003:00001980       ?state_cache@?1??__acrt_is_packaged_app@@9@4JA 000000018004a980     libucrt:winapi_thunks.obj
 0003:00001d98       enable_percent_n           000000018004ad98     libucrt:printf_count_output.obj
 0003:00001dc0       __acrt_lock_table          000000018004adc0     libucrt:locks.obj
 0003:00001fc8       __acrt_locks_initialized   000000018004afc8     libucrt:locks.obj
 0003:00001fe4       fSystemSet                 000000018004afe4     libucrt:mbctype.obj
 0003:00001ff0       ?initialized@?1??__acrt_initialize_multibyte@@9@4_NA 000000018004aff0     libucrt:mbctype.obj
 0003:00002020       user_matherr               000000018004b020     libucrt:matherr.obj
 0003:00002028       __acrt_global_new_mode     000000018004b028     libucrt:new_mode.obj
 0004:00000000       $pdata$?TraceLoggingRegister@__vcrt_trace_logging_provider@@YAJPEBU_TlgProvider_t@1@PEBU_GUID@@P6AX1KE_K2PEAU_EVENT_FILTER_DESCRIPTOR@@PEAX@Z4@Z 000000018004c000     libvcruntime:telemetry.obj
 0004:0000000c       $pdata$?_TlgEnableCallback@__vcrt_trace_logging_provider@@YAXPEBU_GUID@@KE_K1PEAU_EVENT_FILTER_DESCRIPTOR@@PEAX@Z 000000018004c00c     libvcruntime:telemetry.obj
 0004:00000018       $pdata$?_TlgWrite@__vcrt_trace_logging_provider@@YAJPEBU_TlgProvider_t@1@PEFBXPEBU_GUID@@2IPEAU_EVENT_DATA_DESCRIPTOR@@@Z 000000018004c018     libvcruntime:telemetry.obj
 0004:00000024       $pdata$??_EExternalSourceStream@ScriptCompiler@v8@@UEAAPEAXI@Z 000000018004c024     Canvas.obj
 0004:00000030       $pdata$??_EExternalStringResource@String@v8@@UEAAPEAXI@Z 000000018004c030     Canvas.obj
 0004:00000030       $pdata$??_EExternalOneByteStringResource@String@v8@@UEAAPEAXI@Z 000000018004c030     Canvas.obj
 0004:00000030       $pdata$??_EExternalStringResourceBase@String@v8@@UEAAPEAXI@Z 000000018004c030     Canvas.obj
 0004:0000003c       $pdata$?NewInstance@Function@v8@@QEBA?AV?$MaybeLocal@VObject@v8@@@2@V?$Local@VContext@v8@@@2@@Z 000000018004c03c     Canvas.obj
 0004:00000048       $pdata$??_EAllocator@ArrayBuffer@v8@@UEAAPEAXI@Z 000000018004c048     Canvas.obj
 0004:00000054       $pdata$?SetIndexedPropertyHandler@ObjectTemplate@v8@@QEAAXP6AXIAEBV?$PropertyCallbackInfo@VValue@v8@@@2@@ZP6AXIV?$Local@VValue@v8@@@2@0@ZP6AXIAEBV?$PropertyCallbackInfo@VInteger@v8@@@2@@ZP6AXIAEBV?$PropertyCallbackInfo@VBoolean@v8@@@2@@ZP6AXAEBV?$PropertyCallbackInfo@VArray@v8@@@2@@Z2@Z 000000018004c054     Canvas.obj
 0004:00000060       $pdata$??_EExternalOneByteStringResourceImpl@v8@@UEAAPEAXI@Z 000000018004c060     Canvas.obj
 0004:0000006c       $pdata$??_EExtension@v8@@UEAAPEAXI@Z 000000018004c06c     Canvas.obj
 0004:00000078       $pdata$??_EExternalResourceVisitor@v8@@UEAAPEAXI@Z 000000018004c078     Canvas.obj
 0004:00000078       $pdata$??_EPersistentHandleVisitor@v8@@UEAAPEAXI@Z 000000018004c078     Canvas.obj
 0004:00000084       $pdata$??0Scope@Isolate@v8@@QEAA@PEAV12@@Z 000000018004c084     Canvas.obj
 0004:00000090       $pdata$??1Scope@Isolate@v8@@QEAA@XZ 000000018004c090     Canvas.obj
 0004:0000009c       $pdata$??0Unlocker@v8@@QEAA@PEAVIsolate@1@@Z 000000018004c09c     Canvas.obj
 0004:000000a8       $pdata$??0Locker@v8@@QEAA@PEAVIsolate@1@@Z 000000018004c0a8     Canvas.obj
 0004:000000b4       $pdata$?Set@Template@v8@@QEAAXPEAVIsolate@2@PEBDV?$Local@VData@v8@@@2@@Z 000000018004c0b4     Canvas.obj
 0004:000000c0       $pdata$?GetInternalField@Object@v8@@QEAA?AV?$Local@VValue@v8@@@2@H@Z 000000018004c0c0     Canvas.obj
 0004:000000cc       $pdata$?ToBoolean@Value@v8@@QEBA?AV?$Local@VBoolean@v8@@@2@XZ 000000018004c0cc     Canvas.obj
 0004:000000d8       $pdata$?ToNumber@Value@v8@@QEBA?AV?$Local@VNumber@v8@@@2@XZ 000000018004c0d8     Canvas.obj
 0004:000000e4       $pdata$?ToString@Value@v8@@QEBA?AV?$Local@VString@v8@@@2@XZ 000000018004c0e4     Canvas.obj
 0004:000000f0       $pdata$?ToDetailString@Value@v8@@QEBA?AV?$Local@VString@v8@@@2@XZ 000000018004c0f0     Canvas.obj
 0004:000000fc       $pdata$?ToObject@Value@v8@@QEBA?AV?$Local@VObject@v8@@@2@XZ 000000018004c0fc     Canvas.obj
 0004:00000108       $pdata$?ToInteger@Value@v8@@QEBA?AV?$Local@VInteger@v8@@@2@XZ 000000018004c108     Canvas.obj
 0004:00000114       $pdata$?ToUint32@Value@v8@@QEBA?AV?$Local@VUint32@v8@@@2@XZ 000000018004c114     Canvas.obj
 0004:00000120       $pdata$?ToInt32@Value@v8@@QEBA?AV?$Local@VInt32@v8@@@2@XZ 000000018004c120     Canvas.obj
 0004:0000012c       $pdata$?AdjustAmountOfExternalAllocatedMemory@Isolate@v8@@QEAA_J_J@Z 000000018004c12c     Canvas.obj
 0004:00000138       $pdata$?GetEmbedderData@Context@v8@@QEAA?AV?$Local@VValue@v8@@@2@H@Z 000000018004c138     Canvas.obj
 0004:00000144       $pdata$?SetAllowCodeGenerationFromStringsCallback@V8@v8@@SAXP6A_NV?$Local@VContext@v8@@@2@@Z@Z 000000018004c144     Canvas.obj
 0004:00000150       $pdata$?IsDead@V8@v8@@SA_NXZ 000000018004c150     Canvas.obj
 0004:0000015c       $pdata$?AddMessageListener@V8@v8@@SA_NP6AXV?$Local@VMessage@v8@@@2@V?$Local@VValue@v8@@@2@@Z1@Z 000000018004c15c     Canvas.obj
 0004:00000168       $pdata$?RemoveMessageListeners@V8@v8@@SAXP6AXV?$Local@VMessage@v8@@@2@V?$Local@VValue@v8@@@2@@Z@Z 000000018004c168     Canvas.obj
 0004:00000174       $pdata$?SetFailedAccessCheckCallbackFunction@V8@v8@@SAXP6AXV?$Local@VObject@v8@@@2@W4AccessType@2@V?$Local@VValue@v8@@@2@@Z@Z 000000018004c174     Canvas.obj
 0004:00000180       $pdata$?SetCaptureStackTraceForUncaughtExceptions@V8@v8@@SAX_NHW4StackTraceOptions@StackTrace@2@@Z 000000018004c180     Canvas.obj
 0004:0000018c       $pdata$?SetFatalErrorHandler@V8@v8@@SAXP6AXPEBD0@Z@Z 000000018004c18c     Canvas.obj
 0004:00000198       $pdata$?RemoveGCPrologueCallback@V8@v8@@SAXP6AXW4GCType@2@W4GCCallbackFlags@2@@Z@Z 000000018004c198     Canvas.obj
 0004:000001a4       $pdata$?RemoveGCEpilogueCallback@V8@v8@@SAXP6AXW4GCType@2@W4GCCallbackFlags@2@@Z@Z 000000018004c1a4     Canvas.obj
 0004:000001b0       $pdata$?AddMemoryAllocationCallback@V8@v8@@SAXP6AXW4ObjectSpace@2@W4AllocationAction@2@H@Z01@Z 000000018004c1b0     Canvas.obj
 0004:000001bc       $pdata$?RemoveMemoryAllocationCallback@V8@v8@@SAXP6AXW4ObjectSpace@2@W4AllocationAction@2@H@Z@Z 000000018004c1bc     Canvas.obj
 0004:000001c8       $pdata$?IsExecutionTerminating@V8@v8@@SA_NPEAVIsolate@2@@Z 000000018004c1c8     Canvas.obj
 0004:000001d4       $pdata$?VisitExternalResources@V8@v8@@SAXPEAVExternalResourceVisitor@2@@Z 000000018004c1d4     Canvas.obj
 0004:000001e0       $pdata$?VisitHandlesWithClassIds@V8@v8@@SAXPEAVPersistentHandleVisitor@2@@Z 000000018004c1e0     Canvas.obj
 0004:000001ec       $pdata$?FunctionCallbackWrapper@imp@Nan@@YAXAEBV?$FunctionCallbackInfo@VValue@v8@@@v8@@@Z 000000018004c1ec     Canvas.obj
 0004:000001f8       $pdata$?GetterCallbackWrapper@imp@Nan@@YAXV?$Local@VName@v8@@@v8@@AEBV?$PropertyCallbackInfo@VValue@v8@@@4@@Z 000000018004c1f8     Canvas.obj
 0004:00000204       $pdata$?SetterCallbackWrapper@imp@Nan@@YAXV?$Local@VName@v8@@@v8@@V?$Local@VValue@v8@@@4@AEBV?$PropertyCallbackInfo@X@4@@Z 000000018004c204     Canvas.obj
 0004:00000210       $pdata$?New@?$Factory@VFunctionTemplate@v8@@@imp@Nan@@SA?AV?$Local@VFunctionTemplate@v8@@@v8@@P6AXAEBV?$FunctionCallbackInfo@VValue@v8@@@3@@ZV?$Local@VValue@v8@@@5@V?$Local@VSignature@v8@@@5@@Z 000000018004c210     Canvas.obj
 0004:0000021c       $pdata$??0Callback@Nan@@QEAA@AEBV?$Local@VFunction@v8@@@v8@@@Z 000000018004c21c     Canvas.obj
 0004:00000228       $pdata$?Call_@Callback@Nan@@AEBA?AV?$Local@VValue@v8@@@v8@@PEAVIsolate@4@V?$Local@VObject@v8@@@4@HQEAV34@@Z 000000018004c228     Canvas.obj
 0004:00000234       $pdata$??1?$Persistent@VObject@v8@@V?$NonCopyablePersistentTraits@VObject@v8@@@2@@Nan@@QEAA@XZ 000000018004c234     Canvas.obj
 0004:00000240       $pdata$??_GCallback@Nan@@QEAAPEAXI@Z 000000018004c240     Canvas.obj
 0004:0000024c       $pdata$?SetAccessor@Nan@@YAXV?$Local@VObjectTemplate@v8@@@v8@@V?$Local@VString@v8@@@3@P6AX1AEBV?$PropertyCallbackInfo@VValue@v8@@@1@@ZP6AX1V?$Local@VValue@v8@@@3@AEBV?$PropertyCallbackInfo@X@1@@Z4W4AccessControl@3@W4PropertyAttribute@3@V?$Local@VAccessorSignature@v8@@@3@@Z 000000018004c24c     Canvas.obj
 0004:00000258       $pdata$??1ObjectWrap@Nan@@UEAA@XZ 000000018004c258     Canvas.obj
 0004:00000264       $pdata$?Wrap@ObjectWrap@Nan@@IEAAXV?$Local@VObject@v8@@@v8@@@Z 000000018004c264     Canvas.obj
 0004:00000270       $pdata$?Ref@ObjectWrap@Nan@@MEAAXXZ 000000018004c270     Canvas.obj
 0004:0000027c       $pdata$?Unref@ObjectWrap@Nan@@MEAAXXZ 000000018004c27c     Canvas.obj
 0004:00000288       $pdata$?WeakCallback@ObjectWrap@Nan@@CAXAEBV?$WeakCallbackInfo@VObjectWrap@Nan@@@v8@@@Z 000000018004c288     Canvas.obj
 0004:00000294       $pdata$??_GObjectWrap@Nan@@UEAAPEAXI@Z 000000018004c294     Canvas.obj
 0004:000002a0       $pdata$?closure_init@@YA?AW4_cairo_status@@PEAUclosure_t@@PEAVCanvas@@II@Z 000000018004c2a0     Canvas.obj
 0004:000002ac       $pdata$?closure_destroy@@YAXPEAUclosure_t@@@Z 000000018004c2ac     Canvas.obj
 0004:000002b8       $pdata$1$?closure_destroy@@YAXPEAUclosure_t@@@Z 000000018004c2b8     Canvas.obj
 0004:000002c4       $pdata$2$?closure_destroy@@YAXPEAUclosure_t@@@Z 000000018004c2c4     Canvas.obj
 0004:000002d0       $pdata$?canvas_unpremultiply_data@@YAXPEAUpng_struct_def@@PEAUpng_row_info_struct@@PEAE@Z 000000018004c2d0     Canvas.obj
 0004:000002dc       $pdata$0$?canvas_unpremultiply_data@@YAXPEAUpng_struct_def@@PEAUpng_row_info_struct@@PEAE@Z 000000018004c2dc     Canvas.obj
 0004:000002e8       $pdata$1$?canvas_unpremultiply_data@@YAXPEAUpng_struct_def@@PEAUpng_row_info_struct@@PEAE@Z 000000018004c2e8     Canvas.obj
 0004:000002f4       $pdata$?canvas_write_png@@YA?AW4_cairo_status@@PEAU_cairo_surface@@P6AXPEAUpng_struct_def@@PEAE_K@ZPEAX@Z 000000018004c2f4     Canvas.obj
 0004:00000300       $pdata$?canvas_stream_write_func@@YAXPEAUpng_struct_def@@PEAE_K@Z 000000018004c300     Canvas.obj
 0004:0000030c       $pdata$?Initialize@Canvas@@SAXV?$Local@VObject@v8@@@v8@@@Z 000000018004c30c     Canvas.obj
 0004:00000318       $pdata$?New@Canvas@@SAXAEBV?$FunctionCallbackInfo@VValue@v8@@@Nan@@@Z 000000018004c318     Canvas.obj
 0004:00000324       $pdata$?GetType@Canvas@@SAXV?$Local@VString@v8@@@v8@@AEBV?$PropertyCallbackInfo@VValue@v8@@@Nan@@@Z 000000018004c324     Canvas.obj
 0004:00000330       $pdata$?GetWidth@Canvas@@SAXV?$Local@VString@v8@@@v8@@AEBV?$PropertyCallbackInfo@VValue@v8@@@Nan@@@Z 000000018004c330     Canvas.obj
 0004:00000330       $pdata$?GetWidth@ImageData@@SAXV?$Local@VString@v8@@@v8@@AEBV?$PropertyCallbackInfo@VValue@v8@@@Nan@@@Z 000000018004c330     ImageData.obj
 0004:0000033c       $pdata$?SetWidth@Canvas@@SAXV?$Local@VString@v8@@@v8@@V?$Local@VValue@v8@@@3@AEBV?$PropertyCallbackInfo@X@Nan@@@Z 000000018004c33c     Canvas.obj
 0004:00000348       $pdata$0$?SetWidth@Canvas@@SAXV?$Local@VString@v8@@@v8@@V?$Local@VValue@v8@@@3@AEBV?$PropertyCallbackInfo@X@Nan@@@Z 000000018004c348     Canvas.obj
 0004:00000354       $pdata$1$?SetWidth@Canvas@@SAXV?$Local@VString@v8@@@v8@@V?$Local@VValue@v8@@@3@AEBV?$PropertyCallbackInfo@X@Nan@@@Z 000000018004c354     Canvas.obj
 0004:00000360       $pdata$?GetHeight@ImageData@@SAXV?$Local@VString@v8@@@v8@@AEBV?$PropertyCallbackInfo@VValue@v8@@@Nan@@@Z 000000018004c360     ImageData.obj
 0004:00000360       $pdata$?GetHeight@Canvas@@SAXV?$Local@VString@v8@@@v8@@AEBV?$PropertyCallbackInfo@VValue@v8@@@Nan@@@Z 000000018004c360     Canvas.obj
 0004:0000036c       $pdata$?SetHeight@Canvas@@SAXV?$Local@VString@v8@@@v8@@V?$Local@VValue@v8@@@3@AEBV?$PropertyCallbackInfo@X@Nan@@@Z 000000018004c36c     Canvas.obj
 0004:00000378       $pdata$0$?SetHeight@Canvas@@SAXV?$Local@VString@v8@@@v8@@V?$Local@VValue@v8@@@3@AEBV?$PropertyCallbackInfo@X@Nan@@@Z 000000018004c378     Canvas.obj
 0004:00000384       $pdata$1$?SetHeight@Canvas@@SAXV?$Local@VString@v8@@@v8@@V?$Local@VValue@v8@@@3@AEBV?$PropertyCallbackInfo@X@Nan@@@Z 000000018004c384     Canvas.obj
 0004:00000390       $pdata$?toBuffer@@YA?AW4_cairo_status@@PEAXPEBEI@Z 000000018004c390     Canvas.obj
 0004:0000039c       $pdata$?ToBufferAsync@Canvas@@SAXPEAUuv_work_s@@@Z 000000018004c39c     Canvas.obj
 0004:000003a8       $pdata$?ToBufferAsyncAfter@Canvas@@SAXPEAUuv_work_s@@@Z 000000018004c3a8     Canvas.obj
 0004:000003b4       $pdata$?ToBuffer@Canvas@@SAXAEBV?$FunctionCallbackInfo@VValue@v8@@@Nan@@@Z 000000018004c3b4     Canvas.obj
 0004:000003c0       $pdata$?streamPNG@@YA?AW4_cairo_status@@PEAXPEBEI@Z 000000018004c3c0     Canvas.obj
 0004:000003cc       $pdata$?StreamPNGSync@Canvas@@SAXAEBV?$FunctionCallbackInfo@VValue@v8@@@Nan@@@Z 000000018004c3cc     Canvas.obj
 0004:000003d8       $pdata$??0Canvas@@QEAA@HHW4canvas_type_t@@@Z 000000018004c3d8     Canvas.obj
 0004:000003e4       $pdata$??_GCanvas@@EEAAPEAXI@Z 000000018004c3e4     Canvas.obj
 0004:000003f0       $pdata$??1Canvas@@EEAA@XZ  000000018004c3f0     Canvas.obj
 0004:000003fc       $pdata$?resurface@Canvas@@QEAAXV?$Local@VObject@v8@@@v8@@@Z 000000018004c3fc     Canvas.obj
 0004:00000408       $pdata$??$Unwrap@VContext2d@@@ObjectWrap@Nan@@SAPEAVContext2d@@V?$Local@VObject@v8@@@v8@@@Z 000000018004c408     Canvas.obj
 0004:00000408       $pdata$??$Unwrap@VImageData@@@ObjectWrap@Nan@@SAPEAVImageData@@V?$Local@VObject@v8@@@v8@@@Z 000000018004c408     CanvasRenderingContext2d.obj
 0004:00000408       $pdata$??$Unwrap@VPattern@@@ObjectWrap@Nan@@SAPEAVPattern@@V?$Local@VObject@v8@@@v8@@@Z 000000018004c408     CanvasRenderingContext2d.obj
 0004:00000408       $pdata$??$Unwrap@VCanvas@@@ObjectWrap@Nan@@SAPEAVCanvas@@V?$Local@VObject@v8@@@v8@@@Z 000000018004c408     Canvas.obj
 0004:00000408       $pdata$??$Unwrap@VImage@@@ObjectWrap@Nan@@SAPEAVImage@@V?$Local@VObject@v8@@@v8@@@Z 000000018004c408     CanvasPattern.obj
 0004:00000408       $pdata$??$Unwrap@VGradient@@@ObjectWrap@Nan@@SAPEAVGradient@@V?$Local@VObject@v8@@@v8@@@Z 000000018004c408     CanvasGradient.obj
 0004:00000414       $pdata$?Initialize@Gradient@@SAXV?$Local@VObject@v8@@@v8@@@Z 000000018004c414     CanvasGradient.obj
 0004:00000420       $pdata$?New@Gradient@@SAXAEBV?$FunctionCallbackInfo@VValue@v8@@@Nan@@@Z 000000018004c420     CanvasGradient.obj
 0004:0000042c       $pdata$?AddColorStop@Gradient@@SAXAEBV?$FunctionCallbackInfo@VValue@v8@@@Nan@@@Z 000000018004c42c     CanvasGradient.obj
 0004:00000438       $pdata$??_GGradient@@EEAAPEAXI@Z 000000018004c438     CanvasGradient.obj
 0004:00000444       $pdata$?Initialize@Pattern@@SAXV?$Local@VObject@v8@@@v8@@@Z 000000018004c444     CanvasPattern.obj
 0004:00000450       $pdata$?New@Pattern@@SAXAEBV?$FunctionCallbackInfo@VValue@v8@@@Nan@@@Z 000000018004c450     CanvasPattern.obj
 0004:0000045c       $pdata$??_GPattern@@EEAAPEAXI@Z 000000018004c45c     CanvasPattern.obj
 0004:00000468       $pdata$?Initialize@Context2d@@SAXV?$Local@VObject@v8@@@v8@@@Z 000000018004c468     CanvasRenderingContext2d.obj
 0004:00000474       $pdata$??0Context2d@@QEAA@PEAVCanvas@@@Z 000000018004c474     CanvasRenderingContext2d.obj
 0004:00000480       $pdata$??_GContext2d@@EEAAPEAXI@Z 000000018004c480     CanvasRenderingContext2d.obj
 0004:0000048c       $pdata$?saveState@Context2d@@QEAAXXZ 000000018004c48c     CanvasRenderingContext2d.obj
 0004:00000498       $pdata$?savePath@Context2d@@QEAAXXZ 000000018004c498     CanvasRenderingContext2d.obj
 0004:000004a4       $pdata$?restorePath@Context2d@@QEAAXXZ 000000018004c4a4     CanvasRenderingContext2d.obj
 0004:000004b0       $pdata$?fill@Context2d@@QEAAX_N@Z 000000018004c4b0     CanvasRenderingContext2d.obj
 0004:000004bc       $pdata$?stroke@Context2d@@QEAAX_N@Z 000000018004c4bc     CanvasRenderingContext2d.obj
 0004:000004c8       $pdata$?shadow@Context2d@@QEAAXP6AXPEAU_cairo@@@Z@Z 000000018004c4c8     CanvasRenderingContext2d.obj
 0004:000004d4       $pdata$3$?shadow@Context2d@@QEAAXP6AXPEAU_cairo@@@Z@Z 000000018004c4d4     CanvasRenderingContext2d.obj
 0004:000004e0       $pdata$4$?shadow@Context2d@@QEAAXP6AXPEAU_cairo@@@Z@Z 000000018004c4e0     CanvasRenderingContext2d.obj
 0004:000004ec       $pdata$?blur@Context2d@@QEAAXPEAU_cairo_surface@@H@Z 000000018004c4ec     CanvasRenderingContext2d.obj
 0004:000004f8       $pdata$?New@Context2d@@SAXAEBV?$FunctionCallbackInfo@VValue@v8@@@Nan@@@Z 000000018004c4f8     CanvasRenderingContext2d.obj
 0004:00000504       $pdata$?AddPage@Context2d@@SAXAEBV?$FunctionCallbackInfo@VValue@v8@@@Nan@@@Z 000000018004c504     CanvasRenderingContext2d.obj
 0004:00000510       $pdata$?PutImageData@Context2d@@SAXAEBV?$FunctionCallbackInfo@VValue@v8@@@Nan@@@Z 000000018004c510     CanvasRenderingContext2d.obj
 0004:0000051c       $pdata$?GetImageData@Context2d@@SAXAEBV?$FunctionCallbackInfo@VValue@v8@@@Nan@@@Z 000000018004c51c     CanvasRenderingContext2d.obj
 0004:00000528       $pdata$?DrawImage@Context2d@@SAXAEBV?$FunctionCallbackInfo@VValue@v8@@@Nan@@@Z 000000018004c528     CanvasRenderingContext2d.obj
 0004:00000534       $pdata$?GetGlobalAlpha@Context2d@@SAXV?$Local@VString@v8@@@v8@@AEBV?$PropertyCallbackInfo@VValue@v8@@@Nan@@@Z 000000018004c534     CanvasRenderingContext2d.obj
 0004:00000540       $pdata$?SetGlobalAlpha@Context2d@@SAXV?$Local@VString@v8@@@v8@@V?$Local@VValue@v8@@@3@AEBV?$PropertyCallbackInfo@X@Nan@@@Z 000000018004c540     CanvasRenderingContext2d.obj
 0004:0000054c       $pdata$?GetGlobalCompositeOperation@Context2d@@SAXV?$Local@VString@v8@@@v8@@AEBV?$PropertyCallbackInfo@VValue@v8@@@Nan@@@Z 000000018004c54c     CanvasRenderingContext2d.obj
 0004:00000558       $pdata$?SetPatternQuality@Context2d@@SAXV?$Local@VString@v8@@@v8@@V?$Local@VValue@v8@@@3@AEBV?$PropertyCallbackInfo@X@Nan@@@Z 000000018004c558     CanvasRenderingContext2d.obj
 0004:00000564       $pdata$?GetPatternQuality@Context2d@@SAXV?$Local@VString@v8@@@v8@@AEBV?$PropertyCallbackInfo@VValue@v8@@@Nan@@@Z 000000018004c564     CanvasRenderingContext2d.obj
 0004:00000570       $pdata$?SetGlobalCompositeOperation@Context2d@@SAXV?$Local@VString@v8@@@v8@@V?$Local@VValue@v8@@@3@AEBV?$PropertyCallbackInfo@X@Nan@@@Z 000000018004c570     CanvasRenderingContext2d.obj
 0004:0000057c       $pdata$?GetShadowOffsetX@Context2d@@SAXV?$Local@VString@v8@@@v8@@AEBV?$PropertyCallbackInfo@VValue@v8@@@Nan@@@Z 000000018004c57c     CanvasRenderingContext2d.obj
 0004:00000588       $pdata$?SetShadowOffsetX@Context2d@@SAXV?$Local@VString@v8@@@v8@@V?$Local@VValue@v8@@@3@AEBV?$PropertyCallbackInfo@X@Nan@@@Z 000000018004c588     CanvasRenderingContext2d.obj
 0004:00000594       $pdata$?GetShadowOffsetY@Context2d@@SAXV?$Local@VString@v8@@@v8@@AEBV?$PropertyCallbackInfo@VValue@v8@@@Nan@@@Z 000000018004c594     CanvasRenderingContext2d.obj
 0004:000005a0       $pdata$?SetShadowOffsetY@Context2d@@SAXV?$Local@VString@v8@@@v8@@V?$Local@VValue@v8@@@3@AEBV?$PropertyCallbackInfo@X@Nan@@@Z 000000018004c5a0     CanvasRenderingContext2d.obj
 0004:000005ac       $pdata$?GetShadowBlur@Context2d@@SAXV?$Local@VString@v8@@@v8@@AEBV?$PropertyCallbackInfo@VValue@v8@@@Nan@@@Z 000000018004c5ac     CanvasRenderingContext2d.obj
 0004:000005b8       $pdata$?SetShadowBlur@Context2d@@SAXV?$Local@VString@v8@@@v8@@V?$Local@VValue@v8@@@3@AEBV?$PropertyCallbackInfo@X@Nan@@@Z 000000018004c5b8     CanvasRenderingContext2d.obj
 0004:000005c4       $pdata$?GetAntiAlias@Context2d@@SAXV?$Local@VString@v8@@@v8@@AEBV?$PropertyCallbackInfo@VValue@v8@@@Nan@@@Z 000000018004c5c4     CanvasRenderingContext2d.obj
 0004:000005d0       $pdata$?SetAntiAlias@Context2d@@SAXV?$Local@VString@v8@@@v8@@V?$Local@VValue@v8@@@3@AEBV?$PropertyCallbackInfo@X@Nan@@@Z 000000018004c5d0     CanvasRenderingContext2d.obj
 0004:000005dc       $pdata$?GetTextDrawingMode@Context2d@@SAXV?$Local@VString@v8@@@v8@@AEBV?$PropertyCallbackInfo@VValue@v8@@@Nan@@@Z 000000018004c5dc     CanvasRenderingContext2d.obj
 0004:000005e8       $pdata$?SetTextDrawingMode@Context2d@@SAXV?$Local@VString@v8@@@v8@@V?$Local@VValue@v8@@@3@AEBV?$PropertyCallbackInfo@X@Nan@@@Z 000000018004c5e8     CanvasRenderingContext2d.obj
 0004:000005f4       $pdata$?GetFilter@Context2d@@SAXV?$Local@VString@v8@@@v8@@AEBV?$PropertyCallbackInfo@VValue@v8@@@Nan@@@Z 000000018004c5f4     CanvasRenderingContext2d.obj
 0004:00000600       $pdata$?SetFilter@Context2d@@SAXV?$Local@VString@v8@@@v8@@V?$Local@VValue@v8@@@3@AEBV?$PropertyCallbackInfo@X@Nan@@@Z 000000018004c600     CanvasRenderingContext2d.obj
 0004:0000060c       $pdata$?GetMiterLimit@Context2d@@SAXV?$Local@VString@v8@@@v8@@AEBV?$PropertyCallbackInfo@VValue@v8@@@Nan@@@Z 000000018004c60c     CanvasRenderingContext2d.obj
 0004:00000618       $pdata$?SetMiterLimit@Context2d@@SAXV?$Local@VString@v8@@@v8@@V?$Local@VValue@v8@@@3@AEBV?$PropertyCallbackInfo@X@Nan@@@Z 000000018004c618     CanvasRenderingContext2d.obj
 0004:00000624       $pdata$?GetLineWidth@Context2d@@SAXV?$Local@VString@v8@@@v8@@AEBV?$PropertyCallbackInfo@VValue@v8@@@Nan@@@Z 000000018004c624     CanvasRenderingContext2d.obj
 0004:00000630       $pdata$?SetLineWidth@Context2d@@SAXV?$Local@VString@v8@@@v8@@V?$Local@VValue@v8@@@3@AEBV?$PropertyCallbackInfo@X@Nan@@@Z 000000018004c630     CanvasRenderingContext2d.obj
 0004:0000063c       $pdata$?GetLineJoin@Context2d@@SAXV?$Local@VString@v8@@@v8@@AEBV?$PropertyCallbackInfo@VValue@v8@@@Nan@@@Z 000000018004c63c     CanvasRenderingContext2d.obj
 0004:00000648       $pdata$?SetLineJoin@Context2d@@SAXV?$Local@VString@v8@@@v8@@V?$Local@VValue@v8@@@3@AEBV?$PropertyCallbackInfo@X@Nan@@@Z 000000018004c648     CanvasRenderingContext2d.obj
 0004:00000654       $pdata$?GetLineCap@Context2d@@SAXV?$Local@VString@v8@@@v8@@AEBV?$PropertyCallbackInfo@VValue@v8@@@Nan@@@Z 000000018004c654     CanvasRenderingContext2d.obj
 0004:00000660       $pdata$?SetLineCap@Context2d@@SAXV?$Local@VString@v8@@@v8@@V?$Local@VValue@v8@@@3@AEBV?$PropertyCallbackInfo@X@Nan@@@Z 000000018004c660     CanvasRenderingContext2d.obj
 0004:0000066c       $pdata$?IsPointInPath@Context2d@@SAXAEBV?$FunctionCallbackInfo@VValue@v8@@@Nan@@@Z 000000018004c66c     CanvasRenderingContext2d.obj
 0004:00000678       $pdata$2$?IsPointInPath@Context2d@@SAXAEBV?$FunctionCallbackInfo@VValue@v8@@@Nan@@@Z 000000018004c678     CanvasRenderingContext2d.obj
 0004:00000684       $pdata$3$?IsPointInPath@Context2d@@SAXAEBV?$FunctionCallbackInfo@VValue@v8@@@Nan@@@Z 000000018004c684     CanvasRenderingContext2d.obj
 0004:00000690       $pdata$?SetFillPattern@Context2d@@SAXAEBV?$FunctionCallbackInfo@VValue@v8@@@Nan@@@Z 000000018004c690     CanvasRenderingContext2d.obj
 0004:0000069c       $pdata$?SetStrokePattern@Context2d@@SAXAEBV?$FunctionCallbackInfo@VValue@v8@@@Nan@@@Z 000000018004c69c     CanvasRenderingContext2d.obj
 0004:000006a8       $pdata$?SetShadowColor@Context2d@@SAXV?$Local@VString@v8@@@v8@@V?$Local@VValue@v8@@@3@AEBV?$PropertyCallbackInfo@X@Nan@@@Z 000000018004c6a8     CanvasRenderingContext2d.obj
 0004:000006b4       $pdata$?GetShadowColor@Context2d@@SAXV?$Local@VString@v8@@@v8@@AEBV?$PropertyCallbackInfo@VValue@v8@@@Nan@@@Z 000000018004c6b4     CanvasRenderingContext2d.obj
 0004:000006c0       $pdata$?SetFillColor@Context2d@@SAXAEBV?$FunctionCallbackInfo@VValue@v8@@@Nan@@@Z 000000018004c6c0     CanvasRenderingContext2d.obj
 0004:000006cc       $pdata$?GetFillColor@Context2d@@SAXV?$Local@VString@v8@@@v8@@AEBV?$PropertyCallbackInfo@VValue@v8@@@Nan@@@Z 000000018004c6cc     CanvasRenderingContext2d.obj
 0004:000006d8       $pdata$?SetStrokeColor@Context2d@@SAXAEBV?$FunctionCallbackInfo@VValue@v8@@@Nan@@@Z 000000018004c6d8     CanvasRenderingContext2d.obj
 0004:000006e4       $pdata$?GetStrokeColor@Context2d@@SAXV?$Local@VString@v8@@@v8@@AEBV?$PropertyCallbackInfo@VValue@v8@@@Nan@@@Z 000000018004c6e4     CanvasRenderingContext2d.obj
 0004:000006f0       $pdata$?BezierCurveTo@Context2d@@SAXAEBV?$FunctionCallbackInfo@VValue@v8@@@Nan@@@Z 000000018004c6f0     CanvasRenderingContext2d.obj
 0004:000006fc       $pdata$9$?BezierCurveTo@Context2d@@SAXAEBV?$FunctionCallbackInfo@VValue@v8@@@Nan@@@Z 000000018004c6fc     CanvasRenderingContext2d.obj
 0004:00000708       $pdata$10$?BezierCurveTo@Context2d@@SAXAEBV?$FunctionCallbackInfo@VValue@v8@@@Nan@@@Z 000000018004c708     CanvasRenderingContext2d.obj
 0004:00000714       $pdata$?QuadraticCurveTo@Context2d@@SAXAEBV?$FunctionCallbackInfo@VValue@v8@@@Nan@@@Z 000000018004c714     CanvasRenderingContext2d.obj
 0004:00000720       $pdata$4$?QuadraticCurveTo@Context2d@@SAXAEBV?$FunctionCallbackInfo@VValue@v8@@@Nan@@@Z 000000018004c720     CanvasRenderingContext2d.obj
 0004:0000072c       $pdata$5$?QuadraticCurveTo@Context2d@@SAXAEBV?$FunctionCallbackInfo@VValue@v8@@@Nan@@@Z 000000018004c72c     CanvasRenderingContext2d.obj
 0004:00000738       $pdata$?Save@Context2d@@SAXAEBV?$FunctionCallbackInfo@VValue@v8@@@Nan@@@Z 000000018004c738     CanvasRenderingContext2d.obj
 0004:00000744       $pdata$?Restore@Context2d@@SAXAEBV?$FunctionCallbackInfo@VValue@v8@@@Nan@@@Z 000000018004c744     CanvasRenderingContext2d.obj
 0004:00000750       $pdata$?BeginPath@Context2d@@SAXAEBV?$FunctionCallbackInfo@VValue@v8@@@Nan@@@Z 000000018004c750     CanvasRenderingContext2d.obj
 0004:0000075c       $pdata$?ClosePath@Context2d@@SAXAEBV?$FunctionCallbackInfo@VValue@v8@@@Nan@@@Z 000000018004c75c     CanvasRenderingContext2d.obj
 0004:00000768       $pdata$?Rotate@Context2d@@SAXAEBV?$FunctionCallbackInfo@VValue@v8@@@Nan@@@Z 000000018004c768     CanvasRenderingContext2d.obj
 0004:00000774       $pdata$?Transform@Context2d@@SAXAEBV?$FunctionCallbackInfo@VValue@v8@@@Nan@@@Z 000000018004c774     CanvasRenderingContext2d.obj
 0004:00000780       $pdata$?ResetTransform@Context2d@@SAXAEBV?$FunctionCallbackInfo@VValue@v8@@@Nan@@@Z 000000018004c780     CanvasRenderingContext2d.obj
 0004:0000078c       $pdata$?Translate@Context2d@@SAXAEBV?$FunctionCallbackInfo@VValue@v8@@@Nan@@@Z 000000018004c78c     CanvasRenderingContext2d.obj
 0004:00000798       $pdata$?Scale@Context2d@@SAXAEBV?$FunctionCallbackInfo@VValue@v8@@@Nan@@@Z 000000018004c798     CanvasRenderingContext2d.obj
 0004:000007a4       $pdata$?Clip@Context2d@@SAXAEBV?$FunctionCallbackInfo@VValue@v8@@@Nan@@@Z 000000018004c7a4     CanvasRenderingContext2d.obj
 0004:000007b0       $pdata$?Fill@Context2d@@SAXAEBV?$FunctionCallbackInfo@VValue@v8@@@Nan@@@Z 000000018004c7b0     CanvasRenderingContext2d.obj
 0004:000007bc       $pdata$?Stroke@Context2d@@SAXAEBV?$FunctionCallbackInfo@VValue@v8@@@Nan@@@Z 000000018004c7bc     CanvasRenderingContext2d.obj
 0004:000007c8       $pdata$?FillText@Context2d@@SAXAEBV?$FunctionCallbackInfo@VValue@v8@@@Nan@@@Z 000000018004c7c8     CanvasRenderingContext2d.obj
 0004:000007d4       $pdata$?StrokeText@Context2d@@SAXAEBV?$FunctionCallbackInfo@VValue@v8@@@Nan@@@Z 000000018004c7d4     CanvasRenderingContext2d.obj
 0004:000007e0       $pdata$?setTextPath@Context2d@@QEAAXPEBDNN@Z 000000018004c7e0     CanvasRenderingContext2d.obj
 0004:000007ec       $pdata$?LineTo@Context2d@@SAXAEBV?$FunctionCallbackInfo@VValue@v8@@@Nan@@@Z 000000018004c7ec     CanvasRenderingContext2d.obj
 0004:000007f8       $pdata$?MoveTo@Context2d@@SAXAEBV?$FunctionCallbackInfo@VValue@v8@@@Nan@@@Z 000000018004c7f8     CanvasRenderingContext2d.obj
 0004:00000804       $pdata$?SetFont@Context2d@@SAXAEBV?$FunctionCallbackInfo@VValue@v8@@@Nan@@@Z 000000018004c804     CanvasRenderingContext2d.obj
 0004:00000810       $pdata$?MeasureText@Context2d@@SAXAEBV?$FunctionCallbackInfo@VValue@v8@@@Nan@@@Z 000000018004c810     CanvasRenderingContext2d.obj
 0004:0000081c       $pdata$?SetTextBaseline@Context2d@@SAXAEBV?$FunctionCallbackInfo@VValue@v8@@@Nan@@@Z 000000018004c81c     CanvasRenderingContext2d.obj
 0004:00000828       $pdata$0$?SetTextBaseline@Context2d@@SAXAEBV?$FunctionCallbackInfo@VValue@v8@@@Nan@@@Z 000000018004c828     CanvasRenderingContext2d.obj
 0004:00000834       $pdata$1$?SetTextBaseline@Context2d@@SAXAEBV?$FunctionCallbackInfo@VValue@v8@@@Nan@@@Z 000000018004c834     CanvasRenderingContext2d.obj
 0004:00000840       $pdata$?SetTextAlignment@Context2d@@SAXAEBV?$FunctionCallbackInfo@VValue@v8@@@Nan@@@Z 000000018004c840     CanvasRenderingContext2d.obj
 0004:0000084c       $pdata$0$?SetTextAlignment@Context2d@@SAXAEBV?$FunctionCallbackInfo@VValue@v8@@@Nan@@@Z 000000018004c84c     CanvasRenderingContext2d.obj
 0004:00000858       $pdata$1$?SetTextAlignment@Context2d@@SAXAEBV?$FunctionCallbackInfo@VValue@v8@@@Nan@@@Z 000000018004c858     CanvasRenderingContext2d.obj
 0004:00000864       $pdata$?SetLineDash@Context2d@@SAXAEBV?$FunctionCallbackInfo@VValue@v8@@@Nan@@@Z 000000018004c864     CanvasRenderingContext2d.obj
 0004:00000870       $pdata$?GetLineDash@Context2d@@SAXAEBV?$FunctionCallbackInfo@VValue@v8@@@Nan@@@Z 000000018004c870     CanvasRenderingContext2d.obj
 0004:0000087c       $pdata$?SetLineDashOffset@Context2d@@SAXV?$Local@VString@v8@@@v8@@V?$Local@VValue@v8@@@3@AEBV?$PropertyCallbackInfo@X@Nan@@@Z 000000018004c87c     CanvasRenderingContext2d.obj
 0004:00000888       $pdata$5$?SetLineDashOffset@Context2d@@SAXV?$Local@VString@v8@@@v8@@V?$Local@VValue@v8@@@3@AEBV?$PropertyCallbackInfo@X@Nan@@@Z 000000018004c888     CanvasRenderingContext2d.obj
 0004:00000894       $pdata$6$?SetLineDashOffset@Context2d@@SAXV?$Local@VString@v8@@@v8@@V?$Local@VValue@v8@@@3@AEBV?$PropertyCallbackInfo@X@Nan@@@Z 000000018004c894     CanvasRenderingContext2d.obj
 0004:000008a0       $pdata$7$?SetLineDashOffset@Context2d@@SAXV?$Local@VString@v8@@@v8@@V?$Local@VValue@v8@@@3@AEBV?$PropertyCallbackInfo@X@Nan@@@Z 000000018004c8a0     CanvasRenderingContext2d.obj
 0004:000008ac       $pdata$?GetLineDashOffset@Context2d@@SAXV?$Local@VString@v8@@@v8@@AEBV?$PropertyCallbackInfo@VValue@v8@@@Nan@@@Z 000000018004c8ac     CanvasRenderingContext2d.obj
 0004:000008b8       $pdata$?FillRect@Context2d@@SAXAEBV?$FunctionCallbackInfo@VValue@v8@@@Nan@@@Z 000000018004c8b8     CanvasRenderingContext2d.obj
 0004:000008c4       $pdata$3$?FillRect@Context2d@@SAXAEBV?$FunctionCallbackInfo@VValue@v8@@@Nan@@@Z 000000018004c8c4     CanvasRenderingContext2d.obj
 0004:000008d0       $pdata$4$?FillRect@Context2d@@SAXAEBV?$FunctionCallbackInfo@VValue@v8@@@Nan@@@Z 000000018004c8d0     CanvasRenderingContext2d.obj
 0004:000008dc       $pdata$5$?FillRect@Context2d@@SAXAEBV?$FunctionCallbackInfo@VValue@v8@@@Nan@@@Z 000000018004c8dc     CanvasRenderingContext2d.obj
 0004:000008e8       $pdata$6$?FillRect@Context2d@@SAXAEBV?$FunctionCallbackInfo@VValue@v8@@@Nan@@@Z 000000018004c8e8     CanvasRenderingContext2d.obj
 0004:000008f4       $pdata$?StrokeRect@Context2d@@SAXAEBV?$FunctionCallbackInfo@VValue@v8@@@Nan@@@Z 000000018004c8f4     CanvasRenderingContext2d.obj
 0004:00000900       $pdata$3$?StrokeRect@Context2d@@SAXAEBV?$FunctionCallbackInfo@VValue@v8@@@Nan@@@Z 000000018004c900     CanvasRenderingContext2d.obj
 0004:0000090c       $pdata$4$?StrokeRect@Context2d@@SAXAEBV?$FunctionCallbackInfo@VValue@v8@@@Nan@@@Z 000000018004c90c     CanvasRenderingContext2d.obj
 0004:00000918       $pdata$5$?StrokeRect@Context2d@@SAXAEBV?$FunctionCallbackInfo@VValue@v8@@@Nan@@@Z 000000018004c918     CanvasRenderingContext2d.obj
 0004:00000924       $pdata$6$?StrokeRect@Context2d@@SAXAEBV?$FunctionCallbackInfo@VValue@v8@@@Nan@@@Z 000000018004c924     CanvasRenderingContext2d.obj
 0004:00000930       $pdata$?ClearRect@Context2d@@SAXAEBV?$FunctionCallbackInfo@VValue@v8@@@Nan@@@Z 000000018004c930     CanvasRenderingContext2d.obj
 0004:0000093c       $pdata$3$?ClearRect@Context2d@@SAXAEBV?$FunctionCallbackInfo@VValue@v8@@@Nan@@@Z 000000018004c93c     CanvasRenderingContext2d.obj
 0004:00000948       $pdata$4$?ClearRect@Context2d@@SAXAEBV?$FunctionCallbackInfo@VValue@v8@@@Nan@@@Z 000000018004c948     CanvasRenderingContext2d.obj
 0004:00000954       $pdata$5$?ClearRect@Context2d@@SAXAEBV?$FunctionCallbackInfo@VValue@v8@@@Nan@@@Z 000000018004c954     CanvasRenderingContext2d.obj
 0004:00000960       $pdata$6$?ClearRect@Context2d@@SAXAEBV?$FunctionCallbackInfo@VValue@v8@@@Nan@@@Z 000000018004c960     CanvasRenderingContext2d.obj
 0004:0000096c       $pdata$?Rect@Context2d@@SAXAEBV?$FunctionCallbackInfo@VValue@v8@@@Nan@@@Z 000000018004c96c     CanvasRenderingContext2d.obj
 0004:00000978       $pdata$3$?Rect@Context2d@@SAXAEBV?$FunctionCallbackInfo@VValue@v8@@@Nan@@@Z 000000018004c978     CanvasRenderingContext2d.obj
 0004:00000984       $pdata$4$?Rect@Context2d@@SAXAEBV?$FunctionCallbackInfo@VValue@v8@@@Nan@@@Z 000000018004c984     CanvasRenderingContext2d.obj
 0004:00000990       $pdata$?Arc@Context2d@@SAXAEBV?$FunctionCallbackInfo@VValue@v8@@@Nan@@@Z 000000018004c990     CanvasRenderingContext2d.obj
 0004:0000099c       $pdata$7$?Arc@Context2d@@SAXAEBV?$FunctionCallbackInfo@VValue@v8@@@Nan@@@Z 000000018004c99c     CanvasRenderingContext2d.obj
 0004:000009a8       $pdata$8$?Arc@Context2d@@SAXAEBV?$FunctionCallbackInfo@VValue@v8@@@Nan@@@Z 000000018004c9a8     CanvasRenderingContext2d.obj
 0004:000009b4       $pdata$?ArcTo@Context2d@@SAXAEBV?$FunctionCallbackInfo@VValue@v8@@@Nan@@@Z 000000018004c9b4     CanvasRenderingContext2d.obj
 0004:000009c0       $pdata$8$?ArcTo@Context2d@@SAXAEBV?$FunctionCallbackInfo@VValue@v8@@@Nan@@@Z 000000018004c9c0     CanvasRenderingContext2d.obj
 0004:000009cc       $pdata$9$?ArcTo@Context2d@@SAXAEBV?$FunctionCallbackInfo@VValue@v8@@@Nan@@@Z 000000018004c9cc     CanvasRenderingContext2d.obj
 0004:000009d8       $pdata$11$?ArcTo@Context2d@@SAXAEBV?$FunctionCallbackInfo@VValue@v8@@@Nan@@@Z 000000018004c9d8     CanvasRenderingContext2d.obj
 0004:000009e4       $pdata$12$?ArcTo@Context2d@@SAXAEBV?$FunctionCallbackInfo@VValue@v8@@@Nan@@@Z 000000018004c9e4     CanvasRenderingContext2d.obj
 0004:000009f0       $pdata$13$?ArcTo@Context2d@@SAXAEBV?$FunctionCallbackInfo@VValue@v8@@@Nan@@@Z 000000018004c9f0     CanvasRenderingContext2d.obj
 0004:000009fc       $pdata$?_Tidy@?$vector@NV?$allocator@N@std@@@std@@IEAAXXZ 000000018004c9fc     CanvasRenderingContext2d.obj
 0004:00000a08       $pdata$??$_Allocate@N@std@@YAPEAN_KPEAN_N@Z 000000018004ca08     CanvasRenderingContext2d.obj
 0004:00000a14       $pdata$snprintf            000000018004ca14     color.obj
 0004:00000a20       $pdata$?rgba_from_hsla@@YAHMMMM@Z 000000018004ca20     color.obj
 0004:00000a2c       $pdata$?rgba_from_rgb_string@@YAHPEBDPEAF@Z 000000018004ca2c     color.obj
 0004:00000a38       $pdata$0$?rgba_from_rgb_string@@YAHPEBDPEAF@Z 000000018004ca38     color.obj
 0004:00000a44       $pdata$2$?rgba_from_rgb_string@@YAHPEBDPEAF@Z 000000018004ca44     color.obj
 0004:00000a50       $pdata$3$?rgba_from_rgb_string@@YAHPEBDPEAF@Z 000000018004ca50     color.obj
 0004:00000a5c       $pdata$?rgba_from_rgba_string@@YAHPEBDPEAF@Z 000000018004ca5c     color.obj
 0004:00000a68       $pdata$0$?rgba_from_rgba_string@@YAHPEBDPEAF@Z 000000018004ca68     color.obj
 0004:00000a74       $pdata$2$?rgba_from_rgba_string@@YAHPEBDPEAF@Z 000000018004ca74     color.obj
 0004:00000a80       $pdata$3$?rgba_from_rgba_string@@YAHPEBDPEAF@Z 000000018004ca80     color.obj
 0004:00000a8c       $pdata$?rgba_from_hsla_string@@YAHPEBDPEAF@Z 000000018004ca8c     color.obj
 0004:00000a98       $pdata$2$?rgba_from_hsla_string@@YAHPEBDPEAF@Z 000000018004ca98     color.obj
 0004:00000aa4       $pdata$4$?rgba_from_hsla_string@@YAHPEBDPEAF@Z 000000018004caa4     color.obj
 0004:00000ab0       $pdata$5$?rgba_from_hsla_string@@YAHPEBDPEAF@Z 000000018004cab0     color.obj
 0004:00000abc       $pdata$6$?rgba_from_hsla_string@@YAHPEBDPEAF@Z 000000018004cabc     color.obj
 0004:00000ac8       $pdata$?rgba_from_hsl_string@@YAHPEBDPEAF@Z 000000018004cac8     color.obj
 0004:00000ad4       $pdata$1$?rgba_from_hsl_string@@YAHPEBDPEAF@Z 000000018004cad4     color.obj
 0004:00000ae0       $pdata$3$?rgba_from_hsl_string@@YAHPEBDPEAF@Z 000000018004cae0     color.obj
 0004:00000aec       $pdata$4$?rgba_from_hsl_string@@YAHPEBDPEAF@Z 000000018004caec     color.obj
 0004:00000af8       $pdata$?rgba_from_hex_string@@YAHPEBDPEAF@Z 000000018004caf8     color.obj
 0004:00000b04       $pdata$?rgba_from_name_string@@YAHPEBDPEAF@Z 000000018004cb04     color.obj
 0004:00000b10       $pdata$?rgba_from_string@@YAHPEBDPEAF@Z 000000018004cb10     color.obj
 0004:00000b1c       $pdata$??$parse_css_number@M@@YA_NPEAPEBDPEAM@Z 000000018004cb1c     color.obj
 0004:00000b28       $pdata$1$??$parse_css_number@M@@YA_NPEAPEBDPEAM@Z 000000018004cb28     color.obj
 0004:00000b34       $pdata$3$??$parse_css_number@M@@YA_NPEAPEBDPEAM@Z 000000018004cb34     color.obj
 0004:00000b40       $pdata$?GetFunction@Callback@Nan@@QEBA?AV?$Local@VFunction@v8@@@v8@@XZ 000000018004cb40     Image.obj
 0004:00000b4c       $pdata$?Initialize@Image@@SAXV?$Local@VObject@v8@@@v8@@@Z 000000018004cb4c     Image.obj
 0004:00000b58       $pdata$?New@Image@@SAXAEBV?$FunctionCallbackInfo@VValue@v8@@@Nan@@@Z 000000018004cb58     Image.obj
 0004:00000b64       $pdata$?GetComplete@Image@@SAXV?$Local@VString@v8@@@v8@@AEBV?$PropertyCallbackInfo@VValue@v8@@@Nan@@@Z 000000018004cb64     Image.obj
 0004:00000b70       $pdata$?GetDataMode@Image@@SAXV?$Local@VString@v8@@@v8@@AEBV?$PropertyCallbackInfo@VValue@v8@@@Nan@@@Z 000000018004cb70     Image.obj
 0004:00000b7c       $pdata$?SetDataMode@Image@@SAXV?$Local@VString@v8@@@v8@@V?$Local@VValue@v8@@@3@AEBV?$PropertyCallbackInfo@X@Nan@@@Z 000000018004cb7c     Image.obj
 0004:00000b88       $pdata$?GetWidth@Image@@SAXV?$Local@VString@v8@@@v8@@AEBV?$PropertyCallbackInfo@VValue@v8@@@Nan@@@Z 000000018004cb88     Image.obj
 0004:00000b94       $pdata$?GetHeight@Image@@SAXV?$Local@VString@v8@@@v8@@AEBV?$PropertyCallbackInfo@VValue@v8@@@Nan@@@Z 000000018004cb94     Image.obj
 0004:00000ba0       $pdata$?GetSource@Image@@SAXV?$Local@VString@v8@@@v8@@AEBV?$PropertyCallbackInfo@VValue@v8@@@Nan@@@Z 000000018004cba0     Image.obj
 0004:00000bac       $pdata$?clearData@Image@@QEAAXXZ 000000018004cbac     Image.obj
 0004:00000bb8       $pdata$2$?clearData@Image@@QEAAXXZ 000000018004cbb8     Image.obj
 0004:00000bc4       $pdata$3$?clearData@Image@@QEAAXXZ 000000018004cbc4     Image.obj
 0004:00000bd0       $pdata$4$?clearData@Image@@QEAAXXZ 000000018004cbd0     Image.obj
 0004:00000bdc       $pdata$?SetSource@Image@@SAXV?$Local@VString@v8@@@v8@@V?$Local@VValue@v8@@@3@AEBV?$PropertyCallbackInfo@X@Nan@@@Z 000000018004cbdc     Image.obj
 0004:00000be8       $pdata$0$?SetSource@Image@@SAXV?$Local@VString@v8@@@v8@@V?$Local@VValue@v8@@@3@AEBV?$PropertyCallbackInfo@X@Nan@@@Z 000000018004cbe8     Image.obj
 0004:00000bf4       $pdata$1$?SetSource@Image@@SAXV?$Local@VString@v8@@@v8@@V?$Local@VValue@v8@@@3@AEBV?$PropertyCallbackInfo@X@Nan@@@Z 000000018004cbf4     Image.obj
 0004:00000c00       $pdata$?loadFromBuffer@Image@@QEAA?AW4_cairo_status@@PEAEI@Z 000000018004cc00     Image.obj
 0004:00000c0c       $pdata$?readPNG@Image@@SA?AW4_cairo_status@@PEAXPEAEI@Z 000000018004cc0c     Image.obj
 0004:00000c18       $pdata$?GetOnload@Image@@SAXV?$Local@VString@v8@@@v8@@AEBV?$PropertyCallbackInfo@VValue@v8@@@Nan@@@Z 000000018004cc18     Image.obj
 0004:00000c24       $pdata$?SetOnload@Image@@SAXV?$Local@VString@v8@@@v8@@V?$Local@VValue@v8@@@3@AEBV?$PropertyCallbackInfo@X@Nan@@@Z 000000018004cc24     Image.obj
 0004:00000c30       $pdata$?GetOnerror@Image@@SAXV?$Local@VString@v8@@@v8@@AEBV?$PropertyCallbackInfo@VValue@v8@@@Nan@@@Z 000000018004cc30     Image.obj
 0004:00000c3c       $pdata$?SetOnerror@Image@@SAXV?$Local@VString@v8@@@v8@@V?$Local@VValue@v8@@@3@AEBV?$PropertyCallbackInfo@X@Nan@@@Z 000000018004cc3c     Image.obj
 0004:00000c48       $pdata$??_GImage@@EEAAPEAXI@Z 000000018004cc48     Image.obj
 0004:00000c54       $pdata$??1Image@@EEAA@XZ   000000018004cc54     Image.obj
 0004:00000c60       $pdata$?loaded@Image@@QEAAXXZ 000000018004cc60     Image.obj
 0004:00000c6c       $pdata$?error@Image@@QEAAXV?$Local@VValue@v8@@@v8@@@Z 000000018004cc6c     Image.obj
 0004:00000c78       $pdata$?loadSurface@Image@@QEAA?AW4_cairo_status@@XZ 000000018004cc78     Image.obj
 0004:00000c84       $pdata$??_GImageData@@UEAAPEAXI@Z 000000018004cc84     ImageData.obj
 0004:00000c90       $pdata$?Initialize@ImageData@@SAXV?$Local@VObject@v8@@@v8@@@Z 000000018004cc90     ImageData.obj
 0004:00000c9c       $pdata$?New@ImageData@@SAXAEBV?$FunctionCallbackInfo@VValue@v8@@@Nan@@@Z 000000018004cc9c     ImageData.obj
 0004:00000ca8       $pdata$?init@@YAXV?$Local@VObject@v8@@@v8@@@Z 000000018004cca8     init.obj
 0004:00000cb4       $pdata$load_exe_hook       000000018004ccb4     win_delay_load_hook.obj
 0004:00000ccc       $pdata$??0bad_alloc@std@@QEAA@AEBV01@@Z 000000018004cccc     libcpmt:xthrow.obj
 0004:00000cd8       $pdata$??0exception@std@@QEAA@AEBV01@@Z 000000018004ccd8     libcpmt:xthrow.obj
 0004:00000ce4       $pdata$??0length_error@std@@QEAA@AEBV01@@Z 000000018004cce4     libcpmt:xthrow.obj
 0004:00000cf0       $pdata$??0length_error@std@@QEAA@PEBD@Z 000000018004ccf0     libcpmt:xthrow.obj
 0004:00000cfc       $pdata$??0logic_error@std@@QEAA@AEBV01@@Z 000000018004ccfc     libcpmt:xthrow.obj
 0004:00000d08       $pdata$?_Xlength_error@std@@YAXPEBD@Z 000000018004cd08     libcpmt:xthrow.obj
 0004:00000d20       $pdata$??2@YAPEAX_K@Z      000000018004cd20     LIBCMT:new_scalar.obj
 0004:00000d2c       $pdata$??_M@YAXPEAX_K1P6AX0@Z@Z 000000018004cd2c     LIBCMT:ehvecdtr.obj
 0004:00000d38       $pdata$?__ArrayUnwind@@YAXPEAX_K1P6AX0@Z@Z 000000018004cd38     LIBCMT:ehvecdtr.obj
 0004:00000d44       $pdata$__scrt_acquire_startup_lock 000000018004cd44     LIBCMT:utility.obj
 0004:00000d50       $pdata$__scrt_dllmain_after_initialize_c 000000018004cd50     LIBCMT:utility.obj
 0004:00000d5c       $pdata$__scrt_dllmain_before_initialize_c 000000018004cd5c     LIBCMT:utility.obj
 0004:00000d68       $pdata$__scrt_dllmain_crt_thread_attach 000000018004cd68     LIBCMT:utility.obj
 0004:00000d74       $pdata$__scrt_dllmain_crt_thread_detach 000000018004cd74     LIBCMT:utility.obj
 0004:00000d80       $pdata$__scrt_dllmain_exception_filter 000000018004cd80     LIBCMT:utility.obj
 0004:00000d8c       $pdata$__scrt_dllmain_uninitialize_c 000000018004cd8c     LIBCMT:utility.obj
 0004:00000d98       $pdata$__scrt_dllmain_uninitialize_critical 000000018004cd98     LIBCMT:utility.obj
 0004:00000da4       $pdata$__scrt_initialize_crt 000000018004cda4     LIBCMT:utility.obj
 0004:00000db0       $pdata$__scrt_initialize_onexit_tables 000000018004cdb0     LIBCMT:utility.obj
 0004:00000dbc       $pdata$__scrt_is_nonwritable_in_current_image 000000018004cdbc     LIBCMT:utility.obj
 0004:00000dc8       $pdata$__scrt_release_startup_lock 000000018004cdc8     LIBCMT:utility.obj
 0004:00000dd4       $pdata$__scrt_uninitialize_crt 000000018004cdd4     LIBCMT:utility.obj
 0004:00000de0       $pdata$_onexit             000000018004cde0     LIBCMT:utility.obj
 0004:00000dec       $pdata$atexit              000000018004cdec     LIBCMT:utility.obj
 0004:00000df8       $pdata$?dllmain_crt_dispatch@@YAHQEAUHINSTANCE__@@KQEAX@Z 000000018004cdf8     LIBCMT:dll_dllmain.obj
 0004:00000e04       $pdata$?dllmain_crt_process_attach@@YAHQEAUHINSTANCE__@@QEAX@Z 000000018004ce04     LIBCMT:dll_dllmain.obj
 0004:00000e10       $pdata$?dllmain_crt_process_detach@@YAH_N@Z 000000018004ce10     LIBCMT:dll_dllmain.obj
 0004:00000e1c       $pdata$?dllmain_dispatch@@YAHQEAUHINSTANCE__@@KQEAX@Z 000000018004ce1c     LIBCMT:dll_dllmain.obj
 0004:00000e28       $pdata$?dllmain_raw@@YAHQEAUHINSTANCE__@@KQEAX@Z 000000018004ce28     LIBCMT:dll_dllmain.obj
 0004:00000e34       $pdata$_DllMainCRTStartup  000000018004ce34     LIBCMT:dll_dllmain.obj
 0004:00000e40       $pdata$??_Gtype_info@@UEAAPEAXI@Z 000000018004ce40     LIBCMT:std_type_info_static.obj
 0004:00000e4c       $pdata$__raise_securityfailure 000000018004ce4c     LIBCMT:gs_report.obj
 0004:00000e58       $pdata$__report_gsfailure  000000018004ce58     LIBCMT:gs_report.obj
 0004:00000e64       $pdata$capture_previous_context 000000018004ce64     LIBCMT:gs_report.obj
 0004:00000e70       $pdata$??0bad_array_new_length@std@@QEAA@AEBV01@@Z 000000018004ce70     LIBCMT:throw_bad_alloc.obj
 0004:00000e7c       $pdata$?__scrt_throw_std_bad_alloc@@YAXXZ 000000018004ce7c     LIBCMT:throw_bad_alloc.obj
 0004:00000e7c       $pdata$?_Xbad_alloc@std@@YAXXZ 000000018004ce7c     libcpmt:xthrow.obj
 0004:00000e88       $pdata$?__scrt_throw_std_bad_array_new_length@@YAXXZ 000000018004ce88     LIBCMT:throw_bad_alloc.obj
 0004:00000e94       $pdata$__isa_available_init 000000018004ce94     LIBCMT:_cpu_disp_.obj
 0004:00000ea0       $pdata$__scrt_fastfail     000000018004cea0     LIBCMT:utility_desktop.obj
 0004:00000eac       $pdata$__security_init_cookie 000000018004ceac     LIBCMT:gs_support.obj
 0004:00000eb8       $pdata$__scrt_initialize_default_local_stdio_options 000000018004ceb8     LIBCMT:default_local_stdio_options.obj
 0004:00000ec4       $pdata$_RTC_Initialize     000000018004cec4     LIBCMT:_initsect_.obj
 0004:00000ed0       $pdata$_RTC_Terminate      000000018004ced0     LIBCMT:_initsect_.obj
 0004:00000edc       $pdata$longjmp             000000018004cedc     libvcruntime:longjmpc.obj
 0004:00000ee8       $pdata$_purecall           000000018004cee8     libvcruntime:purevirt.obj
 0004:00000ef4       $pdata$__DestructExceptionObject 000000018004cef4     libvcruntime:frame.obj
 0004:00000f00       $pdata$??0bad_exception@std@@QEAA@AEBV01@@Z 000000018004cf00     libvcruntime:frame.obj
 0004:00000f0c       $pdata$??_Glength_error@std@@UEAAPEAXI@Z 000000018004cf0c     libcpmt:xthrow.obj
 0004:00000f0c       $pdata$??_Gexception@std@@UEAAPEAXI@Z 000000018004cf0c     libcpmt:xthrow.obj
 0004:00000f0c       $pdata$??_Glogic_error@std@@UEAAPEAXI@Z 000000018004cf0c     libcpmt:xthrow.obj
 0004:00000f0c       $pdata$??_Gbad_exception@std@@UEAAPEAXI@Z 000000018004cf0c     libvcruntime:frame.obj
 0004:00000f0c       $pdata$??_Gbad_alloc@std@@UEAAPEAXI@Z 000000018004cf0c     libcpmt:xthrow.obj
 0004:00000f0c       $pdata$??_Gbad_array_new_length@std@@UEAAPEAXI@Z 000000018004cf0c     LIBCMT:throw_bad_alloc.obj
 0004:00000f18       $pdata$?CatchIt@@YAXPEAUEHExceptionRecord@@PEA_KPEAU_CONTEXT@@PEAU_xDISPATCHER_CONTEXT@@PEBU_s_FuncInfo@@PEBU_s_HandlerType@@PEBU_s_CatchableType@@PEBU_s_TryBlockMapEntry@@H1EE@Z 000000018004cf18     libvcruntime:frame.obj
 0004:00000f24       $pdata$?ExFilterRethrow@@YAHPEAU_EXCEPTION_POINTERS@@PEAUEHExceptionRecord@@PEAH@Z 000000018004cf24     libvcruntime:frame.obj
 0004:00000f30       $pdata$?FindHandler@@YAXPEAUEHExceptionRecord@@PEA_KPEAU_CONTEXT@@PEAU_xDISPATCHER_CONTEXT@@PEBU_s_FuncInfo@@EH1@Z 000000018004cf30     libvcruntime:frame.obj
 0004:00000f3c       $pdata$?FindHandlerForForeignException@@YAXPEAUEHExceptionRecord@@PEA_KPEAU_CONTEXT@@PEAU_xDISPATCHER_CONTEXT@@PEBU_s_FuncInfo@@HH1@Z 000000018004cf3c     libvcruntime:frame.obj
 0004:00000f48       $pdata$?IsInExceptionSpec@@YAEPEAUEHExceptionRecord@@PEBU_s_ESTypeList@@@Z 000000018004cf48     libvcruntime:frame.obj
 0004:00000f54       $pdata$__BuildCatchObject  000000018004cf54     libvcruntime:frame.obj
 0004:00000f60       $pdata$__BuildCatchObjectHelper 000000018004cf60     libvcruntime:frame.obj
 0004:00000f6c       $pdata$__CxxCallCatchBlock 000000018004cf6c     libvcruntime:frame.obj
 0004:00000f78       $pdata$__FrameUnwindFilter 000000018004cf78     libvcruntime:frame.obj
 0004:00000f84       $pdata$__FrameUnwindToState 000000018004cf84     libvcruntime:frame.obj
 0004:00000f90       $pdata$__InternalCxxFrameHandler 000000018004cf90     libvcruntime:frame.obj
 0004:00000f9c       $pdata$__TypeMatch         000000018004cf9c     libvcruntime:frame.obj
 0004:00000fa8       $pdata$__std_terminate     000000018004cfa8     libvcruntime:frame.obj
 0004:00000fb4       $pdata$strstr              000000018004cfb4     libvcruntime:strstr.obj
 0004:00000fc0       $pdata$__std_exception_copy 000000018004cfc0     libvcruntime:std_exception.obj
 0004:00000fcc       $pdata$__std_exception_destroy 000000018004cfcc     libvcruntime:std_exception.obj
 0004:00000fd8       $pdata$_CxxThrowException  000000018004cfd8     libvcruntime:throw.obj
 0004:00000fe4       $pdata$__C_specific_handler 000000018004cfe4     libvcruntime:_chandler_.obj
 0004:00000ff0       $pdata$__vcrt_initialize   000000018004cff0     libvcruntime:initialization.obj
 0004:00000ffc       $pdata$__vcrt_thread_attach 000000018004cffc     libvcruntime:initialization.obj
 0004:00001008       $pdata$__vcrt_thread_detach 000000018004d008     libvcruntime:initialization.obj
 0004:00001014       $pdata$__vcrt_uninitialize 000000018004d014     libvcruntime:initialization.obj
 0004:00001020       $pdata$__vcrt_uninitialize_critical 000000018004d020     libvcruntime:initialization.obj
 0004:0000102c       $pdata$__telemetry_main_invoke_trigger 000000018004d02c     libvcruntime:telemetry.obj
 0004:00001038       $pdata$__telemetry_main_return_trigger 000000018004d038     libvcruntime:telemetry.obj
 0004:00001044       $pdata$__vcrt_uninitialize_telemetry_provider 000000018004d044     libvcruntime:telemetry.obj
 0004:0000105c       $pdata$__std_type_info_destroy_list 000000018004d05c     libvcruntime:std_type_info.obj
 0004:00001074       $pdata$__vcrt_freefls      000000018004d074     libvcruntime:per_thread_data.obj
 0004:00001080       $pdata$__vcrt_freeptd      000000018004d080     libvcruntime:per_thread_data.obj
 0004:0000108c       $pdata$__vcrt_getptd       000000018004d08c     libvcruntime:per_thread_data.obj
 0004:00001098       $pdata$__vcrt_getptd_noexit 000000018004d098     libvcruntime:per_thread_data.obj
 0004:000010a4       $pdata$__vcrt_initialize_ptd 000000018004d0a4     libvcruntime:per_thread_data.obj
 0004:000010b0       $pdata$__vcrt_uninitialize_ptd 000000018004d0b0     libvcruntime:per_thread_data.obj
 0004:000010bc       $pdata$?__GetCurrentState@@YAHPEA_KPEAU_xDISPATCHER_CONTEXT@@PEBU_s_FuncInfo@@@Z 000000018004d0bc     libvcruntime:ehstate.obj
 0004:000010c8       $pdata$?__GetUnwindTryBlock@@YAHPEA_KPEAU_xDISPATCHER_CONTEXT@@PEBU_s_FuncInfo@@@Z 000000018004d0c8     libvcruntime:ehstate.obj
 0004:000010d4       $pdata$?__SetUnwindTryBlock@@YAXPEA_KPEAU_xDISPATCHER_CONTEXT@@PEBU_s_FuncInfo@@H@Z 000000018004d0d4     libvcruntime:ehstate.obj
 0004:000010e0       $pdata$?__StateFromIp@@YAHPEBU_s_FuncInfo@@PEAU_xDISPATCHER_CONTEXT@@_J@Z 000000018004d0e0     libvcruntime:ehstate.obj
 0004:000010f8       $pdata$?_GetEstablisherFrame@@YAPEA_KPEA_KPEAU_xDISPATCHER_CONTEXT@@PEBU_s_FuncInfo@@0@Z 000000018004d0f8     libvcruntime:trnsctrl.obj
 0004:00001104       $pdata$?_GetRangeOfTrysToCheck@@YAPEBU_s_TryBlockMapEntry@@PEA_KPEBU_s_FuncInfo@@HHPEAI2PEAU_xDISPATCHER_CONTEXT@@@Z 000000018004d104     libvcruntime:trnsctrl.obj
 0004:00001110       $pdata$?__FrameUnwindToEmptyState@@YAXPEA_KPEAU_xDISPATCHER_CONTEXT@@PEBU_s_FuncInfo@@@Z 000000018004d110     libvcruntime:trnsctrl.obj
 0004:0000111c       $pdata$?__SehTransFilter@@YAHPEAU_EXCEPTION_POINTERS@@PEAUEHExceptionRecord@@PEA_KPEAU_CONTEXT@@PEAU_xDISPATCHER_CONTEXT@@PEBU_s_FuncInfo@@PEAH@Z 000000018004d11c     libvcruntime:trnsctrl.obj
 0004:00001128       $pdata$_CallSETranslator   000000018004d128     libvcruntime:trnsctrl.obj
 0004:00001134       $pdata$_CreateFrameInfo    000000018004d134     libvcruntime:trnsctrl.obj
 0004:00001140       $pdata$_FindAndUnlinkFrame 000000018004d140     libvcruntime:trnsctrl.obj
 0004:0000114c       $pdata$_GetImageBase       000000018004d14c     libvcruntime:trnsctrl.obj
 0004:00001158       $pdata$_GetThrowImageBase  000000018004d158     libvcruntime:trnsctrl.obj
 0004:00001164       $pdata$_IsExceptionObjectToBeDestroyed 000000018004d164     libvcruntime:trnsctrl.obj
 0004:00001170       $pdata$_SetImageBase       000000018004d170     libvcruntime:trnsctrl.obj
 0004:0000117c       $pdata$_SetThrowImageBase  000000018004d17c     libvcruntime:trnsctrl.obj
 0004:00001188       $pdata$_UnwindNestedFrames 000000018004d188     libvcruntime:trnsctrl.obj
 0004:00001194       $pdata$__CxxFrameHandler3  000000018004d194     libvcruntime:trnsctrl.obj
 0004:000011d0       $pdata$__vcrt_initialize_locks 000000018004d1d0     libvcruntime:locks.obj
 0004:000011dc       $pdata$__vcrt_uninitialize_locks 000000018004d1dc     libvcruntime:locks.obj
 0004:000011e8       $pdata$?try_get_function@@YAPEAXW4function_id@?A0xece66f1d@@QEBDQEBW4module_id@2@2@Z 000000018004d1e8     libvcruntime:winapi_downlevel.obj
 0004:000011f4       $pdata$__vcrt_EventRegister 000000018004d1f4     libvcruntime:winapi_downlevel.obj
 0004:00001200       $pdata$__vcrt_EventSetInformation 000000018004d200     libvcruntime:winapi_downlevel.obj
 0004:0000120c       $pdata$__vcrt_EventUnregister 000000018004d20c     libvcruntime:winapi_downlevel.obj
 0004:00001218       $pdata$__vcrt_EventWriteTransfer 000000018004d218     libvcruntime:winapi_downlevel.obj
 0004:00001224       $pdata$__vcrt_FlsAlloc     000000018004d224     libvcruntime:winapi_downlevel.obj
 0004:00001230       $pdata$__vcrt_FlsFree      000000018004d230     libvcruntime:winapi_downlevel.obj
 0004:0000123c       $pdata$__vcrt_FlsGetValue  000000018004d23c     libvcruntime:winapi_downlevel.obj
 0004:00001248       $pdata$__vcrt_FlsSetValue  000000018004d248     libvcruntime:winapi_downlevel.obj
 0004:00001254       $pdata$__vcrt_InitializeCriticalSectionEx 000000018004d254     libvcruntime:winapi_downlevel.obj
 0004:00001260       $pdata$__vcrt_initialize_winapi_thunks 000000018004d260     libvcruntime:winapi_downlevel.obj
 0004:0000126c       $pdata$__vcrt_uninitialize_winapi_thunks 000000018004d26c     libvcruntime:winapi_downlevel.obj
 0004:00001278       $pdata$??$common_assert_to_message_box@_W@@YAXQEB_W0IQEAX@Z 000000018004d278     libucrt:assert.obj
 0004:00001284       $pdata$??$common_assert_to_message_box_build_string@_W@@YAXQEA_W_KQEB_W2IQEAX@Z 000000018004d284     libucrt:assert.obj
 0004:00001290       $pdata$??$common_assert_to_stderr@_W@@YAXQEB_W0I@Z 000000018004d290     libucrt:assert.obj
 0004:0000129c       $pdata$_wassert            000000018004d29c     libucrt:assert.obj
 0004:000012a8       $pdata$fwprintf            000000018004d2a8     libucrt:assert.obj
 0004:000012b4       $pdata$swprintf            000000018004d2b4     libucrt:assert.obj
 0004:000012c0       $pdata$__acrt_call_reportfault 000000018004d2c0     libucrt:invalid_parameter.obj
 0004:000012cc       $pdata$_invalid_parameter  000000018004d2cc     libucrt:invalid_parameter.obj
 0004:000012d8       $pdata$_invalid_parameter_noinfo 000000018004d2d8     libucrt:invalid_parameter.obj
 0004:000012e4       $pdata$_invalid_parameter_noinfo_noreturn 000000018004d2e4     libucrt:invalid_parameter.obj
 0004:000012f0       $pdata$_invoke_watson      000000018004d2f0     libucrt:invalid_parameter.obj
 0004:000012fc       $pdata$__acrt_initialize_stdio 000000018004d2fc     libucrt:_file.obj
 0004:00001308       $pdata$__acrt_uninitialize_stdio 000000018004d308     libucrt:_file.obj
 0004:00001314       $pdata$??$?RV<lambda_7b91131dde12e1c3dfc74ff76b3f2eac>@@AEAV<lambda_dd75445284c072d0bd3768540cc698fa>@@V<lambda_16bc4ecb55b4718497c16bceaea2ceaf>@@@?$__crt_seh_guarded_call@H@@QEAAH$$QEAV<lambda_7b91131dde12e1c3dfc74ff76b3f2eac>@@AEAV<lambda_dd75445284c072d0bd3768540cc698fa>@@$$QEAV<lambda_16bc4ecb55b4718497c16bceaea2ceaf>@@@Z 000000018004d314     libucrt:output.obj
 0004:00001320       $pdata$??$ensure_buffer_is_big_enough@D@formatting_buffer@__crt_stdio_output@@QEAA_N_K@Z 000000018004d320     libucrt:output.obj
 0004:0000132c       $pdata$??$type_case_integer_parse_into_buffer@I@?$output_processor@DV?$string_output_adapter@D@__crt_stdio_output@@V?$standard_base@DV?$string_output_adapter@D@__crt_stdio_output@@@2@@__crt_stdio_output@@AEAAXII_N@Z 000000018004d32c     libucrt:output.obj
 0004:0000132c       $pdata$??$type_case_integer_parse_into_buffer@I@?$output_processor@_WV?$stream_output_adapter@_W@__crt_stdio_output@@V?$standard_base@_WV?$stream_output_adapter@_W@__crt_stdio_output@@@2@@__crt_stdio_output@@AEAAXII_N@Z 000000018004d32c     libucrt:output.obj
 0004:0000132c       $pdata$??$type_case_integer_parse_into_buffer@I@?$output_processor@_WV?$string_output_adapter@_W@__crt_stdio_output@@V?$standard_base@_WV?$string_output_adapter@_W@__crt_stdio_output@@@2@@__crt_stdio_output@@AEAAXII_N@Z 000000018004d32c     libucrt:output.obj
 0004:00001338       $pdata$??$type_case_integer_parse_into_buffer@_K@?$output_processor@_WV?$stream_output_adapter@_W@__crt_stdio_output@@V?$standard_base@_WV?$stream_output_adapter@_W@__crt_stdio_output@@@2@@__crt_stdio_output@@AEAAX_KI_N@Z 000000018004d338     libucrt:output.obj
 0004:00001338       $pdata$??$type_case_integer_parse_into_buffer@_K@?$output_processor@DV?$string_output_adapter@D@__crt_stdio_output@@V?$standard_base@DV?$string_output_adapter@D@__crt_stdio_output@@@2@@__crt_stdio_output@@AEAAX_KI_N@Z 000000018004d338     libucrt:output.obj
 0004:00001338       $pdata$??$type_case_integer_parse_into_buffer@_K@?$output_processor@_WV?$string_output_adapter@_W@__crt_stdio_output@@V?$standard_base@_WV?$string_output_adapter@_W@__crt_stdio_output@@@2@@__crt_stdio_output@@AEAAX_KI_N@Z 000000018004d338     libucrt:output.obj
 0004:00001344       $pdata$??$write_multiple_characters@V?$stream_output_adapter@_W@__crt_stdio_output@@D@__crt_stdio_output@@YAXAEBV?$stream_output_adapter@_W@0@DHQEAH@Z 000000018004d344     libucrt:output.obj
 0004:00001350       $pdata$??$write_multiple_characters@V?$string_output_adapter@D@__crt_stdio_output@@D@__crt_stdio_output@@YAXAEBV?$string_output_adapter@D@0@DHQEAH@Z 000000018004d350     libucrt:output.obj
 0004:0000135c       $pdata$??$write_multiple_characters@V?$string_output_adapter@_W@__crt_stdio_output@@D@__crt_stdio_output@@YAXAEBV?$string_output_adapter@_W@0@DHQEAH@Z 000000018004d35c     libucrt:output.obj
 0004:00001368       $pdata$??0?$output_processor@DV?$string_output_adapter@D@__crt_stdio_output@@V?$standard_base@DV?$string_output_adapter@D@__crt_stdio_output@@@2@@__crt_stdio_output@@QEAA@AEBV?$string_output_adapter@D@1@_KQEBDQEAU__crt_locale_pointers@@QEAD@Z 000000018004d368     libucrt:output.obj
 0004:00001374       $pdata$??0?$output_processor@_WV?$stream_output_adapter@_W@__crt_stdio_output@@V?$standard_base@_WV?$stream_output_adapter@_W@__crt_stdio_output@@@2@@__crt_stdio_output@@QEAA@AEBV?$stream_output_adapter@_W@1@_KQEB_WQEAU__crt_locale_pointers@@QEAD@Z 000000018004d374     libucrt:output.obj
 0004:00001374       $pdata$??0?$output_processor@_WV?$string_output_adapter@_W@__crt_stdio_output@@V?$standard_base@_WV?$string_output_adapter@_W@__crt_stdio_output@@@2@@__crt_stdio_output@@QEAA@AEBV?$string_output_adapter@_W@1@_KQEB_WQEAU__crt_locale_pointers@@QEAD@Z 000000018004d374     libucrt:output.obj
 0004:00001380       $pdata$??0_LocaleUpdate@@QEAA@QEAU__crt_locale_pointers@@@Z 000000018004d380     libucrt:output.obj
 0004:0000138c       $pdata$??R<lambda_dd75445284c072d0bd3768540cc698fa>@@QEBAHXZ 000000018004d38c     libucrt:output.obj
 0004:00001398       $pdata$?force_decimal_point@__crt_stdio_output@@YAXPEADQEAU__crt_locale_pointers@@@Z 000000018004d398     libucrt:output.obj
 0004:000013a4       $pdata$?parse_int_from_format_string@?$output_processor@DV?$string_output_adapter@D@__crt_stdio_output@@V?$standard_base@DV?$string_output_adapter@D@__crt_stdio_output@@@2@@__crt_stdio_output@@AEAA_NQEAH@Z 000000018004d3a4     libucrt:output.obj
 0004:000013b0       $pdata$?parse_int_from_format_string@?$output_processor@_WV?$stream_output_adapter@_W@__crt_stdio_output@@V?$standard_base@_WV?$stream_output_adapter@_W@__crt_stdio_output@@@2@@__crt_stdio_output@@AEAA_NQEAH@Z 000000018004d3b0     libucrt:output.obj
 0004:000013b0       $pdata$?parse_int_from_format_string@?$output_processor@_WV?$string_output_adapter@_W@__crt_stdio_output@@V?$standard_base@_WV?$string_output_adapter@_W@__crt_stdio_output@@@2@@__crt_stdio_output@@AEAA_NQEAH@Z 000000018004d3b0     libucrt:output.obj
 0004:000013bc       $pdata$?process@?$output_processor@DV?$string_output_adapter@D@__crt_stdio_output@@V?$standard_base@DV?$string_output_adapter@D@__crt_stdio_output@@@2@@__crt_stdio_output@@QEAAHXZ 000000018004d3bc     libucrt:output.obj
 0004:000013c8       $pdata$?process@?$output_processor@_WV?$stream_output_adapter@_W@__crt_stdio_output@@V?$standard_base@_WV?$stream_output_adapter@_W@__crt_stdio_output@@@2@@__crt_stdio_output@@QEAAHXZ 000000018004d3c8     libucrt:output.obj
 0004:000013d4       $pdata$?process@?$output_processor@_WV?$string_output_adapter@_W@__crt_stdio_output@@V?$standard_base@_WV?$string_output_adapter@_W@__crt_stdio_output@@@2@@__crt_stdio_output@@QEAAHXZ 000000018004d3d4     libucrt:output.obj
 0004:000013e0       $pdata$?state_case_normal@?$output_processor@DV?$string_output_adapter@D@__crt_stdio_output@@V?$standard_base@DV?$string_output_adapter@D@__crt_stdio_output@@@2@@__crt_stdio_output@@AEAA_NXZ 000000018004d3e0     libucrt:output.obj
 0004:000013ec       $pdata$?state_case_normal_tchar@?$output_processor@DV?$string_output_adapter@D@__crt_stdio_output@@V?$standard_base@DV?$string_output_adapter@D@__crt_stdio_output@@@2@@__crt_stdio_output@@AEAA_ND@Z 000000018004d3ec     libucrt:output.obj
 0004:000013f8       $pdata$?state_case_size@?$output_processor@DV?$string_output_adapter@D@__crt_stdio_output@@V?$standard_base@DV?$string_output_adapter@D@__crt_stdio_output@@@2@@__crt_stdio_output@@AEAA_NXZ 000000018004d3f8     libucrt:output.obj
 0004:00001404       $pdata$?state_case_size@?$output_processor@_WV?$stream_output_adapter@_W@__crt_stdio_output@@V?$standard_base@_WV?$stream_output_adapter@_W@__crt_stdio_output@@@2@@__crt_stdio_output@@AEAA_NXZ 000000018004d404     libucrt:output.obj
 0004:00001410       $pdata$?state_case_size@?$output_processor@_WV?$string_output_adapter@_W@__crt_stdio_output@@V?$standard_base@_WV?$string_output_adapter@_W@__crt_stdio_output@@@2@@__crt_stdio_output@@AEAA_NXZ 000000018004d410     libucrt:output.obj
 0004:0000141c       $pdata$?state_case_type@?$output_processor@DV?$string_output_adapter@D@__crt_stdio_output@@V?$standard_base@DV?$string_output_adapter@D@__crt_stdio_output@@@2@@__crt_stdio_output@@AEAA_NXZ 000000018004d41c     libucrt:output.obj
 0004:00001428       $pdata$?state_case_type@?$output_processor@_WV?$stream_output_adapter@_W@__crt_stdio_output@@V?$standard_base@_WV?$stream_output_adapter@_W@__crt_stdio_output@@@2@@__crt_stdio_output@@AEAA_NXZ 000000018004d428     libucrt:output.obj
 0004:00001434       $pdata$?state_case_type@?$output_processor@_WV?$string_output_adapter@_W@__crt_stdio_output@@V?$standard_base@_WV?$string_output_adapter@_W@__crt_stdio_output@@@2@@__crt_stdio_output@@AEAA_NXZ 000000018004d434     libucrt:output.obj
 0004:00001440       $pdata$?type_case_Z@?$output_processor@DV?$string_output_adapter@D@__crt_stdio_output@@V?$standard_base@DV?$string_output_adapter@D@__crt_stdio_output@@@2@@__crt_stdio_output@@AEAA_NXZ 000000018004d440     libucrt:output.obj
 0004:0000144c       $pdata$?type_case_Z@?$output_processor@_WV?$stream_output_adapter@_W@__crt_stdio_output@@V?$standard_base@_WV?$stream_output_adapter@_W@__crt_stdio_output@@@2@@__crt_stdio_output@@AEAA_NXZ 000000018004d44c     libucrt:output.obj
 0004:0000144c       $pdata$?type_case_Z@?$output_processor@_WV?$string_output_adapter@_W@__crt_stdio_output@@V?$standard_base@_WV?$string_output_adapter@_W@__crt_stdio_output@@@2@@__crt_stdio_output@@AEAA_NXZ 000000018004d44c     libucrt:output.obj
 0004:00001458       $pdata$?type_case_a@?$output_processor@DV?$string_output_adapter@D@__crt_stdio_output@@V?$standard_base@DV?$string_output_adapter@D@__crt_stdio_output@@@2@@__crt_stdio_output@@AEAA_NXZ 000000018004d458     libucrt:output.obj
 0004:00001464       $pdata$?type_case_a@?$output_processor@_WV?$string_output_adapter@_W@__crt_stdio_output@@V?$standard_base@_WV?$string_output_adapter@_W@__crt_stdio_output@@@2@@__crt_stdio_output@@AEAA_NXZ 000000018004d464     libucrt:output.obj
 0004:00001464       $pdata$?type_case_a@?$output_processor@_WV?$stream_output_adapter@_W@__crt_stdio_output@@V?$standard_base@_WV?$stream_output_adapter@_W@__crt_stdio_output@@@2@@__crt_stdio_output@@AEAA_NXZ 000000018004d464     libucrt:output.obj
 0004:00001470       $pdata$?type_case_c_tchar@?$output_processor@DV?$string_output_adapter@D@__crt_stdio_output@@V?$standard_base@DV?$string_output_adapter@D@__crt_stdio_output@@@2@@__crt_stdio_output@@AEAA_ND@Z 000000018004d470     libucrt:output.obj
 0004:0000147c       $pdata$?type_case_c_tchar@?$output_processor@_WV?$stream_output_adapter@_W@__crt_stdio_output@@V?$standard_base@_WV?$stream_output_adapter@_W@__crt_stdio_output@@@2@@__crt_stdio_output@@AEAA_N_W@Z 000000018004d47c     libucrt:output.obj
 0004:0000147c       $pdata$?type_case_c_tchar@?$output_processor@_WV?$string_output_adapter@_W@__crt_stdio_output@@V?$standard_base@_WV?$string_output_adapter@_W@__crt_stdio_output@@@2@@__crt_stdio_output@@AEAA_N_W@Z 000000018004d47c     libucrt:output.obj
 0004:00001488       $pdata$?type_case_integer@?$output_processor@_WV?$string_output_adapter@_W@__crt_stdio_output@@V?$standard_base@_WV?$string_output_adapter@_W@__crt_stdio_output@@@2@@__crt_stdio_output@@AEAA_NI_N@Z 000000018004d488     libucrt:output.obj
 0004:00001488       $pdata$?type_case_integer@?$output_processor@_WV?$stream_output_adapter@_W@__crt_stdio_output@@V?$standard_base@_WV?$stream_output_adapter@_W@__crt_stdio_output@@@2@@__crt_stdio_output@@AEAA_NI_N@Z 000000018004d488     libucrt:output.obj
 0004:00001488       $pdata$?type_case_integer@?$output_processor@DV?$string_output_adapter@D@__crt_stdio_output@@V?$standard_base@DV?$string_output_adapter@D@__crt_stdio_output@@@2@@__crt_stdio_output@@AEAA_NI_N@Z 000000018004d488     libucrt:output.obj
 0004:00001494       $pdata$?type_case_n@?$output_processor@DV?$string_output_adapter@D@__crt_stdio_output@@V?$standard_base@DV?$string_output_adapter@D@__crt_stdio_output@@@2@@__crt_stdio_output@@AEAA_NXZ 000000018004d494     libucrt:output.obj
 0004:00001494       $pdata$?type_case_n@?$output_processor@_WV?$string_output_adapter@_W@__crt_stdio_output@@V?$standard_base@_WV?$string_output_adapter@_W@__crt_stdio_output@@@2@@__crt_stdio_output@@AEAA_NXZ 000000018004d494     libucrt:output.obj
 0004:00001494       $pdata$?type_case_n@?$output_processor@_WV?$stream_output_adapter@_W@__crt_stdio_output@@V?$standard_base@_WV?$stream_output_adapter@_W@__crt_stdio_output@@@2@@__crt_stdio_output@@AEAA_NXZ 000000018004d494     libucrt:output.obj
 0004:000014a0       $pdata$?type_case_s@?$output_processor@DV?$string_output_adapter@D@__crt_stdio_output@@V?$standard_base@DV?$string_output_adapter@D@__crt_stdio_output@@@2@@__crt_stdio_output@@AEAA_NXZ 000000018004d4a0     libucrt:output.obj
 0004:000014ac       $pdata$?type_case_s@?$output_processor@_WV?$stream_output_adapter@_W@__crt_stdio_output@@V?$standard_base@_WV?$stream_output_adapter@_W@__crt_stdio_output@@@2@@__crt_stdio_output@@AEAA_NXZ 000000018004d4ac     libucrt:output.obj
 0004:000014ac       $pdata$?type_case_s@?$output_processor@_WV?$string_output_adapter@_W@__crt_stdio_output@@V?$standard_base@_WV?$string_output_adapter@_W@__crt_stdio_output@@@2@@__crt_stdio_output@@AEAA_NXZ 000000018004d4ac     libucrt:output.obj
 0004:000014b8       $pdata$?write_stored_string_tchar@?$output_processor@DV?$string_output_adapter@D@__crt_stdio_output@@V?$standard_base@DV?$string_output_adapter@D@__crt_stdio_output@@@2@@__crt_stdio_output@@AEAA_ND@Z 000000018004d4b8     libucrt:output.obj
 0004:000014c4       $pdata$?write_stored_string_tchar@?$output_processor@_WV?$stream_output_adapter@_W@__crt_stdio_output@@V?$standard_base@_WV?$stream_output_adapter@_W@__crt_stdio_output@@@2@@__crt_stdio_output@@AEAA_N_W@Z 000000018004d4c4     libucrt:output.obj
 0004:000014d0       $pdata$?write_stored_string_tchar@?$output_processor@_WV?$string_output_adapter@_W@__crt_stdio_output@@V?$standard_base@_WV?$string_output_adapter@_W@__crt_stdio_output@@@2@@__crt_stdio_output@@AEAA_N_W@Z 000000018004d4d0     libucrt:output.obj
 0004:000014dc       $pdata$?write_string@?$stream_output_adapter@_W@__crt_stdio_output@@QEBAXQEB_WHQEAH1@Z 000000018004d4dc     libucrt:output.obj
 0004:000014e8       $pdata$?write_string@?$string_output_adapter@D@__crt_stdio_output@@QEBAXQEBDHQEAH1@Z 000000018004d4e8     libucrt:output.obj
 0004:000014f4       $pdata$?write_string@?$string_output_adapter@_W@__crt_stdio_output@@QEBAXQEB_WHQEAH1@Z 000000018004d4f4     libucrt:output.obj
 0004:00001500       $pdata$__stdio_common_vfwprintf 000000018004d500     libucrt:output.obj
 0004:0000150c       $pdata$__stdio_common_vsprintf 000000018004d50c     libucrt:output.obj
 0004:00001518       $pdata$__stdio_common_vswprintf 000000018004d518     libucrt:output.obj
 0004:00001524       $pdata$??$common_fsopen@D@@YAPEAU_iobuf@@QEBD0H@Z 000000018004d524     libucrt:fopen.obj
 0004:00001530       $pdata$_fclose_nolock      000000018004d530     libucrt:fclose.obj
 0004:0000153c       $pdata$fclose              000000018004d53c     libucrt:fclose.obj
 0004:00001548       $pdata$?common_fseek@@YAHV__crt_stdio_stream@@_JH@Z 000000018004d548     libucrt:fseek.obj
 0004:00001554       $pdata$?common_fseek_binary_mode_read_only_fast_track_nolock@@YA_NV__crt_stdio_stream@@_JH@Z 000000018004d554     libucrt:fseek.obj
 0004:00001560       $pdata$?common_fseek_nolock@@YAHV__crt_stdio_stream@@_JH@Z 000000018004d560     libucrt:fseek.obj
 0004:0000156c       $pdata$_fread_nolock_s     000000018004d56c     libucrt:fread.obj
 0004:00001578       $pdata$fread               000000018004d578     libucrt:fread.obj
 0004:00001584       $pdata$fread_s             000000018004d584     libucrt:fread.obj
 0004:00001590       $pdata$_stricmp            000000018004d590     libucrt:stricmp.obj
 0004:0000159c       $pdata$_stricmp_l          000000018004d59c     libucrt:stricmp.obj
 0004:000015a8       $pdata$_callnewh           000000018004d5a8     libucrt:new_handler.obj
 0004:000015b4       $pdata$_query_new_handler  000000018004d5b4     libucrt:new_handler.obj
 0004:000015c0       $pdata$terminate           000000018004d5c0     libucrt:terminate.obj
 0004:000015cc       $pdata$_seh_filter_exe     000000018004d5cc     libucrt:exception_filter.obj
 0004:000015d8       $pdata$?common_exit@@YAXHW4_crt_exit_cleanup_mode@@W4_crt_exit_return_mode@@@Z 000000018004d5d8     libucrt:exit.obj
 0004:000015e4       $pdata$?exit_or_terminate_process@@YAXI@Z 000000018004d5e4     libucrt:exit.obj
 0004:000015f0       $pdata$?try_cor_exit_process@@YAXI@Z 000000018004d5f0     libucrt:exit.obj
 0004:000015fc       $pdata$??$common_initialize_environment_nolock@D@@YAHXZ 000000018004d5fc     libucrt:environment_initialization.obj
 0004:00001608       $pdata$??$create_environment@D@@YAQEAPEADQEAD@Z 000000018004d608     libucrt:environment_initialization.obj
 0004:00001614       $pdata$??$free_environment@_W@@YAXQEAPEA_W@Z 000000018004d614     libucrt:environment_initialization.obj
 0004:00001614       $pdata$??$free_environment@D@@YAXQEAPEAD@Z 000000018004d614     libucrt:environment_initialization.obj
 0004:00001620       $pdata$??$uninitialize_environment_internal@D@@YAXAEAPEAPEAD@Z 000000018004d620     libucrt:environment_initialization.obj
 0004:0000162c       $pdata$??$uninitialize_environment_internal@_W@@YAXAEAPEAPEA_W@Z 000000018004d62c     libucrt:environment_initialization.obj
 0004:00001638       $pdata$__dcrt_uninitialize_environments_nolock 000000018004d638     libucrt:environment_initialization.obj
 0004:00001644       $pdata$??$?RV<lambda_b8c45f8f788dd370798f47cfe8ac3a86>@@AEAV<lambda_4e60a939b0d047cfe11ddc22648dfba9>@@V<lambda_332c3edc96d0294ec56c57d38c1cdfd5>@@@?$__crt_seh_guarded_call@H@@QEAAH$$QEAV<lambda_b8c45f8f788dd370798f47cfe8ac3a86>@@AEAV<lambda_4e60a939b0d047cfe11ddc22648dfba9>@@$$QEAV<lambda_332c3edc96d0294ec56c57d38c1cdfd5>@@@Z 000000018004d644     libucrt:onexit.obj
 0004:00001650       $pdata$??$?RV<lambda_e24bbb7b643b32fcea6fa61b31d4c984>@@AEAV<lambda_275893d493268fdec8709772e3fcec0e>@@V<lambda_9d71df4d7cf3f480f8d633942495c3b0>@@@?$__crt_seh_guarded_call@H@@QEAAH$$QEAV<lambda_e24bbb7b643b32fcea6fa61b31d4c984>@@AEAV<lambda_275893d493268fdec8709772e3fcec0e>@@$$QEAV<lambda_9d71df4d7cf3f480f8d633942495c3b0>@@@Z 000000018004d650     libucrt:onexit.obj
 0004:0000165c       $pdata$??R<lambda_4e60a939b0d047cfe11ddc22648dfba9>@@QEBAHXZ 000000018004d65c     libucrt:onexit.obj
 0004:00001668       $pdata$_execute_onexit_table 000000018004d668     libucrt:onexit.obj
 0004:00001674       $pdata$_register_onexit_function 000000018004d674     libucrt:onexit.obj
 0004:00001680       $pdata$initialize_c        000000018004d680     libucrt:initialization.obj
 0004:0000168c       $pdata$uninitialize_environment 000000018004d68c     libucrt:initialization.obj
 0004:00001698       $pdata$initialize_pointers 000000018004d698     libucrt:initialization.obj
 0004:000016a4       $pdata$uninitialize_allocated_memory 000000018004d6a4     libucrt:initialization.obj
 0004:000016b0       $pdata$__acrt_thread_attach 000000018004d6b0     libucrt:initialization.obj
 0004:000016bc       $pdata$__acrt_thread_detach 000000018004d6bc     libucrt:initialization.obj
 0004:000016c8       $pdata$__acrt_uninitialize_critical 000000018004d6c8     libucrt:initialization.obj
 0004:000016d4       $pdata$_initterm           000000018004d6d4     libucrt:initterm.obj
 0004:000016e0       $pdata$_initterm_e         000000018004d6e0     libucrt:initterm.obj
 0004:000016ec       $pdata$_strdup             000000018004d6ec     libucrt:strdup.obj
 0004:000016f8       $pdata$abort               000000018004d6f8     libucrt:abort.obj
 0004:00001704       $pdata$strcpy_s            000000018004d704     libucrt:strcpy_s.obj
 0004:00001710       $pdata$_free_base          000000018004d710     libucrt:free_base.obj
 0004:0000171c       $pdata$_malloc_base        000000018004d71c     libucrt:malloc_base.obj
 0004:00001728       $pdata$_calloc_base        000000018004d728     libucrt:calloc_base.obj
 0004:00001734       $pdata$??$parse_integer@KV?$c_string_character_source@D@__crt_strtox@@@__crt_strtox@@YAKQEAU__crt_locale_pointers@@V?$c_string_character_source@D@0@H_N@Z 000000018004d734     libucrt:atox.obj
 0004:00001740       $pdata$??$parse_integer@KV?$c_string_character_source@_W@__crt_strtox@@@__crt_strtox@@YAKQEAU__crt_locale_pointers@@V?$c_string_character_source@_W@0@H_N@Z 000000018004d740     libucrt:atox.obj
 0004:0000174c       $pdata$_realloc_base       000000018004d74c     libucrt:realloc_base.obj
 0004:00001758       $pdata$__acrt_errno_map_os_error 000000018004d758     libucrt:errno.obj
 0004:00001764       $pdata$__doserrno          000000018004d764     libucrt:errno.obj
 0004:00001770       $pdata$_errno              000000018004d770     libucrt:errno.obj
 0004:0000177c       $pdata$??$common_xtox@K_W@@YAHKQEA_W_KI_N@Z 000000018004d77c     libucrt:xtoa.obj
 0004:00001788       $pdata$??$common_xtox_s@K_W@@YAHKQEA_W_KI_N@Z 000000018004d788     libucrt:xtoa.obj
 0004:00001794       $pdata$_itow_s             000000018004d794     libucrt:xtoa.obj
 0004:000017a0       $pdata$_set_error_mode     000000018004d7a0     libucrt:set_error_mode.obj
 0004:000017ac       $pdata$wcscat_s            000000018004d7ac     libucrt:wcscat_s.obj
 0004:000017b8       $pdata$wcscpy_s            000000018004d7b8     libucrt:wcscpy_s.obj
 0004:000017c4       $pdata$wcsncat_s           000000018004d7c4     libucrt:wcsncat_s.obj
 0004:000017d0       $pdata$??$message_box_wait_thread@_W@@YAKQEAX@Z 000000018004d7d0     libucrt:crtmbox.obj
 0004:000017dc       $pdata$__acrt_show_wide_message_box 000000018004d7dc     libucrt:crtmbox.obj
 0004:000017e8       $pdata$__acrt_stdio_flush_nolock 000000018004d7e8     libucrt:fflush.obj
 0004:000017f4       $pdata$_fflush_nolock      000000018004d7f4     libucrt:fflush.obj
 0004:00001800       $pdata$common_flush_all    000000018004d800     libucrt:fflush.obj
 0004:0000180c       $pdata$fflush              000000018004d80c     libucrt:fflush.obj
 0004:00001818       $pdata$??$?RV<lambda_7a5ef57ff966f610505f1d28a3d40618>@@AEAV<lambda_b721fa326cdb32351d23dfa67958c160>@@V<lambda_5e0fb27672408a07956fe59e48ccb2aa>@@@?$__crt_seh_guarded_call@H@@QEAAH$$QEAV<lambda_7a5ef57ff966f610505f1d28a3d40618>@@AEAV<lambda_b721fa326cdb32351d23dfa67958c160>@@$$QEAV<lambda_5e0fb27672408a07956fe59e48ccb2aa>@@@Z 000000018004d818     libucrt:setvbuf.obj
 0004:00001824       $pdata$??R<lambda_b721fa326cdb32351d23dfa67958c160>@@QEBAHXZ 000000018004d824     libucrt:setvbuf.obj
 0004:00001830       $pdata$setvbuf             000000018004d830     libucrt:setvbuf.obj
 0004:0000183c       $pdata$??$?RV<lambda_c36588078e9f5dfd39652860aa6b3aaf>@@AEAV<lambda_ec61778202f4f5fc7e7711acc23c3bca>@@V<lambda_dc9d2797ccde5d239b4a0efae8ebd7db>@@@?$__crt_seh_guarded_call@P6AXH@Z@@QEAAP6AXH@Z$$QEAV<lambda_c36588078e9f5dfd39652860aa6b3aaf>@@AEAV<lambda_ec61778202f4f5fc7e7711acc23c3bca>@@$$QEAV<lambda_dc9d2797ccde5d239b4a0efae8ebd7db>@@@Z 000000018004d83c     libucrt:signal.obj
 0004:00001848       $pdata$__acrt_get_sigabrt_handler 000000018004d848     libucrt:signal.obj
 0004:00001854       $pdata$raise               000000018004d854     libucrt:signal.obj
 0004:00001860       $pdata$_call_matherr       000000018004d860     libucrt:libm_error.obj
 0004:0000186c       $pdata$_exception_enabled  000000018004d86c     libucrt:libm_error.obj
 0004:00001878       $pdata$_handle_error       000000018004d878     libucrt:libm_error.obj
 0004:00001884       $pdata$_handle_errorf      000000018004d884     libucrt:libm_error.obj
 0004:00001890       $pdata$??$?RV<lambda_46352004c1216016012b18bd6f87e700>@@AEAV<lambda_3bd07e1a1191394380780325891bf33f>@@V<lambda_334532d3f185bcaa59b5be82d7d22bff>@@@?$__crt_seh_guarded_call@X@@QEAAX$$QEAV<lambda_46352004c1216016012b18bd6f87e700>@@AEAV<lambda_3bd07e1a1191394380780325891bf33f>@@$$QEAV<lambda_334532d3f185bcaa59b5be82d7d22bff>@@@Z 000000018004d890     libucrt:per_thread_data.obj
 0004:0000189c       $pdata$??$?RV<lambda_5e887d1dcbef67a5eb4283622ba103bf>@@AEAV<lambda_4466841279450cc726390878d4a41900>@@V<lambda_341c25c0346d94847f1f3c463c57e077>@@@?$__crt_seh_guarded_call@X@@QEAAX$$QEAV<lambda_5e887d1dcbef67a5eb4283622ba103bf>@@AEAV<lambda_4466841279450cc726390878d4a41900>@@$$QEAV<lambda_341c25c0346d94847f1f3c463c57e077>@@@Z 000000018004d89c     libucrt:per_thread_data.obj
 0004:000018a8       $pdata$??$?RV<lambda_72d1df2b273a38828b1ce30cbf4cdab5>@@AEAV<lambda_876a65b173b8412d3a47c70a915b0cf4>@@V<lambda_41932305e351933ebe8f8be3ed8bb5dc>@@@?$__crt_seh_guarded_call@X@@QEAAX$$QEAV<lambda_72d1df2b273a38828b1ce30cbf4cdab5>@@AEAV<lambda_876a65b173b8412d3a47c70a915b0cf4>@@$$QEAV<lambda_41932305e351933ebe8f8be3ed8bb5dc>@@@Z 000000018004d8a8     libucrt:per_thread_data.obj
 0004:000018b4       $pdata$??$?RV<lambda_fb3a7dec4e47f37f22dae91bb15c9095>@@AEAV<lambda_698284760c8add0bfb0756c19673e34b>@@V<lambda_dfb8eca1e75fef3034a8fb18dd509707>@@@?$__crt_seh_guarded_call@X@@QEAAX$$QEAV<lambda_fb3a7dec4e47f37f22dae91bb15c9095>@@AEAV<lambda_698284760c8add0bfb0756c19673e34b>@@$$QEAV<lambda_dfb8eca1e75fef3034a8fb18dd509707>@@@Z 000000018004d8b4     libucrt:per_thread_data.obj
 0004:000018c0       $pdata$?construct_ptd_array@@YAXQEAU__acrt_ptd@@@Z 000000018004d8c0     libucrt:per_thread_data.obj
 0004:000018cc       $pdata$?destroy_fls@@YAXPEAX@Z 000000018004d8cc     libucrt:per_thread_data.obj
 0004:000018d8       $pdata$?destroy_ptd_array@@YAXQEAU__acrt_ptd@@@Z 000000018004d8d8     libucrt:per_thread_data.obj
 0004:000018e4       $pdata$?replace_current_thread_locale_nolock@@YAXQEAU__acrt_ptd@@QEAU__crt_locale_data@@@Z 000000018004d8e4     libucrt:per_thread_data.obj
 0004:000018f0       $pdata$__acrt_freeptd      000000018004d8f0     libucrt:per_thread_data.obj
 0004:000018fc       $pdata$__acrt_getptd       000000018004d8fc     libucrt:per_thread_data.obj
 0004:00001908       $pdata$__acrt_getptd_noexit 000000018004d908     libucrt:per_thread_data.obj
 0004:00001914       $pdata$__acrt_initialize_ptd 000000018004d914     libucrt:per_thread_data.obj
 0004:00001920       $pdata$__acrt_uninitialize_ptd 000000018004d920     libucrt:per_thread_data.obj
 0004:0000192c       $pdata$?try_get_function@@YAPEAXW4function_id@?A0x1dd686d3@@QEBDQEBW4module_id@2@2@Z 000000018004d92c     libucrt:winapi_thunks.obj
 0004:00001938       $pdata$__acrt_AreFileApisANSI 000000018004d938     libucrt:winapi_thunks.obj
 0004:00001944       $pdata$__acrt_FlsAlloc     000000018004d944     libucrt:winapi_thunks.obj
 0004:00001950       $pdata$__acrt_FlsFree      000000018004d950     libucrt:winapi_thunks.obj
 0004:0000195c       $pdata$__acrt_FlsGetValue  000000018004d95c     libucrt:winapi_thunks.obj
 0004:00001968       $pdata$__acrt_FlsSetValue  000000018004d968     libucrt:winapi_thunks.obj
 0004:00001974       $pdata$__acrt_InitializeCriticalSectionEx 000000018004d974     libucrt:winapi_thunks.obj
 0004:00001980       $pdata$__acrt_LCMapStringEx 000000018004d980     libucrt:winapi_thunks.obj
 0004:0000198c       $pdata$__acrt_LocaleNameToLCID 000000018004d98c     libucrt:winapi_thunks.obj
 0004:00001998       $pdata$__acrt_MessageBoxW  000000018004d998     libucrt:winapi_thunks.obj
 0004:000019a4       $pdata$__acrt_can_show_message_box 000000018004d9a4     libucrt:winapi_thunks.obj
 0004:000019b0       $pdata$__acrt_get_parent_window 000000018004d9b0     libucrt:winapi_thunks.obj
 0004:000019bc       $pdata$__acrt_initialize_winapi_thunks 000000018004d9bc     libucrt:winapi_thunks.obj
 0004:000019c8       $pdata$__acrt_is_interactive 000000018004d9c8     libucrt:winapi_thunks.obj
 0004:000019d4       $pdata$__acrt_is_packaged_app 000000018004d9d4     libucrt:winapi_thunks.obj
 0004:000019e0       $pdata$__acrt_uninitialize_winapi_thunks 000000018004d9e0     libucrt:winapi_thunks.obj
 0004:000019ec       $pdata$_fcloseall          000000018004d9ec     libucrt:closeall.obj
 0004:000019f8       $pdata$__acrt_stdio_free_buffer_nolock 000000018004d9f8     libucrt:_freebuf.obj
 0004:00001a04       $pdata$?initialize_inherited_file_handles_nolock@@YAXXZ 000000018004da04     libucrt:ioinit.obj
 0004:00001a10       $pdata$?initialize_stdio_handles_nolock@@YAXXZ 000000018004da10     libucrt:ioinit.obj
 0004:00001a1c       $pdata$__acrt_initialize_lowio 000000018004da1c     libucrt:ioinit.obj
 0004:00001a28       $pdata$__acrt_uninitialize_lowio 000000018004da28     libucrt:ioinit.obj
 0004:00001a34       $pdata$isdigit             000000018004da34     libucrt:_ctype.obj
 0004:00001a40       $pdata$?internal_isupper_l@@YA_NHQEAU__crt_locale_pointers@@@Z 000000018004da40     libucrt:tolower_toupper.obj
 0004:00001a4c       $pdata$_tolower_l          000000018004da4c     libucrt:tolower_toupper.obj
 0004:00001a58       $pdata$tolower             000000018004da58     libucrt:tolower_toupper.obj
 0004:00001a64       $pdata$strtol              000000018004da64     libucrt:strtox.obj
 0004:00001a70       $pdata$wcstol              000000018004da70     libucrt:strtox.obj
 0004:00001a7c       $pdata$_mbtowc_l           000000018004da7c     libucrt:mbtowc.obj
 0004:00001a88       $pdata$_wctomb_s_l         000000018004da88     libucrt:wctomb.obj
 0004:00001a94       $pdata$wctomb_s            000000018004da94     libucrt:wctomb.obj
 0004:00001aa0       $pdata$strnlen             000000018004daa0     libucrt:strnlen.obj
 0004:00001aac       $pdata$wcsnlen             000000018004daac     libucrt:strnlen.obj
 0004:00001ab8       $pdata$__acrt_update_locale_info 000000018004dab8     libucrt:locale_update.obj
 0004:00001ac4       $pdata$__acrt_update_multibyte_info 000000018004dac4     libucrt:locale_update.obj
 0004:00001ad0       $pdata$?fp_format_a@@YAHQEBNPEAD_KQEAD2H_NIQEAU__crt_locale_pointers@@@Z 000000018004dad0     libucrt:cvt.obj
 0004:00001adc       $pdata$?fp_format_e@@YAHQEBNQEAD_K12H_NIQEAU__crt_locale_pointers@@@Z 000000018004dadc     libucrt:cvt.obj
 0004:00001ae8       $pdata$?fp_format_e_internal@@YAHQEAD_KH_NIQEAU_strflt@@2QEAU__crt_locale_pointers@@@Z 000000018004dae8     libucrt:cvt.obj
 0004:00001af4       $pdata$?fp_format_f_internal@@YAHQEAD_KHQEAU_strflt@@_NQEAU__crt_locale_pointers@@@Z 000000018004daf4     libucrt:cvt.obj
 0004:00001b00       $pdata$?fp_format_g@@YAHQEBNQEAD_K12H_NIQEAU__crt_locale_pointers@@@Z 000000018004db00     libucrt:cvt.obj
 0004:00001b0c       $pdata$?fp_format_nan_or_infinity@@YAHW4__acrt_fp_class@@_NPEAD_K1@Z 000000018004db0c     libucrt:cvt.obj
 0004:00001b18       $pdata$__acrt_fp_format    000000018004db18     libucrt:cvt.obj
 0004:00001b24       $pdata$_fputwc_nolock      000000018004db24     libucrt:fputwc.obj
 0004:00001b30       $pdata$_fileno             000000018004db30     libucrt:fileno.obj
 0004:00001b3c       $pdata$__acrt_stdio_begin_temporary_buffering_nolock 000000018004db3c     libucrt:_sftbuf.obj
 0004:00001b48       $pdata$__acrt_stdio_end_temporary_buffering_nolock 000000018004db48     libucrt:_sftbuf.obj
 0004:00001b54       $pdata$__acrt_uninitialize_locale 000000018004db54     libucrt:wsetlocale.obj
 0004:00001b60       $pdata$?__acrt_stdio_allocate_stream@@YA?AV__crt_stdio_stream@@XZ 000000018004db60     libucrt:stream.obj
 0004:00001b6c       $pdata$?find_or_allocate_unused_stream_nolock@@YA?AV__crt_stdio_stream@@XZ 000000018004db6c     libucrt:stream.obj
 0004:00001b78       $pdata$??$__acrt_stdio_parse_mode@D@@YA?AU__acrt_stdio_stream_mode@@QEBD@Z 000000018004db78     libucrt:openfile.obj
 0004:00001b84       $pdata$_openfile           000000018004db84     libucrt:openfile.obj
 0004:00001b90       $pdata$??$?RV<lambda_bfedae4ebbf01fab1bb6dcc6a9e276e0>@@AEAV<lambda_2fe9b910cf3cbf4a0ab98a02ba45b3ec>@@V<lambda_237c231691f317818eb88cc1d5d642d6>@@@?$__crt_seh_guarded_call@H@@QEAAH$$QEAV<lambda_bfedae4ebbf01fab1bb6dcc6a9e276e0>@@AEAV<lambda_2fe9b910cf3cbf4a0ab98a02ba45b3ec>@@$$QEAV<lambda_237c231691f317818eb88cc1d5d642d6>@@@Z 000000018004db90     libucrt:close.obj
 0004:00001b9c       $pdata$_close              000000018004db9c     libucrt:close.obj
 0004:00001ba8       $pdata$_close_nolock       000000018004dba8     libucrt:close.obj
 0004:00001bb4       $pdata$??$common_ftell_nolock@_J@@YA_JV__crt_stdio_stream@@@Z 000000018004dbb4     libucrt:ftell.obj
 0004:00001bc0       $pdata$?common_ftell_read_mode_nolock@@YA_JV__crt_stdio_stream@@_J1@Z 000000018004dbc0     libucrt:ftell.obj
 0004:00001bcc       $pdata$?common_ftell_translated_utf8_nolock@@YA_JV__crt_stdio_stream@@_J@Z 000000018004dbcc     libucrt:ftell.obj
 0004:00001bd8       $pdata$??$common_lseek@_J@@YA_JH_JH@Z 000000018004dbd8     libucrt:lseek.obj
 0004:00001be4       $pdata$??$common_lseek_nolock@_J@@YA_JH_JH@Z 000000018004dbe4     libucrt:lseek.obj
 0004:00001bf0       $pdata$??$translate_text_mode_nolock@_W@@YAHHQEA_W_K@Z 000000018004dbf0     libucrt:read.obj
 0004:00001bfc       $pdata$?translate_ansi_or_utf8_nolock@@YAHHQEAD_KQEA_W1@Z 000000018004dbfc     libucrt:read.obj
 0004:00001c08       $pdata$_read               000000018004dc08     libucrt:read.obj
 0004:00001c14       $pdata$_read_nolock        000000018004dc14     libucrt:read.obj
 0004:00001c20       $pdata$??$common_refill_and_read_nolock@D@@YAHV__crt_stdio_stream@@@Z 000000018004dc20     libucrt:_filbuf.obj
 0004:00001c2c       $pdata$__acrt_initialize_locks 000000018004dc2c     libucrt:locks.obj
 0004:00001c38       $pdata$__acrt_uninitialize_locks 000000018004dc38     libucrt:locks.obj
 0004:00001c44       $pdata$??$?RV<lambda_99476a1ad63dd22509b5d3e65b0ffc95>@@AEAV<lambda_ad1ced32f4ac17aa236e5ef05d6b3b7c>@@V<lambda_f7424dd8d45958661754dc4f2697e9c3>@@@?$__crt_seh_guarded_call@X@@QEAAX$$QEAV<lambda_99476a1ad63dd22509b5d3e65b0ffc95>@@AEAV<lambda_ad1ced32f4ac17aa236e5ef05d6b3b7c>@@$$QEAV<lambda_f7424dd8d45958661754dc4f2697e9c3>@@@Z 000000018004dc44     libucrt:mbctype.obj
 0004:00001c50       $pdata$??R<lambda_ad1ced32f4ac17aa236e5ef05d6b3b7c>@@QEBAXXZ 000000018004dc50     libucrt:mbctype.obj
 0004:00001c5c       $pdata$?getSystemCP@@YAHH@Z 000000018004dc5c     libucrt:mbctype.obj
 0004:00001c68       $pdata$?setSBCS@@YAXPEAU__crt_multibyte_data@@@Z 000000018004dc68     libucrt:mbctype.obj
 0004:00001c74       $pdata$?setSBUpLow@@YAXPEAU__crt_multibyte_data@@@Z 000000018004dc74     libucrt:mbctype.obj
 0004:00001c80       $pdata$?setmbcp_internal@@YAHH_N@Z 000000018004dc80     libucrt:mbctype.obj
 0004:00001c8c       $pdata$__acrt_initialize_multibyte 000000018004dc8c     libucrt:mbctype.obj
 0004:00001c98       $pdata$__acrt_update_thread_multibyte_data 000000018004dc98     libucrt:mbctype.obj
 0004:00001ca4       $pdata$_setmbcp_nolock     000000018004dca4     libucrt:mbctype.obj
 0004:00001cb0       $pdata$__dcrt_get_narrow_environment_from_os 000000018004dcb0     libucrt:get_environment_from_os.obj
 0004:00001cbc       $pdata$_recalloc_base      000000018004dcbc     libucrt:recalloc.obj
 0004:00001cc8       $pdata$__acrt_initialize_heap 000000018004dcc8     libucrt:heap_handle.obj
 0004:00001cd4       $pdata$__acrt_initialize_command_line 000000018004dcd4     libucrt:argv_data.obj
 0004:00001ce0       $pdata$__acrt_execute_initializers 000000018004dce0     libucrt:shared_initialization.obj
 0004:00001cec       $pdata$__acrt_execute_uninitializers 000000018004dcec     libucrt:shared_initialization.obj
 0004:00001cf8       $pdata$__acrt_invoke_user_matherr 000000018004dcf8     libucrt:matherr.obj
 0004:00001d04       $pdata$__pctype_func       000000018004dd04     libucrt:ctype.obj
 0004:00001d10       $pdata$iswctype            000000018004dd10     libucrt:iswctype.obj
 0004:00001d1c       $pdata$_isctype_l          000000018004dd1c     libucrt:isctype.obj
 0004:00001d28       $pdata$??$?RV<lambda_b521505b218e5242e90febf6bfebc422>@@AEAV<lambda_6978c1fb23f02e42e1d9e99668cc68aa>@@V<lambda_314360699dd331753a4119843814e9a7>@@@?$__crt_seh_guarded_call@H@@QEAAH$$QEAV<lambda_b521505b218e5242e90febf6bfebc422>@@AEAV<lambda_6978c1fb23f02e42e1d9e99668cc68aa>@@$$QEAV<lambda_314360699dd331753a4119843814e9a7>@@@Z 000000018004dd28     libucrt:commit.obj
 0004:00001d34       $pdata$_commit             000000018004dd34     libucrt:commit.obj
 0004:00001d40       $pdata$?write_double_translated_ansi_nolock@@YA?AUwrite_result@?A0x4392dfaa@@HQEBDI@Z 000000018004dd40     libucrt:write.obj
 0004:00001d4c       $pdata$?write_text_ansi_nolock@@YA?AUwrite_result@?A0x4392dfaa@@HQEBDI@Z 000000018004dd4c     libucrt:write.obj
 0004:00001d58       $pdata$?write_text_utf16le_nolock@@YA?AUwrite_result@?A0x4392dfaa@@HQEBDI@Z 000000018004dd58     libucrt:write.obj
 0004:00001d64       $pdata$?write_text_utf8_nolock@@YA?AUwrite_result@?A0x4392dfaa@@HQEBDI@Z 000000018004dd64     libucrt:write.obj
 0004:00001d70       $pdata$_write              000000018004dd70     libucrt:write.obj
 0004:00001d7c       $pdata$_write_nolock       000000018004dd7c     libucrt:write.obj
 0004:00001d88       $pdata$_raise_exc          000000018004dd88     libucrt:fpexcept.obj
 0004:00001d94       $pdata$_raise_exc_ex       000000018004dd94     libucrt:fpexcept.obj
 0004:00001da0       $pdata$_raise_excf         000000018004dda0     libucrt:fpexcept.obj
 0004:00001dac       $pdata$_set_errno_from_matherr 000000018004ddac     libucrt:fpexcept.obj
 0004:00001db8       $pdata$_clrfp              000000018004ddb8     libucrt:fpctrl.obj
 0004:00001dc4       $pdata$_ctrlfp             000000018004ddc4     libucrt:fpctrl.obj
 0004:00001dd0       $pdata$_set_statfp         000000018004ddd0     libucrt:fpctrl.obj
 0004:00001ddc       $pdata$_statfp             000000018004dddc     libucrt:fpctrl.obj
 0004:00001de8       $pdata$__acrt_free_locale  000000018004dde8     libucrt:locale_refcounting.obj
 0004:00001df4       $pdata$__acrt_locale_free_lc_time_if_unreferenced 000000018004ddf4     libucrt:locale_refcounting.obj
 0004:00001e00       $pdata$__acrt_release_locale_ref 000000018004de00     libucrt:locale_refcounting.obj
 0004:00001e0c       $pdata$__acrt_update_thread_locale_data 000000018004de0c     libucrt:locale_refcounting.obj
 0004:00001e18       $pdata$_updatetlocinfoEx_nolock 000000018004de18     libucrt:locale_refcounting.obj
 0004:00001e24       $pdata$?GetTableIndexFromLocaleName@@YAHPEB_W@Z 000000018004de24     libucrt:lcidtoname_downlevel.obj
 0004:00001e30       $pdata$__acrt_DownlevelLocaleNameToLCID 000000018004de30     libucrt:lcidtoname_downlevel.obj
 0004:00001e3c       $pdata$__acrt_lowio_create_handle_array 000000018004de3c     libucrt:osfinfo.obj
 0004:00001e48       $pdata$__acrt_lowio_destroy_handle_array 000000018004de48     libucrt:osfinfo.obj
 0004:00001e54       $pdata$__acrt_lowio_ensure_fh_exists 000000018004de54     libucrt:osfinfo.obj
 0004:00001e60       $pdata$__acrt_lowio_set_os_handle 000000018004de60     libucrt:osfinfo.obj
 0004:00001e6c       $pdata$_alloc_osfhnd       000000018004de6c     libucrt:osfinfo.obj
 0004:00001e78       $pdata$_free_osfhnd        000000018004de78     libucrt:osfinfo.obj
 0004:00001e84       $pdata$_get_osfhandle      000000018004de84     libucrt:osfinfo.obj
 0004:00001e90       $pdata$_isleadbyte_l       000000018004de90     libucrt:_wctype.obj
 0004:00001e9c       $pdata$?__acrt_LCMapStringA_stat@@YAHPEAU__crt_locale_pointers@@PEB_WKPEBDHPEADHHH@Z 000000018004de9c     libucrt:lcmapstringa.obj
 0004:00001ea8       $pdata$__acrt_LCMapStringA 000000018004dea8     libucrt:lcmapstringa.obj
 0004:00001eb4       $pdata$__acrt_fp_strflt_to_string 000000018004deb4     libucrt:_fptostr.obj
 0004:00001ec0       $pdata$?divide@__crt_strtox@@YA_KAEAUbig_integer@1@AEBU21@@Z 000000018004dec0     libucrt:cfout.obj
 0004:00001ecc       $pdata$5$?divide@__crt_strtox@@YA_KAEAUbig_integer@1@AEBU21@@Z 000000018004decc     libucrt:cfout.obj
 0004:00001ed8       $pdata$6$?divide@__crt_strtox@@YA_KAEAUbig_integer@1@AEBU21@@Z 000000018004ded8     libucrt:cfout.obj
 0004:00001ee4       $pdata$__acrt_fltout       000000018004dee4     libucrt:cfout.obj
 0004:00001ef0       $pdata$memcpy_s            000000018004def0     libucrt:cfout.obj
 0004:00001efc       $pdata$??$write_buffer_nolock@D@@YA_NDV__crt_stdio_stream@@@Z 000000018004defc     libucrt:_flsbuf.obj
 0004:00001f08       $pdata$??$write_buffer_nolock@_W@@YA_N_WV__crt_stdio_stream@@@Z 000000018004df08     libucrt:_flsbuf.obj
 0004:00001f14       $pdata$__acrt_stdio_flush_and_write_narrow_nolock 000000018004df14     libucrt:_flsbuf.obj
 0004:00001f20       $pdata$__acrt_stdio_flush_and_write_wide_nolock 000000018004df20     libucrt:_flsbuf.obj
 0004:00001f2c       $pdata$_isatty             000000018004df2c     libucrt:isatty.obj
 0004:00001f38       $pdata$__acrt_locale_free_monetary 000000018004df38     libucrt:initmon.obj
 0004:00001f44       $pdata$__acrt_locale_free_numeric 000000018004df44     libucrt:initnum.obj
 0004:00001f50       $pdata$?free_crt_array_internal@@YAXQEAPEBX_K@Z 000000018004df50     libucrt:inittime.obj
 0004:00001f5c       $pdata$__acrt_locale_free_time 000000018004df5c     libucrt:inittime.obj
 0004:00001f68       $pdata$__acrt_GetStringTypeA 000000018004df68     libucrt:getstringtypea.obj
 0004:00001f80       $pdata$_strnicmp           000000018004df80     libucrt:strnicmp.obj
 0004:00001f8c       $pdata$_strnicmp_l         000000018004df8c     libucrt:strnicmp.obj
 0004:00001f98       $pdata$??$common_sopen_dispatch@D@@YAHQEBDHHHQEAHH@Z 000000018004df98     libucrt:open.obj
 0004:00001fa4       $pdata$?configure_text_mode@@YAHHUfile_options@?A0xc3dee958@@HAEAW4__crt_lowio_text_mode@@@Z 000000018004dfa4     libucrt:open.obj
 0004:00001fb0       $pdata$?decode_options@@YA?AUfile_options@?A0xc3dee958@@HHH@Z 000000018004dfb0     libucrt:open.obj
 0004:00001fbc       $pdata$?truncate_ctrl_z_if_present@@YAHH@Z 000000018004dfbc     libucrt:open.obj
 0004:00001fc8       $pdata$_sopen_nolock       000000018004dfc8     libucrt:open.obj
 0004:00001fd4       $pdata$_sopen_s            000000018004dfd4     libucrt:open.obj
 0004:00001fe0       $pdata$_wsopen_nolock      000000018004dfe0     libucrt:open.obj
 0004:00001fec       $pdata$__acrt_stdio_allocate_buffer_nolock 000000018004dfec     libucrt:_getbuf.obj
 0004:00001ff8       $pdata$?initialize_multibyte@@YAHXZ 000000018004dff8     libucrt:multibyte_initializer.obj
 0004:00002004       $pdata$_msize              000000018004e004     libucrt:msize.obj
 0004:00002010       $pdata$_putwch_nolock      000000018004e010     libucrt:putwch.obj
 0004:00002028       $pdata$fegetenv            000000018004e028     libucrt:fegetenv.obj
 0004:00002034       $pdata$fesetenv            000000018004e034     libucrt:fesetenv.obj
 0004:00002040       $pdata$feholdexcept        000000018004e040     libucrt:feholdexcept.obj
 0004:00002058       $pdata$_get_fmode          000000018004e058     libucrt:setmode.obj
 0004:00002064       $pdata$_setmode_nolock     000000018004e064     libucrt:setmode.obj
 0004:00002070       $pdata$__acrt_copy_path_to_wide_string 000000018004e070     libucrt:string_utilities.obj
 0004:0000207c       $pdata$_chsize_nolock      000000018004e07c     libucrt:chsize.obj
 0004:00002088       $pdata$__dcrt_lowio_initialize_console_output 000000018004e088     libucrt:initcon.obj
 0004:00002094       $pdata$__dcrt_terminate_console_output 000000018004e094     libucrt:initcon.obj
 0004:000020a0       $pdata$_getfpcontrolword   000000018004e0a0     libucrt:_fenvutils.obj
 0004:000020ac       $pdata$_getfpstatusword    000000018004e0ac     libucrt:_fenvutils.obj
 0004:000020b8       $pdata$_setfpstatusword    000000018004e0b8     libucrt:_fenvutils.obj
 0004:000020c4       $pdata$_clearfp            000000018004e0c4     libucrt:ieee.obj
 0004:000020d0       $pdata$common_control87    000000018004e0d0     libucrt:ieee.obj
 0004:000020dc       $pdata$__acrt_initialize_fma3 000000018004e0dc     libucrt:fma3_available.obj
 0004:000020e8       $pdata$_log10_special      000000018004e0e8     libucrt:log_special.obj
 0004:000020f4       $pdata$_log_special_common 000000018004e0f4     libucrt:log_special.obj
 0004:00002100       $pdata$?DloadAcquireSectionWriteAccess@@YAXXZ 000000018004e100     DelayImp:delayhlp.obj
 0004:0000210c       $pdata$?DloadGetSRWLockFunctionPointers@@YAEXZ 000000018004e10c     DelayImp:delayhlp.obj
 0004:00002118       $pdata$?DloadMakePermanentImageCommit@@YAXPEAX_K@Z 000000018004e118     DelayImp:delayhlp.obj
 0004:00002124       $pdata$?DloadObtainSection@@YAPEAXPEAK0@Z 000000018004e124     DelayImp:delayhlp.obj
 0004:00002130       $pdata$?DloadProtectSection@@YAXKPEAK@Z 000000018004e130     DelayImp:delayhlp.obj
 0004:0000213c       $pdata$?DloadReleaseSectionWriteAccess@@YAXXZ 000000018004e13c     DelayImp:delayhlp.obj
 0004:00002148       $pdata$__delayLoadHelper2  000000018004e148     DelayImp:delayhlp.obj
 0004:00002154       $pdata$_IsNonwritableInCurrentImage 000000018004e154     LIBCMT:pesect.obj
 0004:00002160       $pdata$__GSHandlerCheck    000000018004e160     LIBCMT:_gshandler_.obj
 0004:0000216c       $pdata$__GSHandlerCheckCommon 000000018004e16c     LIBCMT:_gshandler_.obj
 0004:00002184       $pdata$strrchr             000000018004e184     libvcruntime:strrchr.obj
 0004:0000219c       $pdata$__GSHandlerCheck_EH 000000018004e19c     LIBCMT:gshandlereh.obj
 0004:000021a8       $pdata$acos                000000018004e1a8     libucrt:acos.obj
 0004:000021b4       $pdata$acosf               000000018004e1b4     libucrt:acosf.obj
 0004:000021c0       $pdata$fmodf               000000018004e1c0     libucrt:fmodf.obj
 0004:000021cc       $pdata$sqrtf               000000018004e1cc     libucrt:sqrtf.obj
 0004:000021fc       $pdata$_sincos_special     000000018004e1fc     libucrt:sincos_special.obj
 0004:00002268       $pdata$?dtor$2@?0??New@Canvas@@SAXAEBV?$FunctionCallbackInfo@VValue@v8@@@Nan@@@Z@4HA 000000018004e268     Canvas.obj
 0004:00002274       $pdata$?dtor$0@?0??ToBuffer@Canvas@@SAXAEBV?$FunctionCallbackInfo@VValue@v8@@@Nan@@@Z@4HA 000000018004e274     Canvas.obj
 0004:00002280       $pdata$?dtor$0@?0??New@Gradient@@SAXAEBV?$FunctionCallbackInfo@VValue@v8@@@Nan@@@Z@4HA 000000018004e280     CanvasGradient.obj
 0004:0000228c       $pdata$?dtor$1@?0??New@Gradient@@SAXAEBV?$FunctionCallbackInfo@VValue@v8@@@Nan@@@Z@4HA 000000018004e28c     CanvasGradient.obj
 0004:00002298       $pdata$?dtor$0@?0??SetOnload@Image@@SAXV?$Local@VString@v8@@@v8@@V?$Local@VValue@v8@@@3@AEBV?$PropertyCallbackInfo@X@Nan@@@Z@4HA 000000018004e298     Image.obj
 0004:00002298       $pdata$?dtor$0@?0??SetOnerror@Image@@SAXV?$Local@VString@v8@@@v8@@V?$Local@VValue@v8@@@3@AEBV?$PropertyCallbackInfo@X@Nan@@@Z@4HA 000000018004e298     Image.obj
 0004:000022a4       $pdata$?fin$0@?0???_M@YAXPEAX_K1P6AX0@Z@Z@4HA 000000018004e2a4     LIBCMT:ehvecdtr.obj
 0004:000022b0       $pdata$?filt$0@?0??__ArrayUnwind@@YAXPEAX_K1P6AX0@Z@Z@4HA 000000018004e2b0     LIBCMT:ehvecdtr.obj
 0004:000022bc       $pdata$__scrt_is_nonwritable_in_current_image$filt$0 000000018004e2bc     LIBCMT:utility.obj
 0004:000022c8       $pdata$?fin$0@?0??dllmain_crt_process_attach@@YAHQEAUHINSTANCE__@@QEAX@Z@4HA 000000018004e2c8     LIBCMT:dll_dllmain.obj
 0004:000022d4       $pdata$?fin$0@?0??dllmain_crt_process_detach@@YAH_N@Z@4HA 000000018004e2d4     LIBCMT:dll_dllmain.obj
 0004:000022e0       $pdata$?filt$0@?0??dllmain_dispatch@@YAHQEAUHINSTANCE__@@KQEAX@Z@4HA 000000018004e2e0     LIBCMT:dll_dllmain.obj
 0004:000022ec       $pdata$__CxxCallCatchBlock$filt$0 000000018004e2ec     libvcruntime:frame.obj
 0004:000022f8       $pdata$__CxxCallCatchBlock$fin$1 000000018004e2f8     libvcruntime:frame.obj
 0004:00002304       $pdata$__DestructExceptionObject$filt$0 000000018004e304     libvcruntime:frame.obj
 0004:00002310       $pdata$__FrameUnwindToState$filt$0 000000018004e310     libvcruntime:frame.obj
 0004:0000231c       $pdata$__FrameUnwindToState$fin$1 000000018004e31c     libvcruntime:frame.obj
 0004:00002328       $pdata$_CallSETranslator$filt$0 000000018004e328     libvcruntime:trnsctrl.obj
 0004:00002334       $pdata$?fin$0@?0???$?RV<lambda_7a5ef57ff966f610505f1d28a3d40618>@@AEAV<lambda_b721fa326cdb32351d23dfa67958c160>@@V<lambda_5e0fb27672408a07956fe59e48ccb2aa>@@@?$__crt_seh_guarded_call@H@@QEAAH$$QEAV<lambda_7a5ef57ff966f610505f1d28a3d40618>@@AEAV<lambda_b721fa326cdb32351d23dfa67958c160>@@$$QEAV<lambda_5e0fb27672408a07956fe59e48ccb2aa>@@@Z@4HA 000000018004e334     libucrt:setvbuf.obj
 0004:00002334       $pdata$?fin$0@?0???$?RV<lambda_7b91131dde12e1c3dfc74ff76b3f2eac>@@AEAV<lambda_dd75445284c072d0bd3768540cc698fa>@@V<lambda_16bc4ecb55b4718497c16bceaea2ceaf>@@@?$__crt_seh_guarded_call@H@@QEAAH$$QEAV<lambda_7b91131dde12e1c3dfc74ff76b3f2eac>@@AEAV<lambda_dd75445284c072d0bd3768540cc698fa>@@$$QEAV<lambda_16bc4ecb55b4718497c16bceaea2ceaf>@@@Z@4HA 000000018004e334     libucrt:output.obj
 0004:00002340       $pdata$?fin$0@?0???$common_fsopen@D@@YAPEAU_iobuf@@QEBD0H@Z@4HA 000000018004e340     libucrt:fopen.obj
 0004:0000234c       $pdata$?fin$0@?0??common_fseek@@YAHV__crt_stdio_stream@@_JH@Z@4HA 000000018004e34c     libucrt:fseek.obj
 0004:00002358       $pdata$fread_s$fin$0       000000018004e358     libucrt:fread.obj
 0004:00002364       $pdata$_query_new_handler$fin$0 000000018004e364     libucrt:new_handler.obj
 0004:00002370       $pdata$?filt$0@?0??common_exit@@YAXHW4_crt_exit_cleanup_mode@@W4_crt_exit_return_mode@@@Z@4HA 000000018004e370     libucrt:exit.obj
 0004:0000237c       $pdata$?fin$1@?0??common_exit@@YAXHW4_crt_exit_cleanup_mode@@W4_crt_exit_return_mode@@@Z@4HA 000000018004e37c     libucrt:exit.obj
 0004:00002388       $pdata$?fin$0@?0???$?RV<lambda_e24bbb7b643b32fcea6fa61b31d4c984>@@AEAV<lambda_275893d493268fdec8709772e3fcec0e>@@V<lambda_9d71df4d7cf3f480f8d633942495c3b0>@@@?$__crt_seh_guarded_call@H@@QEAAH$$QEAV<lambda_e24bbb7b643b32fcea6fa61b31d4c984>@@AEAV<lambda_275893d493268fdec8709772e3fcec0e>@@$$QEAV<lambda_9d71df4d7cf3f480f8d633942495c3b0>@@@Z@4HA 000000018004e388     libucrt:onexit.obj
 0004:00002394       $pdata$common_flush_all$fin$0 000000018004e394     libucrt:fflush.obj
 0004:000023a0       $pdata$common_flush_all$fin$1 000000018004e3a0     libucrt:fflush.obj
 0004:000023ac       $pdata$fflush$fin$0        000000018004e3ac     libucrt:fflush.obj
 0004:000023ac       $pdata$fclose$fin$0        000000018004e3ac     libucrt:fclose.obj
 0004:000023b8       $pdata$?fin$0@?0???$?RV<lambda_5e887d1dcbef67a5eb4283622ba103bf>@@AEAV<lambda_4466841279450cc726390878d4a41900>@@V<lambda_341c25c0346d94847f1f3c463c57e077>@@@?$__crt_seh_guarded_call@X@@QEAAX$$QEAV<lambda_5e887d1dcbef67a5eb4283622ba103bf>@@AEAV<lambda_4466841279450cc726390878d4a41900>@@$$QEAV<lambda_341c25c0346d94847f1f3c463c57e077>@@@Z@4HA 000000018004e3b8     libucrt:per_thread_data.obj
 0004:000023b8       $pdata$?fin$0@?0???$?RV<lambda_fb3a7dec4e47f37f22dae91bb15c9095>@@AEAV<lambda_698284760c8add0bfb0756c19673e34b>@@V<lambda_dfb8eca1e75fef3034a8fb18dd509707>@@@?$__crt_seh_guarded_call@X@@QEAAX$$QEAV<lambda_fb3a7dec4e47f37f22dae91bb15c9095>@@AEAV<lambda_698284760c8add0bfb0756c19673e34b>@@$$QEAV<lambda_dfb8eca1e75fef3034a8fb18dd509707>@@@Z@4HA 000000018004e3b8     libucrt:per_thread_data.obj
 0004:000023b8       $pdata$?fin$0@?0???$?RV<lambda_72d1df2b273a38828b1ce30cbf4cdab5>@@AEAV<lambda_876a65b173b8412d3a47c70a915b0cf4>@@V<lambda_41932305e351933ebe8f8be3ed8bb5dc>@@@?$__crt_seh_guarded_call@X@@QEAAX$$QEAV<lambda_72d1df2b273a38828b1ce30cbf4cdab5>@@AEAV<lambda_876a65b173b8412d3a47c70a915b0cf4>@@$$QEAV<lambda_41932305e351933ebe8f8be3ed8bb5dc>@@@Z@4HA 000000018004e3b8     libucrt:per_thread_data.obj
 0004:000023b8       $pdata$?fin$0@?0???$?RV<lambda_99476a1ad63dd22509b5d3e65b0ffc95>@@AEAV<lambda_ad1ced32f4ac17aa236e5ef05d6b3b7c>@@V<lambda_f7424dd8d45958661754dc4f2697e9c3>@@@?$__crt_seh_guarded_call@X@@QEAAX$$QEAV<lambda_99476a1ad63dd22509b5d3e65b0ffc95>@@AEAV<lambda_ad1ced32f4ac17aa236e5ef05d6b3b7c>@@$$QEAV<lambda_f7424dd8d45958661754dc4f2697e9c3>@@@Z@4HA 000000018004e3b8     libucrt:mbctype.obj
 0004:000023b8       $pdata$?fin$0@?0???$?RV<lambda_c36588078e9f5dfd39652860aa6b3aaf>@@AEAV<lambda_ec61778202f4f5fc7e7711acc23c3bca>@@V<lambda_dc9d2797ccde5d239b4a0efae8ebd7db>@@@?$__crt_seh_guarded_call@P6AXH@Z@@QEAAP6AXH@Z$$QEAV<lambda_c36588078e9f5dfd39652860aa6b3aaf>@@AEAV<lambda_ec61778202f4f5fc7e7711acc23c3bca>@@$$QEAV<lambda_dc9d2797ccde5d239b4a0efae8ebd7db>@@@Z@4HA 000000018004e3b8     libucrt:signal.obj
 0004:000023b8       $pdata$?fin$0@?0???$?RV<lambda_b8c45f8f788dd370798f47cfe8ac3a86>@@AEAV<lambda_4e60a939b0d047cfe11ddc22648dfba9>@@V<lambda_332c3edc96d0294ec56c57d38c1cdfd5>@@@?$__crt_seh_guarded_call@H@@QEAAH$$QEAV<lambda_b8c45f8f788dd370798f47cfe8ac3a86>@@AEAV<lambda_4e60a939b0d047cfe11ddc22648dfba9>@@$$QEAV<lambda_332c3edc96d0294ec56c57d38c1cdfd5>@@@Z@4HA 000000018004e3b8     libucrt:onexit.obj
 0004:000023b8       $pdata$?fin$0@?0???$?RV<lambda_46352004c1216016012b18bd6f87e700>@@AEAV<lambda_3bd07e1a1191394380780325891bf33f>@@V<lambda_334532d3f185bcaa59b5be82d7d22bff>@@@?$__crt_seh_guarded_call@X@@QEAAX$$QEAV<lambda_46352004c1216016012b18bd6f87e700>@@AEAV<lambda_3bd07e1a1191394380780325891bf33f>@@$$QEAV<lambda_334532d3f185bcaa59b5be82d7d22bff>@@@Z@4HA 000000018004e3b8     libucrt:per_thread_data.obj
 0004:000023c4       $pdata$raise$fin$0         000000018004e3c4     libucrt:signal.obj
 0004:000023d0       $pdata$?fin$0@?0??__acrt_stdio_allocate_stream@@YA?AV__crt_stdio_stream@@XZ@4HA 000000018004e3d0     libucrt:stream.obj
 0004:000023d0       $pdata$_fcloseall$fin$0    000000018004e3d0     libucrt:closeall.obj
 0004:000023dc       $pdata$_write$fin$0        000000018004e3dc     libucrt:write.obj
 0004:000023dc       $pdata$?fin$0@?0???$common_lseek@_J@@YA_JH_JH@Z@4HA 000000018004e3dc     libucrt:lseek.obj
 0004:000023dc       $pdata$_read$fin$0         000000018004e3dc     libucrt:read.obj
 0004:000023e8       $pdata$__acrt_update_thread_multibyte_data$fin$0 000000018004e3e8     libucrt:mbctype.obj
 0004:000023f4       $pdata$?fin$0@?0???$?RV<lambda_bfedae4ebbf01fab1bb6dcc6a9e276e0>@@AEAV<lambda_2fe9b910cf3cbf4a0ab98a02ba45b3ec>@@V<lambda_237c231691f317818eb88cc1d5d642d6>@@@?$__crt_seh_guarded_call@H@@QEAAH$$QEAV<lambda_bfedae4ebbf01fab1bb6dcc6a9e276e0>@@AEAV<lambda_2fe9b910cf3cbf4a0ab98a02ba45b3ec>@@$$QEAV<lambda_237c231691f317818eb88cc1d5d642d6>@@@Z@4HA 000000018004e3f4     libucrt:close.obj
 0004:000023f4       $pdata$?fin$0@?0???$?RV<lambda_b521505b218e5242e90febf6bfebc422>@@AEAV<lambda_6978c1fb23f02e42e1d9e99668cc68aa>@@V<lambda_314360699dd331753a4119843814e9a7>@@@?$__crt_seh_guarded_call@H@@QEAAH$$QEAV<lambda_b521505b218e5242e90febf6bfebc422>@@AEAV<lambda_6978c1fb23f02e42e1d9e99668cc68aa>@@$$QEAV<lambda_314360699dd331753a4119843814e9a7>@@@Z@4HA 000000018004e3f4     libucrt:commit.obj
 0004:00002400       $pdata$__acrt_uninitialize_locale$fin$0 000000018004e400     libucrt:wsetlocale.obj
 0004:00002400       $pdata$__acrt_update_thread_locale_data$fin$0 000000018004e400     libucrt:locale_refcounting.obj
 0004:0000240c       $pdata$__acrt_initialize_lowio$fin$0 000000018004e40c     libucrt:ioinit.obj
 0004:0000240c       $pdata$_alloc_osfhnd$fin$0 000000018004e40c     libucrt:osfinfo.obj
 0004:0000240c       $pdata$__acrt_lowio_ensure_fh_exists$fin$0 000000018004e40c     libucrt:osfinfo.obj
 0004:00002418       $pdata$?fin$0@?0???$common_sopen_dispatch@D@@YAHQEBDHHHQEAHH@Z@4HA 000000018004e418     libucrt:open.obj
 0004:00002424       $pdata$common_control87$filt$0 000000018004e424     libucrt:ieee.obj
 0004:00002424       $pdata$_ctrlfp$filt$0      000000018004e424     libucrt:fpctrl.obj
 0004:00002430       $pdata$_IsNonwritableInCurrentImage$filt$0 000000018004e430     LIBCMT:pesect.obj
 0004:0000243c       $pdata$??__F?constructor@Canvas@@2V?$Persistent@VFunctionTemplate@v8@@V?$NonCopyablePersistentTraits@VFunctionTemplate@v8@@@2@@Nan@@A@@YAXXZ 000000018004e43c     Canvas.obj
 0004:00002448       $pdata$??__F?constructor@Gradient@@2V?$Persistent@VFunctionTemplate@v8@@V?$NonCopyablePersistentTraits@VFunctionTemplate@v8@@@2@@Nan@@A@@YAXXZ 000000018004e448     CanvasGradient.obj
 0004:00002454       $pdata$??__F?constructor@Pattern@@2V?$Persistent@VFunctionTemplate@v8@@V?$NonCopyablePersistentTraits@VFunctionTemplate@v8@@@2@@Nan@@A@@YAXXZ 000000018004e454     CanvasPattern.obj
 0004:00002460       $pdata$??__F?constructor@Context2d@@2V?$Persistent@VFunctionTemplate@v8@@V?$NonCopyablePersistentTraits@VFunctionTemplate@v8@@@2@@Nan@@A@@YAXXZ 000000018004e460     CanvasRenderingContext2d.obj
 0004:0000246c       $pdata$??__F?constructor@Image@@2V?$Persistent@VFunctionTemplate@v8@@V?$NonCopyablePersistentTraits@VFunctionTemplate@v8@@@2@@Nan@@A@@YAXXZ 000000018004e46c     Image.obj
 0004:00002478       $pdata$??__F?constructor@ImageData@@2V?$Persistent@VFunctionTemplate@v8@@V?$NonCopyablePersistentTraits@VFunctionTemplate@v8@@@2@@Nan@@A@@YAXXZ 000000018004e478     ImageData.obj
 0005:00000060       $R000000                   000000018004f060     * linker generated manifest res *

 Exports

  ordinal    name

        1    ??0Allocator@ArrayBuffer@v8@@QEAA@AEBV012@@Z (public: __cdecl v8::ArrayBuffer::Allocator::Allocator(class v8::ArrayBuffer::Allocator const &))
        2    ??0Allocator@ArrayBuffer@v8@@QEAA@XZ (public: __cdecl v8::ArrayBuffer::Allocator::Allocator(void))
        3    ??0CachedData@ScriptCompiler@v8@@QEAA@XZ (public: __cdecl v8::ScriptCompiler::CachedData::CachedData(void))
        4    ??0Contents@ArrayBuffer@v8@@QEAA@XZ (public: __cdecl v8::ArrayBuffer::Contents::Contents(void))
        5    ??0Contents@SharedArrayBuffer@v8@@QEAA@XZ (public: __cdecl v8::SharedArrayBuffer::Contents::Contents(void))
        6    ??0ExtensionConfiguration@v8@@QEAA@HQEAPEBD@Z (public: __cdecl v8::ExtensionConfiguration::ExtensionConfiguration(int,char const * * const))
        7    ??0ExtensionConfiguration@v8@@QEAA@XZ (public: __cdecl v8::ExtensionConfiguration::ExtensionConfiguration(void))
        8    ??0ExternalOneByteStringResource@String@v8@@IEAA@XZ (protected: __cdecl v8::String::ExternalOneByteStringResource::ExternalOneByteStringResource(void))
        9    ??0ExternalOneByteStringResourceImpl@v8@@QEAA@PEBD_K@Z (public: __cdecl v8::ExternalOneByteStringResourceImpl::ExternalOneByteStringResourceImpl(char const *,unsigned __int64))
       10    ??0ExternalOneByteStringResourceImpl@v8@@QEAA@XZ (public: __cdecl v8::ExternalOneByteStringResourceImpl::ExternalOneByteStringResourceImpl(void))
       11    ??0ExternalResourceVisitor@v8@@QEAA@AEBV01@@Z (public: __cdecl v8::ExternalResourceVisitor::ExternalResourceVisitor(class v8::ExternalResourceVisitor const &))
       12    ??0ExternalResourceVisitor@v8@@QEAA@XZ (public: __cdecl v8::ExternalResourceVisitor::ExternalResourceVisitor(void))
       13    ??0ExternalSourceStream@ScriptCompiler@v8@@QEAA@AEBV012@@Z (public: __cdecl v8::ScriptCompiler::ExternalSourceStream::ExternalSourceStream(class v8::ScriptCompiler::ExternalSourceStream const &))
       14    ??0ExternalSourceStream@ScriptCompiler@v8@@QEAA@XZ (public: __cdecl v8::ScriptCompiler::ExternalSourceStream::ExternalSourceStream(void))
       15    ??0ExternalStringResource@String@v8@@IEAA@XZ (protected: __cdecl v8::String::ExternalStringResource::ExternalStringResource(void))
       16    ??0ExternalStringResourceBase@String@v8@@IEAA@XZ (protected: __cdecl v8::String::ExternalStringResourceBase::ExternalStringResourceBase(void))
       17    ??0HandleScope@v8@@IEAA@XZ (protected: __cdecl v8::HandleScope::HandleScope(void))
       18    ??0Locker@v8@@QEAA@PEAVIsolate@1@@Z (public: __cdecl v8::Locker::Locker(class v8::Isolate *))
       19    ??0PersistentHandleVisitor@v8@@QEAA@AEBV01@@Z (public: __cdecl v8::PersistentHandleVisitor::PersistentHandleVisitor(class v8::PersistentHandleVisitor const &))
       20    ??0PersistentHandleVisitor@v8@@QEAA@XZ (public: __cdecl v8::PersistentHandleVisitor::PersistentHandleVisitor(void))
       21    ??0Scope@Isolate@v8@@QEAA@PEAV12@@Z (public: __cdecl v8::Isolate::Scope::Scope(class v8::Isolate *))
       22    ??0Unlocker@v8@@QEAA@PEAVIsolate@1@@Z (public: __cdecl v8::Unlocker::Unlocker(class v8::Isolate *))
       23    ??1Allocator@ArrayBuffer@v8@@UEAA@XZ (public: virtual __cdecl v8::ArrayBuffer::Allocator::~Allocator(void))
       24    ??1EscapableHandleScope@v8@@QEAA@XZ (public: __cdecl v8::EscapableHandleScope::~EscapableHandleScope(void))
       25    ??1Extension@v8@@UEAA@XZ (public: virtual __cdecl v8::Extension::~Extension(void))
       26    ??1ExternalOneByteStringResource@String@v8@@UEAA@XZ (public: virtual __cdecl v8::String::ExternalOneByteStringResource::~ExternalOneByteStringResource(void))
       27    ??1ExternalOneByteStringResourceImpl@v8@@UEAA@XZ (public: virtual __cdecl v8::ExternalOneByteStringResourceImpl::~ExternalOneByteStringResourceImpl(void))
       28    ??1ExternalResourceVisitor@v8@@UEAA@XZ (public: virtual __cdecl v8::ExternalResourceVisitor::~ExternalResourceVisitor(void))
       29    ??1ExternalSourceStream@ScriptCompiler@v8@@UEAA@XZ (public: virtual __cdecl v8::ScriptCompiler::ExternalSourceStream::~ExternalSourceStream(void))
       30    ??1ExternalStringResource@String@v8@@UEAA@XZ (public: virtual __cdecl v8::String::ExternalStringResource::~ExternalStringResource(void))
       31    ??1ExternalStringResourceBase@String@v8@@UEAA@XZ (public: virtual __cdecl v8::String::ExternalStringResourceBase::~ExternalStringResourceBase(void))
       32    ??1PersistentHandleVisitor@v8@@UEAA@XZ (public: virtual __cdecl v8::PersistentHandleVisitor::~PersistentHandleVisitor(void))
       33    ??1Scope@Isolate@v8@@QEAA@XZ (public: __cdecl v8::Isolate::Scope::~Scope(void))
       34    ??4AccessorSignature@v8@@QEAAAEAV01@$$QEAV01@@Z (public: class v8::AccessorSignature & __cdecl v8::AccessorSignature::operator=(class v8::AccessorSignature &&))
       35    ??4AccessorSignature@v8@@QEAAAEAV01@AEBV01@@Z (public: class v8::AccessorSignature & __cdecl v8::AccessorSignature::operator=(class v8::AccessorSignature const &))
       36    ??4Allocator@ArrayBuffer@v8@@QEAAAEAV012@AEBV012@@Z (public: class v8::ArrayBuffer::Allocator & __cdecl v8::ArrayBuffer::Allocator::operator=(class v8::ArrayBuffer::Allocator const &))
       37    ??4Array@v8@@QEAAAEAV01@$$QEAV01@@Z (public: class v8::Array & __cdecl v8::Array::operator=(class v8::Array &&))
       38    ??4Array@v8@@QEAAAEAV01@AEBV01@@Z (public: class v8::Array & __cdecl v8::Array::operator=(class v8::Array const &))
       39    ??4ArrayBuffer@v8@@QEAAAEAV01@$$QEAV01@@Z (public: class v8::ArrayBuffer & __cdecl v8::ArrayBuffer::operator=(class v8::ArrayBuffer &&))
       40    ??4ArrayBuffer@v8@@QEAAAEAV01@AEBV01@@Z (public: class v8::ArrayBuffer & __cdecl v8::ArrayBuffer::operator=(class v8::ArrayBuffer const &))
       41    ??4ArrayBufferView@v8@@QEAAAEAV01@$$QEAV01@@Z (public: class v8::ArrayBufferView & __cdecl v8::ArrayBufferView::operator=(class v8::ArrayBufferView &&))
       42    ??4ArrayBufferView@v8@@QEAAAEAV01@AEBV01@@Z (public: class v8::ArrayBufferView & __cdecl v8::ArrayBufferView::operator=(class v8::ArrayBufferView const &))
       43    ??4Boolean@v8@@QEAAAEAV01@$$QEAV01@@Z (public: class v8::Boolean & __cdecl v8::Boolean::operator=(class v8::Boolean &&))
       44    ??4Boolean@v8@@QEAAAEAV01@AEBV01@@Z (public: class v8::Boolean & __cdecl v8::Boolean::operator=(class v8::Boolean const &))
       45    ??4BooleanObject@v8@@QEAAAEAV01@$$QEAV01@@Z (public: class v8::BooleanObject & __cdecl v8::BooleanObject::operator=(class v8::BooleanObject &&))
       46    ??4BooleanObject@v8@@QEAAAEAV01@AEBV01@@Z (public: class v8::BooleanObject & __cdecl v8::BooleanObject::operator=(class v8::BooleanObject const &))
       47    ??4Contents@ArrayBuffer@v8@@QEAAAEAV012@$$QEAV012@@Z (public: class v8::ArrayBuffer::Contents & __cdecl v8::ArrayBuffer::Contents::operator=(class v8::ArrayBuffer::Contents &&))
       48    ??4Contents@ArrayBuffer@v8@@QEAAAEAV012@AEBV012@@Z (public: class v8::ArrayBuffer::Contents & __cdecl v8::ArrayBuffer::Contents::operator=(class v8::ArrayBuffer::Contents const &))
       49    ??4Contents@SharedArrayBuffer@v8@@QEAAAEAV012@$$QEAV012@@Z (public: class v8::SharedArrayBuffer::Contents & __cdecl v8::SharedArrayBuffer::Contents::operator=(class v8::SharedArrayBuffer::Contents &&))
       50    ??4Contents@SharedArrayBuffer@v8@@QEAAAEAV012@AEBV012@@Z (public: class v8::SharedArrayBuffer::Contents & __cdecl v8::SharedArrayBuffer::Contents::operator=(class v8::SharedArrayBuffer::Contents const &))
       51    ??4Context@v8@@QEAAAEAV01@$$QEAV01@@Z (public: class v8::Context & __cdecl v8::Context::operator=(class v8::Context &&))
       52    ??4Context@v8@@QEAAAEAV01@AEBV01@@Z (public: class v8::Context & __cdecl v8::Context::operator=(class v8::Context const &))
       53    ??4Data@v8@@QEAAAEAV01@$$QEAV01@@Z (public: class v8::Data & __cdecl v8::Data::operator=(class v8::Data &&))
       54    ??4Data@v8@@QEAAAEAV01@AEBV01@@Z (public: class v8::Data & __cdecl v8::Data::operator=(class v8::Data const &))
       55    ??4DataView@v8@@QEAAAEAV01@$$QEAV01@@Z (public: class v8::DataView & __cdecl v8::DataView::operator=(class v8::DataView &&))
       56    ??4DataView@v8@@QEAAAEAV01@AEBV01@@Z (public: class v8::DataView & __cdecl v8::DataView::operator=(class v8::DataView const &))
       57    ??4Date@v8@@QEAAAEAV01@$$QEAV01@@Z (public: class v8::Date & __cdecl v8::Date::operator=(class v8::Date &&))
       58    ??4Date@v8@@QEAAAEAV01@AEBV01@@Z (public: class v8::Date & __cdecl v8::Date::operator=(class v8::Date const &))
       59    ??4Exception@v8@@QEAAAEAV01@$$QEAV01@@Z (public: class v8::Exception & __cdecl v8::Exception::operator=(class v8::Exception &&))
       60    ??4Exception@v8@@QEAAAEAV01@AEBV01@@Z (public: class v8::Exception & __cdecl v8::Exception::operator=(class v8::Exception const &))
       61    ??4External@v8@@QEAAAEAV01@$$QEAV01@@Z (public: class v8::External & __cdecl v8::External::operator=(class v8::External &&))
       62    ??4External@v8@@QEAAAEAV01@AEBV01@@Z (public: class v8::External & __cdecl v8::External::operator=(class v8::External const &))
       63    ??4ExternalResourceVisitor@v8@@QEAAAEAV01@AEBV01@@Z (public: class v8::ExternalResourceVisitor & __cdecl v8::ExternalResourceVisitor::operator=(class v8::ExternalResourceVisitor const &))
       64    ??4ExternalSourceStream@ScriptCompiler@v8@@QEAAAEAV012@AEBV012@@Z (public: class v8::ScriptCompiler::ExternalSourceStream & __cdecl v8::ScriptCompiler::ExternalSourceStream::operator=(class v8::ScriptCompiler::ExternalSourceStream const &))
       65    ??4Float32Array@v8@@QEAAAEAV01@$$QEAV01@@Z (public: class v8::Float32Array & __cdecl v8::Float32Array::operator=(class v8::Float32Array &&))
       66    ??4Float32Array@v8@@QEAAAEAV01@AEBV01@@Z (public: class v8::Float32Array & __cdecl v8::Float32Array::operator=(class v8::Float32Array const &))
       67    ??4Float64Array@v8@@QEAAAEAV01@$$QEAV01@@Z (public: class v8::Float64Array & __cdecl v8::Float64Array::operator=(class v8::Float64Array &&))
       68    ??4Float64Array@v8@@QEAAAEAV01@AEBV01@@Z (public: class v8::Float64Array & __cdecl v8::Float64Array::operator=(class v8::Float64Array const &))
       69    ??4Function@v8@@QEAAAEAV01@$$QEAV01@@Z (public: class v8::Function & __cdecl v8::Function::operator=(class v8::Function &&))
       70    ??4Function@v8@@QEAAAEAV01@AEBV01@@Z (public: class v8::Function & __cdecl v8::Function::operator=(class v8::Function const &))
       71    ??4FunctionTemplate@v8@@QEAAAEAV01@$$QEAV01@@Z (public: class v8::FunctionTemplate & __cdecl v8::FunctionTemplate::operator=(class v8::FunctionTemplate &&))
       72    ??4FunctionTemplate@v8@@QEAAAEAV01@AEBV01@@Z (public: class v8::FunctionTemplate & __cdecl v8::FunctionTemplate::operator=(class v8::FunctionTemplate const &))
       73    ??4HeapObjectStatistics@v8@@QEAAAEAV01@$$QEAV01@@Z (public: class v8::HeapObjectStatistics & __cdecl v8::HeapObjectStatistics::operator=(class v8::HeapObjectStatistics &&))
       74    ??4HeapObjectStatistics@v8@@QEAAAEAV01@AEBV01@@Z (public: class v8::HeapObjectStatistics & __cdecl v8::HeapObjectStatistics::operator=(class v8::HeapObjectStatistics const &))
       75    ??4HeapSpaceStatistics@v8@@QEAAAEAV01@$$QEAV01@@Z (public: class v8::HeapSpaceStatistics & __cdecl v8::HeapSpaceStatistics::operator=(class v8::HeapSpaceStatistics &&))
       76    ??4HeapSpaceStatistics@v8@@QEAAAEAV01@AEBV01@@Z (public: class v8::HeapSpaceStatistics & __cdecl v8::HeapSpaceStatistics::operator=(class v8::HeapSpaceStatistics const &))
       77    ??4HeapStatistics@v8@@QEAAAEAV01@$$QEAV01@@Z (public: class v8::HeapStatistics & __cdecl v8::HeapStatistics::operator=(class v8::HeapStatistics &&))
       78    ??4HeapStatistics@v8@@QEAAAEAV01@AEBV01@@Z (public: class v8::HeapStatistics & __cdecl v8::HeapStatistics::operator=(class v8::HeapStatistics const &))
       79    ??4Int16Array@v8@@QEAAAEAV01@$$QEAV01@@Z (public: class v8::Int16Array & __cdecl v8::Int16Array::operator=(class v8::Int16Array &&))
       80    ??4Int16Array@v8@@QEAAAEAV01@AEBV01@@Z (public: class v8::Int16Array & __cdecl v8::Int16Array::operator=(class v8::Int16Array const &))
       81    ??4Int32@v8@@QEAAAEAV01@$$QEAV01@@Z (public: class v8::Int32 & __cdecl v8::Int32::operator=(class v8::Int32 &&))
       82    ??4Int32@v8@@QEAAAEAV01@AEBV01@@Z (public: class v8::Int32 & __cdecl v8::Int32::operator=(class v8::Int32 const &))
       83    ??4Int32Array@v8@@QEAAAEAV01@$$QEAV01@@Z (public: class v8::Int32Array & __cdecl v8::Int32Array::operator=(class v8::Int32Array &&))
       84    ??4Int32Array@v8@@QEAAAEAV01@AEBV01@@Z (public: class v8::Int32Array & __cdecl v8::Int32Array::operator=(class v8::Int32Array const &))
       85    ??4Int8Array@v8@@QEAAAEAV01@$$QEAV01@@Z (public: class v8::Int8Array & __cdecl v8::Int8Array::operator=(class v8::Int8Array &&))
       86    ??4Int8Array@v8@@QEAAAEAV01@AEBV01@@Z (public: class v8::Int8Array & __cdecl v8::Int8Array::operator=(class v8::Int8Array const &))
       87    ??4Integer@v8@@QEAAAEAV01@$$QEAV01@@Z (public: class v8::Integer & __cdecl v8::Integer::operator=(class v8::Integer &&))
       88    ??4Integer@v8@@QEAAAEAV01@AEBV01@@Z (public: class v8::Integer & __cdecl v8::Integer::operator=(class v8::Integer const &))
       89    ??4JSON@v8@@QEAAAEAV01@$$QEAV01@@Z (public: class v8::JSON & __cdecl v8::JSON::operator=(class v8::JSON &&))
       90    ??4JSON@v8@@QEAAAEAV01@AEBV01@@Z (public: class v8::JSON & __cdecl v8::JSON::operator=(class v8::JSON const &))
       91    ??4Map@v8@@QEAAAEAV01@$$QEAV01@@Z (public: class v8::Map & __cdecl v8::Map::operator=(class v8::Map &&))
       92    ??4Map@v8@@QEAAAEAV01@AEBV01@@Z (public: class v8::Map & __cdecl v8::Map::operator=(class v8::Map const &))
       93    ??4Message@v8@@QEAAAEAV01@$$QEAV01@@Z (public: class v8::Message & __cdecl v8::Message::operator=(class v8::Message &&))
       94    ??4Message@v8@@QEAAAEAV01@AEBV01@@Z (public: class v8::Message & __cdecl v8::Message::operator=(class v8::Message const &))
       95    ??4Name@v8@@QEAAAEAV01@$$QEAV01@@Z (public: class v8::Name & __cdecl v8::Name::operator=(class v8::Name &&))
       96    ??4Name@v8@@QEAAAEAV01@AEBV01@@Z (public: class v8::Name & __cdecl v8::Name::operator=(class v8::Name const &))
       97    ??4NativeWeakMap@v8@@QEAAAEAV01@$$QEAV01@@Z (public: class v8::NativeWeakMap & __cdecl v8::NativeWeakMap::operator=(class v8::NativeWeakMap &&))
       98    ??4NativeWeakMap@v8@@QEAAAEAV01@AEBV01@@Z (public: class v8::NativeWeakMap & __cdecl v8::NativeWeakMap::operator=(class v8::NativeWeakMap const &))
       99    ??4Number@v8@@QEAAAEAV01@$$QEAV01@@Z (public: class v8::Number & __cdecl v8::Number::operator=(class v8::Number &&))
      100    ??4Number@v8@@QEAAAEAV01@AEBV01@@Z (public: class v8::Number & __cdecl v8::Number::operator=(class v8::Number const &))
      101    ??4NumberObject@v8@@QEAAAEAV01@$$QEAV01@@Z (public: class v8::NumberObject & __cdecl v8::NumberObject::operator=(class v8::NumberObject &&))
      102    ??4NumberObject@v8@@QEAAAEAV01@AEBV01@@Z (public: class v8::NumberObject & __cdecl v8::NumberObject::operator=(class v8::NumberObject const &))
      103    ??4Object@v8@@QEAAAEAV01@$$QEAV01@@Z (public: class v8::Object & __cdecl v8::Object::operator=(class v8::Object &&))
      104    ??4Object@v8@@QEAAAEAV01@AEBV01@@Z (public: class v8::Object & __cdecl v8::Object::operator=(class v8::Object const &))
      105    ??4ObjectTemplate@v8@@QEAAAEAV01@$$QEAV01@@Z (public: class v8::ObjectTemplate & __cdecl v8::ObjectTemplate::operator=(class v8::ObjectTemplate &&))
      106    ??4ObjectTemplate@v8@@QEAAAEAV01@AEBV01@@Z (public: class v8::ObjectTemplate & __cdecl v8::ObjectTemplate::operator=(class v8::ObjectTemplate const &))
      107    ??4PersistentHandleVisitor@v8@@QEAAAEAV01@AEBV01@@Z (public: class v8::PersistentHandleVisitor & __cdecl v8::PersistentHandleVisitor::operator=(class v8::PersistentHandleVisitor const &))
      108    ??4Primitive@v8@@QEAAAEAV01@$$QEAV01@@Z (public: class v8::Primitive & __cdecl v8::Primitive::operator=(class v8::Primitive &&))
      109    ??4Primitive@v8@@QEAAAEAV01@AEBV01@@Z (public: class v8::Primitive & __cdecl v8::Primitive::operator=(class v8::Primitive const &))
      110    ??4Promise@v8@@QEAAAEAV01@$$QEAV01@@Z (public: class v8::Promise & __cdecl v8::Promise::operator=(class v8::Promise &&))
      111    ??4Promise@v8@@QEAAAEAV01@AEBV01@@Z (public: class v8::Promise & __cdecl v8::Promise::operator=(class v8::Promise const &))
      112    ??4RegExp@v8@@QEAAAEAV01@$$QEAV01@@Z (public: class v8::RegExp & __cdecl v8::RegExp::operator=(class v8::RegExp &&))
      113    ??4RegExp@v8@@QEAAAEAV01@AEBV01@@Z (public: class v8::RegExp & __cdecl v8::RegExp::operator=(class v8::RegExp const &))
      114    ??4Resolver@Promise@v8@@QEAAAEAV012@$$QEAV012@@Z (public: class v8::Promise::Resolver & __cdecl v8::Promise::Resolver::operator=(class v8::Promise::Resolver &&))
      115    ??4Resolver@Promise@v8@@QEAAAEAV012@AEBV012@@Z (public: class v8::Promise::Resolver & __cdecl v8::Promise::Resolver::operator=(class v8::Promise::Resolver const &))
      116    ??4ResourceConstraints@v8@@QEAAAEAV01@$$QEAV01@@Z (public: class v8::ResourceConstraints & __cdecl v8::ResourceConstraints::operator=(class v8::ResourceConstraints &&))
      117    ??4ResourceConstraints@v8@@QEAAAEAV01@AEBV01@@Z (public: class v8::ResourceConstraints & __cdecl v8::ResourceConstraints::operator=(class v8::ResourceConstraints const &))
      118    ??4Script@v8@@QEAAAEAV01@$$QEAV01@@Z (public: class v8::Script & __cdecl v8::Script::operator=(class v8::Script &&))
      119    ??4Script@v8@@QEAAAEAV01@AEBV01@@Z (public: class v8::Script & __cdecl v8::Script::operator=(class v8::Script const &))
      120    ??4ScriptCompiler@v8@@QEAAAEAV01@$$QEAV01@@Z (public: class v8::ScriptCompiler & __cdecl v8::ScriptCompiler::operator=(class v8::ScriptCompiler &&))
      121    ??4ScriptCompiler@v8@@QEAAAEAV01@AEBV01@@Z (public: class v8::ScriptCompiler & __cdecl v8::ScriptCompiler::operator=(class v8::ScriptCompiler const &))
      122    ??4Set@v8@@QEAAAEAV01@$$QEAV01@@Z (public: class v8::Set & __cdecl v8::Set::operator=(class v8::Set &&))
      123    ??4Set@v8@@QEAAAEAV01@AEBV01@@Z (public: class v8::Set & __cdecl v8::Set::operator=(class v8::Set const &))
      124    ??4SharedArrayBuffer@v8@@QEAAAEAV01@$$QEAV01@@Z (public: class v8::SharedArrayBuffer & __cdecl v8::SharedArrayBuffer::operator=(class v8::SharedArrayBuffer &&))
      125    ??4SharedArrayBuffer@v8@@QEAAAEAV01@AEBV01@@Z (public: class v8::SharedArrayBuffer & __cdecl v8::SharedArrayBuffer::operator=(class v8::SharedArrayBuffer const &))
      126    ??4Signature@v8@@QEAAAEAV01@$$QEAV01@@Z (public: class v8::Signature & __cdecl v8::Signature::operator=(class v8::Signature &&))
      127    ??4Signature@v8@@QEAAAEAV01@AEBV01@@Z (public: class v8::Signature & __cdecl v8::Signature::operator=(class v8::Signature const &))
      128    ??4StackFrame@v8@@QEAAAEAV01@$$QEAV01@@Z (public: class v8::StackFrame & __cdecl v8::StackFrame::operator=(class v8::StackFrame &&))
      129    ??4StackFrame@v8@@QEAAAEAV01@AEBV01@@Z (public: class v8::StackFrame & __cdecl v8::StackFrame::operator=(class v8::StackFrame const &))
      130    ??4StackTrace@v8@@QEAAAEAV01@$$QEAV01@@Z (public: class v8::StackTrace & __cdecl v8::StackTrace::operator=(class v8::StackTrace &&))
      131    ??4StackTrace@v8@@QEAAAEAV01@AEBV01@@Z (public: class v8::StackTrace & __cdecl v8::StackTrace::operator=(class v8::StackTrace const &))
      132    ??4StartupData@v8@@QEAAAEAV01@$$QEAV01@@Z (public: class v8::StartupData & __cdecl v8::StartupData::operator=(class v8::StartupData &&))
      133    ??4StartupData@v8@@QEAAAEAV01@AEBV01@@Z (public: class v8::StartupData & __cdecl v8::StartupData::operator=(class v8::StartupData const &))
      134    ??4String@v8@@QEAAAEAV01@$$QEAV01@@Z (public: class v8::String & __cdecl v8::String::operator=(class v8::String &&))
      135    ??4String@v8@@QEAAAEAV01@AEBV01@@Z (public: class v8::String & __cdecl v8::String::operator=(class v8::String const &))
      136    ??4StringObject@v8@@QEAAAEAV01@$$QEAV01@@Z (public: class v8::StringObject & __cdecl v8::StringObject::operator=(class v8::StringObject &&))
      137    ??4StringObject@v8@@QEAAAEAV01@AEBV01@@Z (public: class v8::StringObject & __cdecl v8::StringObject::operator=(class v8::StringObject const &))
      138    ??4Symbol@v8@@QEAAAEAV01@$$QEAV01@@Z (public: class v8::Symbol & __cdecl v8::Symbol::operator=(class v8::Symbol &&))
      139    ??4Symbol@v8@@QEAAAEAV01@AEBV01@@Z (public: class v8::Symbol & __cdecl v8::Symbol::operator=(class v8::Symbol const &))
      140    ??4SymbolObject@v8@@QEAAAEAV01@$$QEAV01@@Z (public: class v8::SymbolObject & __cdecl v8::SymbolObject::operator=(class v8::SymbolObject &&))
      141    ??4SymbolObject@v8@@QEAAAEAV01@AEBV01@@Z (public: class v8::SymbolObject & __cdecl v8::SymbolObject::operator=(class v8::SymbolObject const &))
      142    ??4Template@v8@@QEAAAEAV01@$$QEAV01@@Z (public: class v8::Template & __cdecl v8::Template::operator=(class v8::Template &&))
      143    ??4Template@v8@@QEAAAEAV01@AEBV01@@Z (public: class v8::Template & __cdecl v8::Template::operator=(class v8::Template const &))
      144    ??4TypeSwitch@v8@@QEAAAEAV01@$$QEAV01@@Z (public: class v8::TypeSwitch & __cdecl v8::TypeSwitch::operator=(class v8::TypeSwitch &&))
      145    ??4TypeSwitch@v8@@QEAAAEAV01@AEBV01@@Z (public: class v8::TypeSwitch & __cdecl v8::TypeSwitch::operator=(class v8::TypeSwitch const &))
      146    ??4TypedArray@v8@@QEAAAEAV01@$$QEAV01@@Z (public: class v8::TypedArray & __cdecl v8::TypedArray::operator=(class v8::TypedArray &&))
      147    ??4TypedArray@v8@@QEAAAEAV01@AEBV01@@Z (public: class v8::TypedArray & __cdecl v8::TypedArray::operator=(class v8::TypedArray const &))
      148    ??4Uint16Array@v8@@QEAAAEAV01@$$QEAV01@@Z (public: class v8::Uint16Array & __cdecl v8::Uint16Array::operator=(class v8::Uint16Array &&))
      149    ??4Uint16Array@v8@@QEAAAEAV01@AEBV01@@Z (public: class v8::Uint16Array & __cdecl v8::Uint16Array::operator=(class v8::Uint16Array const &))
      150    ??4Uint32@v8@@QEAAAEAV01@$$QEAV01@@Z (public: class v8::Uint32 & __cdecl v8::Uint32::operator=(class v8::Uint32 &&))
      151    ??4Uint32@v8@@QEAAAEAV01@AEBV01@@Z (public: class v8::Uint32 & __cdecl v8::Uint32::operator=(class v8::Uint32 const &))
      152    ??4Uint32Array@v8@@QEAAAEAV01@$$QEAV01@@Z (public: class v8::Uint32Array & __cdecl v8::Uint32Array::operator=(class v8::Uint32Array &&))
      153    ??4Uint32Array@v8@@QEAAAEAV01@AEBV01@@Z (public: class v8::Uint32Array & __cdecl v8::Uint32Array::operator=(class v8::Uint32Array const &))
      154    ??4Uint8Array@v8@@QEAAAEAV01@$$QEAV01@@Z (public: class v8::Uint8Array & __cdecl v8::Uint8Array::operator=(class v8::Uint8Array &&))
      155    ??4Uint8Array@v8@@QEAAAEAV01@AEBV01@@Z (public: class v8::Uint8Array & __cdecl v8::Uint8Array::operator=(class v8::Uint8Array const &))
      156    ??4Uint8ClampedArray@v8@@QEAAAEAV01@$$QEAV01@@Z (public: class v8::Uint8ClampedArray & __cdecl v8::Uint8ClampedArray::operator=(class v8::Uint8ClampedArray &&))
      157    ??4Uint8ClampedArray@v8@@QEAAAEAV01@AEBV01@@Z (public: class v8::Uint8ClampedArray & __cdecl v8::Uint8ClampedArray::operator=(class v8::Uint8ClampedArray const &))
      158    ??4UnboundScript@v8@@QEAAAEAV01@$$QEAV01@@Z (public: class v8::UnboundScript & __cdecl v8::UnboundScript::operator=(class v8::UnboundScript &&))
      159    ??4UnboundScript@v8@@QEAAAEAV01@AEBV01@@Z (public: class v8::UnboundScript & __cdecl v8::UnboundScript::operator=(class v8::UnboundScript const &))
      160    ??4Unlocker@v8@@QEAAAEAV01@AEBV01@@Z (public: class v8::Unlocker & __cdecl v8::Unlocker::operator=(class v8::Unlocker const &))
      161    ??4V8@v8@@QEAAAEAV01@$$QEAV01@@Z (public: class v8::V8 & __cdecl v8::V8::operator=(class v8::V8 &&))
      162    ??4V8@v8@@QEAAAEAV01@AEBV01@@Z (public: class v8::V8 & __cdecl v8::V8::operator=(class v8::V8 const &))
      163    ??4Value@v8@@QEAAAEAV01@$$QEAV01@@Z (public: class v8::Value & __cdecl v8::Value::operator=(class v8::Value &&))
      164    ??4Value@v8@@QEAAAEAV01@AEBV01@@Z (public: class v8::Value & __cdecl v8::Value::operator=(class v8::Value const &))
      165    ??DUtf8Value@String@v8@@QEAAPEADXZ (public: char * __cdecl v8::String::Utf8Value::operator*(void))
      166    ??DUtf8Value@String@v8@@QEBAPEBDXZ (public: char const * __cdecl v8::String::Utf8Value::operator*(void)const )
      167    ??DValue@String@v8@@QEAAPEAGXZ (public: unsigned short * __cdecl v8::String::Value::operator*(void))
      168    ??DValue@String@v8@@QEBAPEBGXZ (public: unsigned short const * __cdecl v8::String::Value::operator*(void)const )
      169    ??_7Allocator@ArrayBuffer@v8@@6B@ (const v8::ArrayBuffer::Allocator::`vftable')
      170    ??_7Extension@v8@@6B@ (const v8::Extension::`vftable')
      171    ??_7ExternalOneByteStringResource@String@v8@@6B@ (const v8::String::ExternalOneByteStringResource::`vftable')
      172    ??_7ExternalOneByteStringResourceImpl@v8@@6B@ (const v8::ExternalOneByteStringResourceImpl::`vftable')
      173    ??_7ExternalResourceVisitor@v8@@6B@ (const v8::ExternalResourceVisitor::`vftable')
      174    ??_7ExternalSourceStream@ScriptCompiler@v8@@6B@ (const v8::ScriptCompiler::ExternalSourceStream::`vftable')
      175    ??_7ExternalStringResource@String@v8@@6B@ (const v8::String::ExternalStringResource::`vftable')
      176    ??_7ExternalStringResourceBase@String@v8@@6B@ (const v8::String::ExternalStringResourceBase::`vftable')
      177    ??_7PersistentHandleVisitor@v8@@6B@ (const v8::PersistentHandleVisitor::`vftable')
      178    ?AddMemoryAllocationCallback@V8@v8@@SAXP6AXW4ObjectSpace@2@W4AllocationAction@2@H@Z01@Z (public: static void __cdecl v8::V8::AddMemoryAllocationCallback(void (__cdecl*)(enum v8::ObjectSpace,enum v8::AllocationAction,int),enum v8::ObjectSpace,enum v8::AllocationAction))
      179    ?AddMessageListener@V8@v8@@SA_NP6AXV?$Local@VMessage@v8@@@2@V?$Local@VValue@v8@@@2@@Z1@Z (public: static bool __cdecl v8::V8::AddMessageListener(void (__cdecl*)(class v8::Local<class v8::Message>,class v8::Local<class v8::Value>),class v8::Local<class v8::Value>))
      180    ?AdjustAmountOfExternalAllocatedMemory@Isolate@v8@@QEAA_J_J@Z (public: __int64 __cdecl v8::Isolate::AdjustAmountOfExternalAllocatedMemory(__int64))
      181    ?ByteLength@Contents@ArrayBuffer@v8@@QEBA_KXZ (public: unsigned __int64 __cdecl v8::ArrayBuffer::Contents::ByteLength(void)const )
      182    ?ByteLength@Contents@SharedArrayBuffer@v8@@QEBA_KXZ (public: unsigned __int64 __cdecl v8::SharedArrayBuffer::Contents::ByteLength(void)const )
      183    ?CancelTerminateExecution@V8@v8@@SAXPEAVIsolate@2@@Z (public: static void __cdecl v8::V8::CancelTerminateExecution(class v8::Isolate *))
      184    ?Cast@Array@v8@@SAPEAV12@PEAVValue@2@@Z (public: static class v8::Array * __cdecl v8::Array::Cast(class v8::Value *))
      185    ?Cast@ArrayBuffer@v8@@SAPEAV12@PEAVValue@2@@Z (public: static class v8::ArrayBuffer * __cdecl v8::ArrayBuffer::Cast(class v8::Value *))
      186    ?Cast@ArrayBufferView@v8@@SAPEAV12@PEAVValue@2@@Z (public: static class v8::ArrayBufferView * __cdecl v8::ArrayBufferView::Cast(class v8::Value *))
      187    ?Cast@Boolean@v8@@SAPEAV12@PEAVValue@2@@Z (public: static class v8::Boolean * __cdecl v8::Boolean::Cast(class v8::Value *))
      188    ?Cast@BooleanObject@v8@@SAPEAV12@PEAVValue@2@@Z (public: static class v8::BooleanObject * __cdecl v8::BooleanObject::Cast(class v8::Value *))
      189    ?Cast@DataView@v8@@SAPEAV12@PEAVValue@2@@Z (public: static class v8::DataView * __cdecl v8::DataView::Cast(class v8::Value *))
      190    ?Cast@Date@v8@@SAPEAV12@PEAVValue@2@@Z (public: static class v8::Date * __cdecl v8::Date::Cast(class v8::Value *))
      191    ?Cast@External@v8@@SAPEAV12@PEAVValue@2@@Z (public: static class v8::External * __cdecl v8::External::Cast(class v8::Value *))
      192    ?Cast@Float32Array@v8@@SAPEAV12@PEAVValue@2@@Z (public: static class v8::Float32Array * __cdecl v8::Float32Array::Cast(class v8::Value *))
      193    ?Cast@Float64Array@v8@@SAPEAV12@PEAVValue@2@@Z (public: static class v8::Float64Array * __cdecl v8::Float64Array::Cast(class v8::Value *))
      194    ?Cast@Function@v8@@SAPEAV12@PEAVValue@2@@Z (public: static class v8::Function * __cdecl v8::Function::Cast(class v8::Value *))
      195    ?Cast@Int16Array@v8@@SAPEAV12@PEAVValue@2@@Z (public: static class v8::Int16Array * __cdecl v8::Int16Array::Cast(class v8::Value *))
      196    ?Cast@Int32@v8@@SAPEAV12@PEAVValue@2@@Z (public: static class v8::Int32 * __cdecl v8::Int32::Cast(class v8::Value *))
      197    ?Cast@Int32Array@v8@@SAPEAV12@PEAVValue@2@@Z (public: static class v8::Int32Array * __cdecl v8::Int32Array::Cast(class v8::Value *))
      198    ?Cast@Int8Array@v8@@SAPEAV12@PEAVValue@2@@Z (public: static class v8::Int8Array * __cdecl v8::Int8Array::Cast(class v8::Value *))
      199    ?Cast@Integer@v8@@SAPEAV12@PEAVValue@2@@Z (public: static class v8::Integer * __cdecl v8::Integer::Cast(class v8::Value *))
      200    ?Cast@Map@v8@@SAPEAV12@PEAVValue@2@@Z (public: static class v8::Map * __cdecl v8::Map::Cast(class v8::Value *))
      201    ?Cast@Name@v8@@SAPEAV12@PEAVValue@2@@Z (public: static class v8::Name * __cdecl v8::Name::Cast(class v8::Value *))
      202    ?Cast@Number@v8@@SAPEAV12@PEAVValue@2@@Z (public: static class v8::Number * __cdecl v8::Number::Cast(class v8::Value *))
      203    ?Cast@NumberObject@v8@@SAPEAV12@PEAVValue@2@@Z (public: static class v8::NumberObject * __cdecl v8::NumberObject::Cast(class v8::Value *))
      204    ?Cast@Object@v8@@SAPEAV12@PEAVValue@2@@Z (public: static class v8::Object * __cdecl v8::Object::Cast(class v8::Value *))
      205    ?Cast@Promise@v8@@SAPEAV12@PEAVValue@2@@Z (public: static class v8::Promise * __cdecl v8::Promise::Cast(class v8::Value *))
      206    ?Cast@RegExp@v8@@SAPEAV12@PEAVValue@2@@Z (public: static class v8::RegExp * __cdecl v8::RegExp::Cast(class v8::Value *))
      207    ?Cast@Resolver@Promise@v8@@SAPEAV123@PEAVValue@3@@Z (public: static class v8::Promise::Resolver * __cdecl v8::Promise::Resolver::Cast(class v8::Value *))
      208    ?Cast@Set@v8@@SAPEAV12@PEAVValue@2@@Z (public: static class v8::Set * __cdecl v8::Set::Cast(class v8::Value *))
      209    ?Cast@SharedArrayBuffer@v8@@SAPEAV12@PEAVValue@2@@Z (public: static class v8::SharedArrayBuffer * __cdecl v8::SharedArrayBuffer::Cast(class v8::Value *))
      210    ?Cast@String@v8@@SAPEAV12@PEAVValue@2@@Z (public: static class v8::String * __cdecl v8::String::Cast(class v8::Value *))
      211    ?Cast@StringObject@v8@@SAPEAV12@PEAVValue@2@@Z (public: static class v8::StringObject * __cdecl v8::StringObject::Cast(class v8::Value *))
      212    ?Cast@Symbol@v8@@SAPEAV12@PEAVValue@2@@Z (public: static class v8::Symbol * __cdecl v8::Symbol::Cast(class v8::Value *))
      213    ?Cast@SymbolObject@v8@@SAPEAV12@PEAVValue@2@@Z (public: static class v8::SymbolObject * __cdecl v8::SymbolObject::Cast(class v8::Value *))
      214    ?Cast@TypedArray@v8@@SAPEAV12@PEAVValue@2@@Z (public: static class v8::TypedArray * __cdecl v8::TypedArray::Cast(class v8::Value *))
      215    ?Cast@Uint16Array@v8@@SAPEAV12@PEAVValue@2@@Z (public: static class v8::Uint16Array * __cdecl v8::Uint16Array::Cast(class v8::Value *))
      216    ?Cast@Uint32@v8@@SAPEAV12@PEAVValue@2@@Z (public: static class v8::Uint32 * __cdecl v8::Uint32::Cast(class v8::Value *))
      217    ?Cast@Uint32Array@v8@@SAPEAV12@PEAVValue@2@@Z (public: static class v8::Uint32Array * __cdecl v8::Uint32Array::Cast(class v8::Value *))
      218    ?Cast@Uint8Array@v8@@SAPEAV12@PEAVValue@2@@Z (public: static class v8::Uint8Array * __cdecl v8::Uint8Array::Cast(class v8::Value *))
      219    ?Cast@Uint8ClampedArray@v8@@SAPEAV12@PEAVValue@2@@Z (public: static class v8::Uint8ClampedArray * __cdecl v8::Uint8ClampedArray::Cast(class v8::Value *))
      220    ?Data@Contents@ArrayBuffer@v8@@QEBAPEAXXZ (public: void * __cdecl v8::ArrayBuffer::Contents::Data(void)const )
      221    ?Data@Contents@SharedArrayBuffer@v8@@QEBAPEAXXZ (public: void * __cdecl v8::SharedArrayBuffer::Contents::Data(void)const )
      222    ?Dispose@ExternalStringResourceBase@String@v8@@MEAAXXZ (protected: virtual void __cdecl v8::String::ExternalStringResourceBase::Dispose(void))
      223    ?Empty@String@v8@@SA?AV?$Local@VString@v8@@@2@PEAVIsolate@2@@Z (public: static class v8::Local<class v8::String> __cdecl v8::String::Empty(class v8::Isolate *))
      224    ?GetAlignedPointerFromEmbedderData@Context@v8@@QEAAPEAXH@Z (public: void * __cdecl v8::Context::GetAlignedPointerFromEmbedderData(int))
      225    ?GetAlignedPointerFromInternalField@Object@v8@@QEAAPEAXH@Z (public: void * __cdecl v8::Object::GetAlignedPointerFromInternalField(int))
      226    ?GetAlignedPointerFromInternalField@Object@v8@@SAPEAXAEBV?$PersistentBase@VObject@v8@@@2@H@Z (public: static void * __cdecl v8::Object::GetAlignedPointerFromInternalField(class v8::PersistentBase<class v8::Object> const &,int))
      227    ?GetData@Isolate@v8@@QEAAPEAXI@Z (public: void * __cdecl v8::Isolate::GetData(unsigned int))
      228    ?GetEmbedderData@Context@v8@@QEAA?AV?$Local@VValue@v8@@@2@H@Z (public: class v8::Local<class v8::Value> __cdecl v8::Context::GetEmbedderData(int))
      229    ?GetExternalStringResource@String@v8@@QEBAPEAVExternalStringResource@12@XZ (public: class v8::String::ExternalStringResource * __cdecl v8::String::GetExternalStringResource(void)const )
      230    ?GetExternalStringResourceBase@String@v8@@QEBAPEAVExternalStringResourceBase@12@PEAW4Encoding@12@@Z (public: class v8::String::ExternalStringResourceBase * __cdecl v8::String::GetExternalStringResourceBase(enum v8::String::Encoding *)const )
      231    ?GetInternalField@Object@v8@@QEAA?AV?$Local@VValue@v8@@@2@H@Z (public: class v8::Local<class v8::Value> __cdecl v8::Object::GetInternalField(int))
      232    ?GetIsolate@HandleScope@v8@@QEBAPEAVIsolate@2@XZ (public: class v8::Isolate * __cdecl v8::HandleScope::GetIsolate(void)const )
      233    ?GetNativeFunctionTemplate@Extension@v8@@UEAA?AV?$Local@VFunctionTemplate@v8@@@2@PEAVIsolate@2@V?$Local@VString@v8@@@2@@Z (public: virtual class v8::Local<class v8::FunctionTemplate> __cdecl v8::Extension::GetNativeFunctionTemplate(class v8::Isolate *,class v8::Local<class v8::String>))
      234    ?GetNumberOfDataSlots@Isolate@v8@@SAIXZ (public: static unsigned int __cdecl v8::Isolate::GetNumberOfDataSlots(void))
      235    ?InternalFieldCount@Object@v8@@SAHAEBV?$PersistentBase@VObject@v8@@@2@@Z (public: static int __cdecl v8::Object::InternalFieldCount(class v8::PersistentBase<class v8::Object> const &))
      236    ?IsDead@V8@v8@@SA_NXZ (public: static bool __cdecl v8::V8::IsDead(void))
      237    ?IsExecutionTerminating@V8@v8@@SA_NPEAVIsolate@2@@Z (public: static bool __cdecl v8::V8::IsExecutionTerminating(class v8::Isolate *))
      238    ?IsNull@Value@v8@@QEBA_NXZ (public: bool __cdecl v8::Value::IsNull(void)const )
      239    ?IsString@Value@v8@@QEBA_NXZ (public: bool __cdecl v8::Value::IsString(void)const )
      240    ?IsUndefined@Value@v8@@QEBA_NXZ (public: bool __cdecl v8::Value::IsUndefined(void)const )
      241    ?JSStackComparableAddress@TryCatch@v8@@SAPEAXPEAV12@@Z (public: static void * __cdecl v8::TryCatch::JSStackComparableAddress(class v8::TryCatch *))
      242    ?New@Boolean@v8@@SA?AV?$Local@VBoolean@v8@@@2@PEAVIsolate@2@_N@Z (public: static class v8::Local<class v8::Boolean> __cdecl v8::Boolean::New(class v8::Isolate *,bool))
      243    ?NewInstance@Function@v8@@QEBA?AV?$MaybeLocal@VObject@v8@@@2@V?$Local@VContext@v8@@@2@@Z (public: class v8::MaybeLocal<class v8::Object> __cdecl v8::Function::NewInstance(class v8::Local<class v8::Context>)const )
      244    ?QuickIsNull@Value@v8@@AEBA_NXZ (private: bool __cdecl v8::Value::QuickIsNull(void)const )
      245    ?QuickIsString@Value@v8@@AEBA_NXZ (private: bool __cdecl v8::Value::QuickIsString(void)const )
      246    ?QuickIsUndefined@Value@v8@@AEBA_NXZ (private: bool __cdecl v8::Value::QuickIsUndefined(void)const )
      247    ?RemoveGCEpilogueCallback@V8@v8@@SAXP6AXW4GCType@2@W4GCCallbackFlags@2@@Z@Z (public: static void __cdecl v8::V8::RemoveGCEpilogueCallback(void (__cdecl*)(enum v8::GCType,enum v8::GCCallbackFlags)))
      248    ?RemoveGCPrologueCallback@V8@v8@@SAXP6AXW4GCType@2@W4GCCallbackFlags@2@@Z@Z (public: static void __cdecl v8::V8::RemoveGCPrologueCallback(void (__cdecl*)(enum v8::GCType,enum v8::GCCallbackFlags)))
      249    ?RemoveMemoryAllocationCallback@V8@v8@@SAXP6AXW4ObjectSpace@2@W4AllocationAction@2@H@Z@Z (public: static void __cdecl v8::V8::RemoveMemoryAllocationCallback(void (__cdecl*)(enum v8::ObjectSpace,enum v8::AllocationAction,int)))
      250    ?RemoveMessageListeners@V8@v8@@SAXP6AXV?$Local@VMessage@v8@@@2@V?$Local@VValue@v8@@@2@@Z@Z (public: static void __cdecl v8::V8::RemoveMessageListeners(void (__cdecl*)(class v8::Local<class v8::Message>,class v8::Local<class v8::Value>)))
      251    ?Set@Template@v8@@QEAAXPEAVIsolate@2@PEBDV?$Local@VData@v8@@@2@@Z (public: void __cdecl v8::Template::Set(class v8::Isolate *,char const *,class v8::Local<class v8::Data>))
      252    ?SetAllowCodeGenerationFromStringsCallback@V8@v8@@SAXP6A_NV?$Local@VContext@v8@@@2@@Z@Z (public: static void __cdecl v8::V8::SetAllowCodeGenerationFromStringsCallback(bool (__cdecl*)(class v8::Local<class v8::Context>)))
      253    ?SetCaptureStackTraceForUncaughtExceptions@V8@v8@@SAX_NHW4StackTraceOptions@StackTrace@2@@Z (public: static void __cdecl v8::V8::SetCaptureStackTraceForUncaughtExceptions(bool,int,enum v8::StackTrace::StackTraceOptions))
      254    ?SetData@Isolate@v8@@QEAAXIPEAX@Z (public: void __cdecl v8::Isolate::SetData(unsigned int,void *))
      255    ?SetFailedAccessCheckCallbackFunction@V8@v8@@SAXP6AXV?$Local@VObject@v8@@@2@W4AccessType@2@V?$Local@VValue@v8@@@2@@Z@Z (public: static void __cdecl v8::V8::SetFailedAccessCheckCallbackFunction(void (__cdecl*)(class v8::Local<class v8::Object>,enum v8::AccessType,class v8::Local<class v8::Value>)))
      256    ?SetFatalErrorHandler@V8@v8@@SAXP6AXPEBD0@Z@Z (public: static void __cdecl v8::V8::SetFatalErrorHandler(void (__cdecl*)(char const *,char const *)))
      257    ?SetIndexedPropertyHandler@ObjectTemplate@v8@@QEAAXP6AXIAEBV?$PropertyCallbackInfo@VValue@v8@@@2@@ZP6AXIV?$Local@VValue@v8@@@2@0@ZP6AXIAEBV?$PropertyCallbackInfo@VInteger@v8@@@2@@ZP6AXIAEBV?$PropertyCallbackInfo@VBoolean@v8@@@2@@ZP6AXAEBV?$PropertyCallbackInfo@VArray@v8@@@2@@Z2@Z (public: void __cdecl v8::ObjectTemplate::SetIndexedPropertyHandler(void (__cdecl*)(unsigned int,class v8::PropertyCallbackInfo<class v8::Value> const &),void (__cdecl*)(unsigned int,class v8::Local<class v8::Value>,class v8::PropertyCallbackInfo<class v8::Value> const &),void (__cdecl*)(unsigned int,class v8::PropertyCallbackInfo<class v8::Integer> const &),void (__cdecl*)(unsigned int,class v8::PropertyCallbackInfo<class v8::Boolean> const &),void (__cdecl*)(class v8::PropertyCallbackInfo<class v8::Array> const &),class v8::Local<class v8::Value>))
      258    ?TerminateExecution@V8@v8@@SAXPEAVIsolate@2@@Z (public: static void __cdecl v8::V8::TerminateExecution(class v8::Isolate *))
      259    ?ToBoolean@Value@v8@@QEBA?AV?$Local@VBoolean@v8@@@2@XZ (public: class v8::Local<class v8::Boolean> __cdecl v8::Value::ToBoolean(void)const )
      260    ?ToDetailString@Value@v8@@QEBA?AV?$Local@VString@v8@@@2@XZ (public: class v8::Local<class v8::String> __cdecl v8::Value::ToDetailString(void)const )
      261    ?ToInt32@Value@v8@@QEBA?AV?$Local@VInt32@v8@@@2@XZ (public: class v8::Local<class v8::Int32> __cdecl v8::Value::ToInt32(void)const )
      262    ?ToInteger@Value@v8@@QEBA?AV?$Local@VInteger@v8@@@2@XZ (public: class v8::Local<class v8::Integer> __cdecl v8::Value::ToInteger(void)const )
      263    ?ToNumber@Value@v8@@QEBA?AV?$Local@VNumber@v8@@@2@XZ (public: class v8::Local<class v8::Number> __cdecl v8::Value::ToNumber(void)const )
      264    ?ToObject@Value@v8@@QEBA?AV?$Local@VObject@v8@@@2@XZ (public: class v8::Local<class v8::Object> __cdecl v8::Value::ToObject(void)const )
      265    ?ToString@Value@v8@@QEBA?AV?$Local@VString@v8@@@2@XZ (public: class v8::Local<class v8::String> __cdecl v8::Value::ToString(void)const )
      266    ?ToUint32@Value@v8@@QEBA?AV?$Local@VUint32@v8@@@2@XZ (public: class v8::Local<class v8::Uint32> __cdecl v8::Value::ToUint32(void)const )
      267    ?VisitExternalResources@V8@v8@@SAXPEAVExternalResourceVisitor@2@@Z (public: static void __cdecl v8::V8::VisitExternalResources(class v8::ExternalResourceVisitor *))
      268    ?VisitExternalString@ExternalResourceVisitor@v8@@UEAAXV?$Local@VString@v8@@@2@@Z (public: virtual void __cdecl v8::ExternalResourceVisitor::VisitExternalString(class v8::Local<class v8::String>))
      269    ?VisitHandlesForPartialDependence@V8@v8@@SAXPEAVIsolate@2@PEAVPersistentHandleVisitor@2@@Z (public: static void __cdecl v8::V8::VisitHandlesForPartialDependence(class v8::Isolate *,class v8::PersistentHandleVisitor *))
      270    ?VisitHandlesWithClassIds@V8@v8@@SAXPEAVIsolate@2@PEAVPersistentHandleVisitor@2@@Z (public: static void __cdecl v8::V8::VisitHandlesWithClassIds(class v8::Isolate *,class v8::PersistentHandleVisitor *))
      271    ?VisitHandlesWithClassIds@V8@v8@@SAXPEAVPersistentHandleVisitor@2@@Z (public: static void __cdecl v8::V8::VisitHandlesWithClassIds(class v8::PersistentHandleVisitor *))
      272    ?VisitPersistentHandle@PersistentHandleVisitor@v8@@UEAAXPEAV?$Persistent@VValue@v8@@V?$NonCopyablePersistentTraits@VValue@v8@@@2@@2@G@Z (public: virtual void __cdecl v8::PersistentHandleVisitor::VisitPersistentHandle(class v8::Persistent<class v8::Value,class v8::NonCopyablePersistentTraits<class v8::Value> > *,unsigned short))
      273    ?auto_enable@Extension@v8@@QEAA_NXZ (public: bool __cdecl v8::Extension::auto_enable(void))
      274    ?begin@ExtensionConfiguration@v8@@QEBAPEAPEBDXZ (public: char const * * __cdecl v8::ExtensionConfiguration::begin(void)const )
      275    ?code_range_size@ResourceConstraints@v8@@QEBA_KXZ (public: unsigned __int64 __cdecl v8::ResourceConstraints::code_range_size(void)const )
      276    ?data@ExternalOneByteStringResourceImpl@v8@@UEBAPEBDXZ (public: virtual char const * __cdecl v8::ExternalOneByteStringResourceImpl::data(void)const )
      277    ?dependencies@Extension@v8@@QEAAPEAPEBDXZ (public: char const * * __cdecl v8::Extension::dependencies(void))
      278    ?dependency_count@Extension@v8@@QEAAHXZ (public: int __cdecl v8::Extension::dependency_count(void))
      279    ?end@ExtensionConfiguration@v8@@QEBAPEAPEBDXZ (public: char const * * __cdecl v8::ExtensionConfiguration::end(void)const )
      280    ?heap_size_limit@HeapStatistics@v8@@QEAA_KXZ (public: unsigned __int64 __cdecl v8::HeapStatistics::heap_size_limit(void))
      281    ?impl@StreamedSource@ScriptCompiler@v8@@QEBAPEAU1internal@3@XZ (public: struct v8::internal::StreamedSource * __cdecl v8::ScriptCompiler::StreamedSource::impl(void)const )
      282    ?kInternalFieldCount@ArrayBuffer@v8@@2HB (public: static int const v8::ArrayBuffer::kInternalFieldCount)
      283    ?kInternalFieldCount@ArrayBufferView@v8@@2HB (public: static int const v8::ArrayBufferView::kInternalFieldCount)
      284    ?kInternalFieldCount@SharedArrayBuffer@v8@@2HB (public: static int const v8::SharedArrayBuffer::kInternalFieldCount)
      285    ?kMaxLength@String@v8@@2HB (public: static int const v8::String::kMaxLength)
      286    ?kNoColumnInfo@Message@v8@@2HB (public: static int const v8::Message::kNoColumnInfo)
      287    ?kNoLineNumberInfo@Message@v8@@2HB (public: static int const v8::Message::kNoLineNumberInfo)
      288    ?kNoScriptId@UnboundScript@v8@@2HB (public: static int const v8::UnboundScript::kNoScriptId)
      289    ?kNoScriptIdInfo@Message@v8@@2HB (public: static int const v8::Message::kNoScriptIdInfo)
      290    ?length@ExternalOneByteStringResourceImpl@v8@@UEBA_KXZ (public: virtual unsigned __int64 __cdecl v8::ExternalOneByteStringResourceImpl::length(void)const )
      291    ?length@Utf8Value@String@v8@@QEBAHXZ (public: int __cdecl v8::String::Utf8Value::length(void)const )
      292    ?length@Value@String@v8@@QEBAHXZ (public: int __cdecl v8::String::Value::length(void)const )
      293    ?max_executable_size@ResourceConstraints@v8@@QEBAHXZ (public: int __cdecl v8::ResourceConstraints::max_executable_size(void)const )
      294    ?max_old_space_size@ResourceConstraints@v8@@QEBAHXZ (public: int __cdecl v8::ResourceConstraints::max_old_space_size(void)const )
      295    ?max_semi_space_size@ResourceConstraints@v8@@QEBAHXZ (public: int __cdecl v8::ResourceConstraints::max_semi_space_size(void)const )
      296    ?name@Extension@v8@@QEBAPEBDXZ (public: char const * __cdecl v8::Extension::name(void)const )
      297    ?object_count@HeapObjectStatistics@v8@@QEAA_KXZ (public: unsigned __int64 __cdecl v8::HeapObjectStatistics::object_count(void))
      298    ?object_size@HeapObjectStatistics@v8@@QEAA_KXZ (public: unsigned __int64 __cdecl v8::HeapObjectStatistics::object_size(void))
      299    ?object_sub_type@HeapObjectStatistics@v8@@QEAAPEBDXZ (public: char const * __cdecl v8::HeapObjectStatistics::object_sub_type(void))
      300    ?object_type@HeapObjectStatistics@v8@@QEAAPEBDXZ (public: char const * __cdecl v8::HeapObjectStatistics::object_type(void))
      301    ?physical_space_size@HeapSpaceStatistics@v8@@QEAA_KXZ (public: unsigned __int64 __cdecl v8::HeapSpaceStatistics::physical_space_size(void))
      302    ?set_auto_enable@Extension@v8@@QEAAX_N@Z (public: void __cdecl v8::Extension::set_auto_enable(bool))
      303    ?set_code_range_size@ResourceConstraints@v8@@QEAAX_K@Z (public: void __cdecl v8::ResourceConstraints::set_code_range_size(unsigned __int64))
      304    ?set_max_executable_size@ResourceConstraints@v8@@QEAAXH@Z (public: void __cdecl v8::ResourceConstraints::set_max_executable_size(int))
      305    ?set_max_old_space_size@ResourceConstraints@v8@@QEAAXH@Z (public: void __cdecl v8::ResourceConstraints::set_max_old_space_size(int))
      306    ?set_max_semi_space_size@ResourceConstraints@v8@@QEAAXH@Z (public: void __cdecl v8::ResourceConstraints::set_max_semi_space_size(int))
      307    ?set_stack_limit@ResourceConstraints@v8@@QEAAXPEAI@Z (public: void __cdecl v8::ResourceConstraints::set_stack_limit(unsigned int *))
      308    ?source@Extension@v8@@QEBAPEBVExternalOneByteStringResource@String@2@XZ (public: class v8::String::ExternalOneByteStringResource const * __cdecl v8::Extension::source(void)const )
      309    ?source_length@Extension@v8@@QEBA_KXZ (public: unsigned __int64 __cdecl v8::Extension::source_length(void)const )
      310    ?space_available_size@HeapSpaceStatistics@v8@@QEAA_KXZ (public: unsigned __int64 __cdecl v8::HeapSpaceStatistics::space_available_size(void))
      311    ?space_name@HeapSpaceStatistics@v8@@QEAAPEBDXZ (public: char const * __cdecl v8::HeapSpaceStatistics::space_name(void))
      312    ?space_size@HeapSpaceStatistics@v8@@QEAA_KXZ (public: unsigned __int64 __cdecl v8::HeapSpaceStatistics::space_size(void))
      313    ?space_used_size@HeapSpaceStatistics@v8@@QEAA_KXZ (public: unsigned __int64 __cdecl v8::HeapSpaceStatistics::space_used_size(void))
      314    ?stack_limit@ResourceConstraints@v8@@QEBAPEAIXZ (public: unsigned int * __cdecl v8::ResourceConstraints::stack_limit(void)const )
      315    ?total_available_size@HeapStatistics@v8@@QEAA_KXZ (public: unsigned __int64 __cdecl v8::HeapStatistics::total_available_size(void))
      316    ?total_heap_size@HeapStatistics@v8@@QEAA_KXZ (public: unsigned __int64 __cdecl v8::HeapStatistics::total_heap_size(void))
      317    ?total_heap_size_executable@HeapStatistics@v8@@QEAA_KXZ (public: unsigned __int64 __cdecl v8::HeapStatistics::total_heap_size_executable(void))
      318    ?total_physical_size@HeapStatistics@v8@@QEAA_KXZ (public: unsigned __int64 __cdecl v8::HeapStatistics::total_physical_size(void))
      319    ?used_heap_size@HeapStatistics@v8@@QEAA_KXZ (public: unsigned __int64 __cdecl v8::HeapStatistics::used_heap_size(void))
      320    _register_canvas_
